CCS PCH C Compiler, Version 5.015, 5967               04-Jun-22 10:14

               Filename:   E:\Downloads\TT VXL THAY PHU\tt_vxl_d501_thay_phu\tt_vxl_d501_thay_phu\bai_tong_hop_2.lst

               ROM used:   14118 bytes (43%)
                           Largest free fragment is 18650
               RAM used:   1199 (59%) at main() level
                           1279 (62%) worst case
               Stack used: 10 locations
               Stack size: 31

*
0000:  GOTO   3386
.................... #include <tv_kit_vdk_pic_all.c> 
.................... //xxxxxxxxxxxxxxxxxxxxxxxxxxxxxxxxxxxxxxxxxxxxxxxxxxxxxxxx 
.................... //NGUYEN DINH PHU SU PHAM KY THUAT TP HCM 
.................... //xxxxxxxxxxxxxxxxxxxxxxxxxxxxxxxxxxxxxxxxxxxxxxxxxxxxxxxx 
.................... #include <tv_00_define_18f4550.c>                                            
.................... //xxxxxxxxxxxxxxxxxxxxxxxxxxxxxxxxxxxxxxxxxxxxxxxxxxxxxxxx 
.................... //NGUYEN DINH PHU SU PHAM KY THUAT TP HCM 
.................... //xxxxxxxxxxxxxxxxxxxxxxxxxxxxxxxxxxxxxxxxxxxxxxxxxxxxxxxx 
....................  
.................... //xxxxxxxxxxxxxxxxxxxxxxxxxxxxxxxxxxxxxxxxxxxxxxxxxxxxxxxx 
.................... //cau hinh vi dieu khien pic        
.................... //xxxxxxxxxxxxxxxxxxxxxxxxxxxxxxxxxxxxxxxxxxxxxxxxxxxxxxxx 
.................... #include <18f4550.h> 
.................... //////////// Standard Header file for the PIC18F4550 device //////////////// 
.................... /////////////////////////////////////////////////////////////////////////// 
.................... ////        (C) Copyright 1996, 2013 Custom Computer Services          //// 
.................... //// This source code may only be used by licensed users of the CCS C  //// 
.................... //// compiler.  This source code may only be distributed to other      //// 
.................... //// licensed users of the CCS C compiler.  No other use, reproduction //// 
.................... //// or distribution is permitted without written permission.          //// 
.................... //// Derivative programs created using this software in object code    //// 
.................... //// form are not restricted in any way.                               //// 
.................... /////////////////////////////////////////////////////////////////////////// 
.................... #device PIC18F4550 
0004:  CLRF   FF7
0006:  ADDLW  14
0008:  MOVWF  FF6
000A:  MOVLW  00
000C:  ADDWFC FF7,F
000E:  TBLRD*+
0010:  MOVF   FF5,W
0012:  RETURN 0
0014:  DATA 3F,7F
0016:  DATA BF,FF
0018:  CLRF   FF7
001A:  ADDLW  28
001C:  MOVWF  FF6
001E:  MOVLW  00
0020:  ADDWFC FF7,F
0022:  TBLRD*+
0024:  MOVF   FF5,W
0026:  RETURN 0
0028:  DATA 80,C0
002A:  DATA 94,D4
002C:  CLRF   FF7
002E:  ADDLW  3C
0030:  MOVWF  FF6
0032:  MOVLW  00
0034:  ADDWFC FF7,F
0036:  TBLRD*+
0038:  MOVF   FF5,W
003A:  RETURN 0
003C:  DATA 00,01
003E:  DATA 02,04
0040:  DATA 03,05
0042:  DATA 01,02
0044:  DATA 20,03
0046:  DATA 07,03
0048:  DATA 06,06
004A:  DATA 02,04
004C:  DATA 03,03
004E:  DATA 06,06
0050:  DATA 02,03
0052:  DATA 03,05
0054:  DATA 07,03
0056:  DATA 07,20
0058:  DATA 20,07
005A:  DATA 07,06
005C:  DATA 06,03
005E:  DATA 03,05
0060:  DATA 00,06
0062:  DATA 06,04
0064:  DATA 03,05
0066:  DATA 01,01
0068:  DATA 07,20
006A:  DATA 20,07
006C:  DATA 00,06
006E:  DATA 02,04
0070:  DATA 03,05
0072:  DATA 00,06
0074:  DATA 02,03
0076:  DATA 03,05
0078:  CLRF   FF7
007A:  ADDLW  88
007C:  MOVWF  FF6
007E:  MOVLW  00
0080:  ADDWFC FF7,F
0082:  TBLRD*+
0084:  MOVF   FF5,W
0086:  RETURN 0
0088:  DATA 07,0F
008A:  DATA 1F,1F
008C:  DATA 1F,1F
008E:  DATA 1F,1F
0090:  DATA 1F,1F
0092:  DATA 1F,00
0094:  DATA 00,00
0096:  DATA 00,00
0098:  DATA 1C,1E
009A:  DATA 1F,1F
009C:  DATA 1F,1F
009E:  DATA 1F,1F
00A0:  DATA 00,00
00A2:  DATA 00,00
00A4:  DATA 00,1F
00A6:  DATA 1F,1F
00A8:  DATA 1F,1F
00AA:  DATA 1F,1F
00AC:  DATA 1F,1F
00AE:  DATA 0F,07
00B0:  DATA 1F,1F
00B2:  DATA 1F,1F
00B4:  DATA 1F,1F
00B6:  DATA 1E,1C
00B8:  DATA 1F,1F
00BA:  DATA 1F,00
00BC:  DATA 00,00
00BE:  DATA 1F,1F
00C0:  DATA 1F,1F
00C2:  DATA 1F,1F
00C4:  DATA 1F,1F
00C6:  DATA 1F,1F
00C8:  CLRF   FF7
00CA:  ADDLW  D8
00CC:  MOVWF  FF6
00CE:  MOVLW  00
00D0:  ADDWFC FF7,F
00D2:  TBLRD*+
00D4:  MOVF   FF5,W
00D6:  RETURN 0
00D8:  DATA 00,00
00DA:  DATA 00,00
00DC:  DATA 00,00
00DE:  DATA 00,5F
00E0:  DATA 00,00
00E2:  DATA 00,03
00E4:  DATA 00,03
00E6:  DATA 00,14
00E8:  DATA 3E,14
00EA:  DATA 3E,14
00EC:  DATA 24,2A
00EE:  DATA 7F,2A
00F0:  DATA 12,43
00F2:  DATA 33,08
00F4:  DATA 66,61
00F6:  DATA 36,49
00F8:  DATA 55,22
00FA:  DATA 50,00
00FC:  DATA 05,03
00FE:  DATA 00,00
0100:  DATA 00,1C
0102:  DATA 22,41
0104:  DATA 00,00
0106:  DATA 41,22
0108:  DATA 1C,00
010A:  DATA 14,08
010C:  DATA 3E,08
010E:  DATA 14,08
0110:  DATA 08,3E
0112:  DATA 08,08
0114:  DATA 00,50
0116:  DATA 30,00
0118:  DATA 00,08
011A:  DATA 08,08
011C:  DATA 08,08
011E:  DATA 00,60
0120:  DATA 60,00
0122:  DATA 00,20
0124:  DATA 10,08
0126:  DATA 04,02
0128:  DATA 3E,51
012A:  DATA 49,45
012C:  DATA 3E,00
012E:  DATA 04,02
0130:  DATA 7F,00
0132:  DATA 42,61
0134:  DATA 51,49
0136:  DATA 46,22
0138:  DATA 41,49
013A:  DATA 49,36
013C:  DATA 18,14
013E:  DATA 12,7F
0140:  DATA 10,27
0142:  DATA 45,45
0144:  DATA 45,39
0146:  DATA 3E,49
0148:  DATA 49,49
014A:  DATA 32,01
014C:  DATA 01,71
014E:  DATA 09,07
0150:  DATA 36,49
0152:  DATA 49,49
0154:  DATA 36,26
0156:  DATA 49,49
0158:  DATA 49,3E
015A:  DATA 00,36
015C:  DATA 36,00
015E:  DATA 00,00
0160:  DATA 56,36
0162:  DATA 00,00
0164:  DATA 08,14
0166:  DATA 22,41
0168:  DATA 00,14
016A:  DATA 14,14
016C:  DATA 14,14
016E:  DATA 00,41
0170:  DATA 22,14
0172:  DATA 08,02
0174:  DATA 01,51
0176:  DATA 09,06
0178:  DATA 3E,41
017A:  DATA 59,55
017C:  DATA 5E,7E
017E:  DATA 09,09
0180:  DATA 09,7E
0182:  DATA 7F,49
0184:  DATA 49,49
0186:  DATA 36,3E
0188:  DATA 41,41
018A:  DATA 41,22
018C:  DATA 7F,41
018E:  DATA 41,41
0190:  DATA 3E,7F
0192:  DATA 49,49
0194:  DATA 49,41
0196:  DATA 7F,09
0198:  DATA 09,09
019A:  DATA 01,3E
019C:  DATA 41,41
019E:  DATA 49,3A
01A0:  DATA 7F,08
01A2:  DATA 08,08
01A4:  DATA 7F,00
01A6:  DATA 41,7F
01A8:  DATA 41,00
01AA:  DATA 30,40
01AC:  DATA 40,40
01AE:  DATA 3F,7F
01B0:  DATA 08,14
01B2:  DATA 22,41
01B4:  DATA 7F,40
01B6:  DATA 40,40
01B8:  DATA 40,7F
01BA:  DATA 02,0C
01BC:  DATA 02,7F
01BE:  DATA 7F,02
01C0:  DATA 04,08
01C2:  DATA 7F,3E
01C4:  DATA 41,41
01C6:  DATA 41,3E
01C8:  DATA 7F,09
01CA:  DATA 09,09
01CC:  DATA 06,1E
01CE:  DATA 21,21
01D0:  DATA 21,5E
01D2:  DATA 7F,09
01D4:  DATA 09,09
01D6:  DATA 76,00
01D8:  CLRF   FF7
01DA:  ADDLW  E8
01DC:  MOVWF  FF6
01DE:  MOVLW  01
01E0:  ADDWFC FF7,F
01E2:  TBLRD*+
01E4:  MOVF   FF5,W
01E6:  RETURN 0
01E8:  DATA 26,49
01EA:  DATA 49,49
01EC:  DATA 32,01
01EE:  DATA 01,7F
01F0:  DATA 01,01
01F2:  DATA 3F,40
01F4:  DATA 40,40
01F6:  DATA 3F,1F
01F8:  DATA 20,40
01FA:  DATA 20,1F
01FC:  DATA 7F,20
01FE:  DATA 10,20
0200:  DATA 7F,41
0202:  DATA 22,1C
0204:  DATA 22,41
0206:  DATA 07,08
0208:  DATA 70,08
020A:  DATA 07,61
020C:  DATA 51,49
020E:  DATA 45,43
0210:  DATA 00,7F
0212:  DATA 41,00
0214:  DATA 00,02
0216:  DATA 04,08
0218:  DATA 10,20
021A:  DATA 00,00
021C:  DATA 41,7F
021E:  DATA 00,04
0220:  DATA 02,01
0222:  DATA 02,04
0224:  DATA 40,40
0226:  DATA 40,40
0228:  DATA 40,00
022A:  DATA 01,02
022C:  DATA 04,00
022E:  DATA 20,54
0230:  DATA 54,54
0232:  DATA 78,7F
0234:  DATA 44,44
0236:  DATA 44,38
0238:  DATA 38,44
023A:  DATA 44,44
023C:  DATA 44,38
023E:  DATA 44,44
0240:  DATA 44,7F
0242:  DATA 38,54
0244:  DATA 54,54
0246:  DATA 18,04
0248:  DATA 04,7E
024A:  DATA 05,05
024C:  DATA 08,54
024E:  DATA 54,54
0250:  DATA 3C,7F
0252:  DATA 08,04
0254:  DATA 04,78
0256:  DATA 00,44
0258:  DATA 7D,40
025A:  DATA 00,20
025C:  DATA 40,44
025E:  DATA 3D,00
0260:  DATA 7F,10
0262:  DATA 28,44
0264:  DATA 00,00
0266:  DATA 41,7F
0268:  DATA 40,00
026A:  DATA 7C,04
026C:  DATA 78,04
026E:  DATA 78,7C
0270:  DATA 08,04
0272:  DATA 04,78
0274:  DATA 38,44
0276:  DATA 44,44
0278:  DATA 38,7C
027A:  DATA 14,14
027C:  DATA 14,08
027E:  DATA 08,14
0280:  DATA 14,14
0282:  DATA 7C,00
0284:  DATA 7C,08
0286:  DATA 04,04
0288:  DATA 48,54
028A:  DATA 54,54
028C:  DATA 20,04
028E:  DATA 04,3F
0290:  DATA 44,44
0292:  DATA 3C,40
0294:  DATA 40,20
0296:  DATA 7C,1C
0298:  DATA 20,40
029A:  DATA 20,1C
029C:  DATA 3C,40
029E:  DATA 30,40
02A0:  DATA 3C,44
02A2:  DATA 28,10
02A4:  DATA 28,44
02A6:  DATA 0C,50
02A8:  DATA 50,50
02AA:  DATA 3C,44
02AC:  DATA 64,54
02AE:  DATA 4C,44
02B0:  DATA 00,08
02B2:  DATA 36,41
02B4:  DATA 41,00
02B6:  DATA 00,7F
02B8:  DATA 00,00
02BA:  DATA 41,41
02BC:  DATA 36,08
02BE:  DATA 00,02
02C0:  DATA 01,02
02C2:  DATA 04,02
02C4:  CLRF   FF7
02C6:  ADDLW  D4
02C8:  MOVWF  FF6
02CA:  MOVLW  02
02CC:  ADDWFC FF7,F
02CE:  TBLRD*+
02D0:  MOVF   FF5,W
02D2:  RETURN 0
02D4:  DATA 30,31
02D6:  DATA 32,33
02D8:  DATA 34,35
02DA:  DATA 36,37
02DC:  DATA 38,39
02DE:  DATA 00,00
02E0:  DATA 2E,00
02E2:  DATA 2E,00
02E4:  DATA 2E,00
02E6:  DATA 4E,4F
02E8:  DATA 20,44
02EA:  DATA 48,54
02EC:  DATA 31,31
02EE:  DATA 00,00
02F0:  DATA 44,4F
02F2:  DATA 43,20
02F4:  DATA 53,41
02F6:  DATA 49,20
02F8:  DATA 44,55
02FA:  DATA 20,4C
02FC:  DATA 49,45
02FE:  DATA 55,20
0300:  DATA 44,48
0302:  DATA 54,31
0304:  DATA 31,00
0306:  DATA 4E,4F
0308:  DATA 20,44
030A:  DATA 53,31
030C:  DATA 38,42
030E:  DATA 32,30
0310:  DATA 00,00
0312:  DATA 20,20
0314:  DATA 00,00
0316:  DATA 20,20
0318:  DATA 00,00
031A:  DATA 4E,47
031C:  DATA 55,59
031E:  DATA 45,4E
0320:  DATA 20,44
0322:  DATA 55,43
0324:  DATA 20,4D
0326:  DATA 41,4E
0328:  DATA 48,00
032A:  DATA 31,39
032C:  DATA 31,35
032E:  DATA 31,32
0330:  DATA 35,33
0332:  DATA 00,00
*
0504:  MOVLB  4
0506:  MOVF   xE2,W
0508:  MULWF  xE4
050A:  MOVFF  FF3,01
050E:  MOVFF  FF4,00
0512:  MULWF  xE5
0514:  MOVF   FF3,W
0516:  ADDWF  00,F
0518:  MOVF   xE3,W
051A:  MULWF  xE4
051C:  MOVF   FF3,W
051E:  ADDWFC 00,W
0520:  MOVWF  02
0522:  MOVLB  0
0524:  RETURN 0
*
0A7E:  TBLRD*+
0A80:  MOVF   FF5,F
0A82:  BZ    0A9C
0A84:  MOVFF  FF6,4B7
0A88:  MOVFF  FF7,4B8
0A8C:  MOVFF  FF5,4BF
0A90:  RCALL  08A4
0A92:  MOVFF  4B7,FF6
0A96:  MOVFF  4B8,FF7
0A9A:  BRA    0A7E
0A9C:  RETURN 0
*
0ECE:  CLRF   00
0ED0:  CLRF   01
0ED2:  MOVLB  4
0ED4:  MOVF   xCB,W
0ED6:  BCF    FD8.0
0ED8:  BTFSC  xCC.0
0EDA:  ADDWF  00,F
0EDC:  RRCF   00,F
0EDE:  RRCF   01,F
0EE0:  BTFSC  xCC.1
0EE2:  ADDWF  00,F
0EE4:  RRCF   00,F
0EE6:  RRCF   01,F
0EE8:  BTFSC  xCC.2
0EEA:  ADDWF  00,F
0EEC:  RRCF   00,F
0EEE:  RRCF   01,F
0EF0:  BTFSC  xCC.3
0EF2:  ADDWF  00,F
0EF4:  RRCF   00,F
0EF6:  RRCF   01,F
0EF8:  BTFSC  xCC.4
0EFA:  ADDWF  00,F
0EFC:  RRCF   00,F
0EFE:  RRCF   01,F
0F00:  BTFSC  xCC.5
0F02:  ADDWF  00,F
0F04:  RRCF   00,F
0F06:  RRCF   01,F
0F08:  BTFSC  xCC.6
0F0A:  ADDWF  00,F
0F0C:  RRCF   00,F
0F0E:  RRCF   01,F
0F10:  BTFSC  xCC.7
0F12:  ADDWF  00,F
0F14:  RRCF   00,F
0F16:  RRCF   01,F
0F18:  MOVLB  0
0F1A:  RETURN 0
*
1304:  MOVLB  4
1306:  MOVF   xB6,W
1308:  XORWF  xB8,W
130A:  ANDLW  80
130C:  MOVWF  xBA
130E:  BTFSS  xB6.7
1310:  BRA    131C
1312:  COMF   xB5,F
1314:  COMF   xB6,F
1316:  INCF   xB5,F
1318:  BTFSC  FD8.2
131A:  INCF   xB6,F
131C:  BTFSS  xB8.7
131E:  BRA    132A
1320:  COMF   xB7,F
1322:  COMF   xB8,F
1324:  INCF   xB7,F
1326:  BTFSC  FD8.2
1328:  INCF   xB8,F
132A:  MOVF   xB5,W
132C:  MULWF  xB7
132E:  MOVFF  FF3,01
1332:  MOVFF  FF4,00
1336:  MULWF  xB8
1338:  MOVF   FF3,W
133A:  ADDWF  00,F
133C:  MOVF   xB6,W
133E:  MULWF  xB7
1340:  MOVF   FF3,W
1342:  ADDWFC 00,W
1344:  MOVWF  02
1346:  BTFSS  xBA.7
1348:  BRA    1354
134A:  COMF   01,F
134C:  COMF   02,F
134E:  INCF   01,F
1350:  BTFSC  FD8.2
1352:  INCF   02,F
1354:  MOVLB  0
1356:  RETURN 0
1358:  MOVLW  8E
135A:  MOVWF  00
135C:  MOVFF  4B6,01
1360:  MOVFF  4B5,02
1364:  CLRF   03
1366:  BTFSS  01.7
1368:  BRA    1374
136A:  COMF   01,F
136C:  COMF   02,F
136E:  INCF   02,F
1370:  BNZ   1374
1372:  INCF   01,F
1374:  MOVF   01,F
1376:  BNZ   138A
1378:  MOVFF  02,01
137C:  CLRF   02
137E:  MOVLW  08
1380:  SUBWF  00,F
1382:  MOVF   01,F
1384:  BNZ   138A
1386:  CLRF   00
1388:  BRA    13A6
138A:  BCF    FD8.0
138C:  BTFSC  01.7
138E:  BRA    1398
1390:  RLCF   02,F
1392:  RLCF   01,F
1394:  DECF   00,F
1396:  BRA    138A
1398:  MOVLB  4
139A:  BTFSS  xB6.7
139C:  BRA    13A2
139E:  MOVLB  0
13A0:  BRA    13A6
13A2:  BCF    01.7
13A4:  MOVLB  0
13A6:  RETURN 0
13A8:  MOVLB  4
13AA:  MOVF   xEF,W
13AC:  BTFSC  FD8.2
13AE:  BRA    1492
13B0:  MOVWF  00
13B2:  MOVF   xF3,W
13B4:  BTFSC  FD8.2
13B6:  BRA    1492
13B8:  ADDWF  00,F
13BA:  BNC   13C4
13BC:  MOVLW  81
13BE:  ADDWF  00,F
13C0:  BC    1492
13C2:  BRA    13CC
13C4:  MOVLW  7F
13C6:  SUBWF  00,F
13C8:  BNC   1492
13CA:  BZ    1492
13CC:  MOVFF  4F0,4F7
13D0:  MOVF   xF4,W
13D2:  XORWF  xF7,F
13D4:  BSF    xF0.7
13D6:  BSF    xF4.7
13D8:  MOVF   xF2,W
13DA:  MULWF  xF6
13DC:  MOVFF  FF4,4F9
13E0:  MOVF   xF1,W
13E2:  MULWF  xF5
13E4:  MOVFF  FF4,03
13E8:  MOVFF  FF3,4F8
13EC:  MULWF  xF6
13EE:  MOVF   FF3,W
13F0:  ADDWF  xF9,F
13F2:  MOVF   FF4,W
13F4:  ADDWFC xF8,F
13F6:  MOVLW  00
13F8:  ADDWFC 03,F
13FA:  MOVF   xF2,W
13FC:  MULWF  xF5
13FE:  MOVF   FF3,W
1400:  ADDWF  xF9,F
1402:  MOVF   FF4,W
1404:  ADDWFC xF8,F
1406:  MOVLW  00
1408:  CLRF   02
140A:  ADDWFC 03,F
140C:  ADDWFC 02,F
140E:  MOVF   xF0,W
1410:  MULWF  xF6
1412:  MOVF   FF3,W
1414:  ADDWF  xF8,F
1416:  MOVF   FF4,W
1418:  ADDWFC 03,F
141A:  MOVLW  00
141C:  ADDWFC 02,F
141E:  MOVF   xF0,W
1420:  MULWF  xF5
1422:  MOVF   FF3,W
1424:  ADDWF  03,F
1426:  MOVF   FF4,W
1428:  ADDWFC 02,F
142A:  MOVLW  00
142C:  CLRF   01
142E:  ADDWFC 01,F
1430:  MOVF   xF2,W
1432:  MULWF  xF4
1434:  MOVF   FF3,W
1436:  ADDWF  xF8,F
1438:  MOVF   FF4,W
143A:  ADDWFC 03,F
143C:  MOVLW  00
143E:  ADDWFC 02,F
1440:  ADDWFC 01,F
1442:  MOVF   xF1,W
1444:  MULWF  xF4
1446:  MOVF   FF3,W
1448:  ADDWF  03,F
144A:  MOVF   FF4,W
144C:  ADDWFC 02,F
144E:  MOVLW  00
1450:  ADDWFC 01,F
1452:  MOVF   xF0,W
1454:  MULWF  xF4
1456:  MOVF   FF3,W
1458:  ADDWF  02,F
145A:  MOVF   FF4,W
145C:  ADDWFC 01,F
145E:  INCF   00,F
1460:  BTFSC  01.7
1462:  BRA    146E
1464:  RLCF   xF8,F
1466:  RLCF   03,F
1468:  RLCF   02,F
146A:  RLCF   01,F
146C:  DECF   00,F
146E:  MOVLW  00
1470:  BTFSS  xF8.7
1472:  BRA    1488
1474:  INCF   03,F
1476:  ADDWFC 02,F
1478:  ADDWFC 01,F
147A:  MOVF   01,W
147C:  BNZ   1488
147E:  MOVF   02,W
1480:  BNZ   1488
1482:  MOVF   03,W
1484:  BNZ   1488
1486:  INCF   00,F
1488:  BTFSC  xF7.7
148A:  BSF    01.7
148C:  BTFSS  xF7.7
148E:  BCF    01.7
1490:  BRA    149A
1492:  CLRF   00
1494:  CLRF   01
1496:  CLRF   02
1498:  CLRF   03
149A:  MOVLB  0
149C:  RETURN 0
149E:  MOVLB  4
14A0:  MOVF   xBA,W
14A2:  BTFSC  FD8.2
14A4:  BRA    15F0
14A6:  MOVWF  xC6
14A8:  MOVF   xBE,W
14AA:  BTFSC  FD8.2
14AC:  BRA    15F0
14AE:  SUBWF  xC6,F
14B0:  BNC   14BC
14B2:  MOVLW  7F
14B4:  ADDWF  xC6,F
14B6:  BTFSC  FD8.0
14B8:  BRA    15F0
14BA:  BRA    14C8
14BC:  MOVLW  81
14BE:  SUBWF  xC6,F
14C0:  BTFSS  FD8.0
14C2:  BRA    15F0
14C4:  BTFSC  FD8.2
14C6:  BRA    15F0
14C8:  MOVFF  4C6,00
14CC:  CLRF   01
14CE:  CLRF   02
14D0:  CLRF   03
14D2:  CLRF   xC5
14D4:  MOVFF  4BB,4C4
14D8:  BSF    xC4.7
14DA:  MOVFF  4BC,4C3
14DE:  MOVFF  4BD,4C2
14E2:  MOVLW  19
14E4:  MOVWF  xC6
14E6:  MOVF   xC1,W
14E8:  SUBWF  xC2,F
14EA:  BC    1506
14EC:  MOVLW  01
14EE:  SUBWF  xC3,F
14F0:  BC    1506
14F2:  SUBWF  xC4,F
14F4:  BC    1506
14F6:  SUBWF  xC5,F
14F8:  BC    1506
14FA:  INCF   xC5,F
14FC:  INCF   xC4,F
14FE:  INCF   xC3,F
1500:  MOVF   xC1,W
1502:  ADDWF  xC2,F
1504:  BRA    1556
1506:  MOVF   xC0,W
1508:  SUBWF  xC3,F
150A:  BC    1530
150C:  MOVLW  01
150E:  SUBWF  xC4,F
1510:  BC    1530
1512:  SUBWF  xC5,F
1514:  BC    1530
1516:  INCF   xC5,F
1518:  INCF   xC4,F
151A:  MOVF   xC0,W
151C:  ADDWF  xC3,F
151E:  MOVF   xC1,W
1520:  ADDWF  xC2,F
1522:  BNC   1556
1524:  INCF   xC3,F
1526:  BNZ   1556
1528:  INCF   xC4,F
152A:  BNZ   1556
152C:  INCF   xC5,F
152E:  BRA    1556
1530:  MOVF   xBF,W
1532:  IORLW  80
1534:  SUBWF  xC4,F
1536:  BC    1554
1538:  MOVLW  01
153A:  SUBWF  xC5,F
153C:  BC    1554
153E:  INCF   xC5,F
1540:  MOVF   xBF,W
1542:  IORLW  80
1544:  ADDWF  xC4,F
1546:  MOVF   xC0,W
1548:  ADDWF  xC3,F
154A:  BNC   151E
154C:  INCF   xC4,F
154E:  BNZ   151E
1550:  INCF   xC5,F
1552:  BRA    151E
1554:  BSF    03.0
1556:  DECFSZ xC6,F
1558:  BRA    155C
155A:  BRA    1572
155C:  BCF    FD8.0
155E:  RLCF   xC2,F
1560:  RLCF   xC3,F
1562:  RLCF   xC4,F
1564:  RLCF   xC5,F
1566:  BCF    FD8.0
1568:  RLCF   03,F
156A:  RLCF   02,F
156C:  RLCF   01,F
156E:  RLCF   xC7,F
1570:  BRA    14E6
1572:  BTFSS  xC7.0
1574:  BRA    1582
1576:  BCF    FD8.0
1578:  RRCF   01,F
157A:  RRCF   02,F
157C:  RRCF   03,F
157E:  RRCF   xC7,F
1580:  BRA    1586
1582:  DECF   00,F
1584:  BZ    15F0
1586:  BTFSC  xC7.7
1588:  BRA    15C6
158A:  BCF    FD8.0
158C:  RLCF   xC2,F
158E:  RLCF   xC3,F
1590:  RLCF   xC4,F
1592:  RLCF   xC5,F
1594:  MOVF   xC1,W
1596:  SUBWF  xC2,F
1598:  BC    15A8
159A:  MOVLW  01
159C:  SUBWF  xC3,F
159E:  BC    15A8
15A0:  SUBWF  xC4,F
15A2:  BC    15A8
15A4:  SUBWF  xC5,F
15A6:  BNC   15DC
15A8:  MOVF   xC0,W
15AA:  SUBWF  xC3,F
15AC:  BC    15B8
15AE:  MOVLW  01
15B0:  SUBWF  xC4,F
15B2:  BC    15B8
15B4:  SUBWF  xC5,F
15B6:  BNC   15DC
15B8:  MOVF   xBF,W
15BA:  IORLW  80
15BC:  SUBWF  xC4,F
15BE:  BC    15C6
15C0:  MOVLW  01
15C2:  SUBWF  xC5,F
15C4:  BNC   15DC
15C6:  INCF   03,F
15C8:  BNZ   15DC
15CA:  INCF   02,F
15CC:  BNZ   15DC
15CE:  INCF   01,F
15D0:  BNZ   15DC
15D2:  INCF   00,F
15D4:  BZ    15F0
15D6:  RRCF   01,F
15D8:  RRCF   02,F
15DA:  RRCF   03,F
15DC:  MOVFF  4BB,4C6
15E0:  MOVF   xBF,W
15E2:  XORWF  xC6,F
15E4:  BTFSS  xC6.7
15E6:  BRA    15EC
15E8:  BSF    01.7
15EA:  BRA    15F8
15EC:  BCF    01.7
15EE:  BRA    15F8
15F0:  CLRF   00
15F2:  CLRF   01
15F4:  CLRF   02
15F6:  CLRF   03
15F8:  MOVLB  0
15FA:  RETURN 0
15FC:  MOVFF  4EC,4F3
1600:  MOVLB  4
1602:  MOVF   xF0,W
1604:  XORWF  xF3,F
1606:  BTFSS  xF3.7
1608:  BRA    1614
160A:  BCF    FD8.2
160C:  BCF    FD8.0
160E:  BTFSC  xEC.7
1610:  BSF    FD8.0
1612:  BRA    1672
1614:  MOVFF  4EC,4F3
1618:  MOVFF  4EF,4F4
161C:  MOVF   xEB,W
161E:  SUBWF  xF4,F
1620:  BZ    162E
1622:  BTFSS  xF3.7
1624:  BRA    1672
1626:  MOVF   FD8,W
1628:  XORLW  01
162A:  MOVWF  FD8
162C:  BRA    1672
162E:  MOVFF  4F0,4F4
1632:  MOVF   xEC,W
1634:  SUBWF  xF4,F
1636:  BZ    1644
1638:  BTFSS  xF3.7
163A:  BRA    1672
163C:  MOVF   FD8,W
163E:  XORLW  01
1640:  MOVWF  FD8
1642:  BRA    1672
1644:  MOVFF  4F1,4F4
1648:  MOVF   xED,W
164A:  SUBWF  xF4,F
164C:  BZ    165A
164E:  BTFSS  xF3.7
1650:  BRA    1672
1652:  MOVF   FD8,W
1654:  XORLW  01
1656:  MOVWF  FD8
1658:  BRA    1672
165A:  MOVFF  4F2,4F4
165E:  MOVF   xEE,W
1660:  SUBWF  xF4,F
1662:  BZ    1670
1664:  BTFSS  xF3.7
1666:  BRA    1672
1668:  MOVF   FD8,W
166A:  XORLW  01
166C:  MOVWF  FD8
166E:  BRA    1672
1670:  BCF    FD8.0
1672:  MOVLB  0
1674:  GOTO   19D6 (RETURN)
1678:  MOVLW  8E
167A:  MOVWF  00
167C:  MOVLB  4
167E:  MOVF   xEB,W
1680:  SUBWF  00,F
1682:  MOVFF  4EC,02
1686:  MOVFF  4ED,01
168A:  BSF    02.7
168C:  MOVF   00,F
168E:  BZ    16A2
1690:  BCF    FD8.0
1692:  MOVF   02,F
1694:  BNZ   169A
1696:  MOVF   01,F
1698:  BZ    16A2
169A:  RRCF   02,F
169C:  RRCF   01,F
169E:  DECFSZ 00,F
16A0:  BRA    1690
16A2:  BTFSS  xEC.7
16A4:  BRA    16B0
16A6:  COMF   01,F
16A8:  COMF   02,F
16AA:  INCF   01,F
16AC:  BTFSC  FD8.2
16AE:  INCF   02,F
16B0:  MOVLB  0
16B2:  RETURN 0
16B4:  MOVLW  8E
16B6:  MOVWF  00
16B8:  MOVFF  4F0,01
16BC:  MOVFF  4EF,02
16C0:  CLRF   03
16C2:  MOVF   01,F
16C4:  BNZ   16D8
16C6:  MOVFF  02,01
16CA:  CLRF   02
16CC:  MOVLW  08
16CE:  SUBWF  00,F
16D0:  MOVF   01,F
16D2:  BNZ   16D8
16D4:  CLRF   00
16D6:  BRA    16E8
16D8:  BCF    FD8.0
16DA:  BTFSC  01.7
16DC:  BRA    16E6
16DE:  RLCF   02,F
16E0:  RLCF   01,F
16E2:  DECF   00,F
16E4:  BRA    16D8
16E6:  BCF    01.7
16E8:  RETURN 0
16EA:  MOVLW  80
16EC:  BTFSS  FD8.1
16EE:  BRA    16F4
16F0:  MOVLB  4
16F2:  XORWF  xF4,F
16F4:  MOVLB  4
16F6:  CLRF   xF9
16F8:  CLRF   xFA
16FA:  MOVFF  4F0,4F8
16FE:  MOVF   xF4,W
1700:  XORWF  xF8,F
1702:  MOVF   xEF,W
1704:  BTFSC  FD8.2
1706:  BRA    18C6
1708:  MOVWF  xF7
170A:  MOVWF  00
170C:  MOVF   xF3,W
170E:  BTFSC  FD8.2
1710:  BRA    18D8
1712:  SUBWF  xF7,F
1714:  BTFSC  FD8.2
1716:  BRA    181E
1718:  BNC   1796
171A:  MOVFF  4F4,4FD
171E:  BSF    xFD.7
1720:  MOVFF  4F5,4FC
1724:  MOVFF  4F6,4FB
1728:  CLRF   xFA
172A:  BCF    FD8.0
172C:  RRCF   xFD,F
172E:  RRCF   xFC,F
1730:  RRCF   xFB,F
1732:  RRCF   xFA,F
1734:  DECFSZ xF7,F
1736:  BRA    1728
1738:  BTFSS  xF8.7
173A:  BRA    1742
173C:  BSF    xF9.0
173E:  BRA    1900
1740:  BCF    xF9.0
1742:  BCF    xF7.0
1744:  BSF    xF9.4
1746:  MOVLW  04
1748:  MOVWF  FEA
174A:  MOVLW  F2
174C:  MOVWF  FE9
174E:  BRA    1926
1750:  BCF    xF9.4
1752:  BTFSC  xF8.7
1754:  BRA    176A
1756:  BTFSS  xF7.0
1758:  BRA    1780
175A:  RRCF   xFD,F
175C:  RRCF   xFC,F
175E:  RRCF   xFB,F
1760:  RRCF   xFA,F
1762:  INCF   00,F
1764:  BTFSC  FD8.2
1766:  BRA    18F6
1768:  BRA    1780
176A:  BTFSC  xFD.7
176C:  BRA    1786
176E:  BCF    FD8.0
1770:  RLCF   xFA,F
1772:  RLCF   xFB,F
1774:  RLCF   xFC,F
1776:  RLCF   xFD,F
1778:  DECF   00,F
177A:  BTFSC  FD8.2
177C:  BRA    18F6
177E:  BRA    176A
1780:  BSF    xF9.6
1782:  BRA    185E
1784:  BCF    xF9.6
1786:  MOVFF  4F0,4F8
178A:  BTFSS  xF0.7
178C:  BRA    1792
178E:  BSF    xFD.7
1790:  BRA    18E8
1792:  BCF    xFD.7
1794:  BRA    18E8
1796:  MOVFF  4F3,4F7
179A:  MOVFF  4F3,00
179E:  MOVF   xEF,W
17A0:  SUBWF  xF7,F
17A2:  MOVFF  4F0,4FD
17A6:  BSF    xFD.7
17A8:  MOVFF  4F1,4FC
17AC:  MOVFF  4F2,4FB
17B0:  CLRF   xFA
17B2:  BCF    FD8.0
17B4:  RRCF   xFD,F
17B6:  RRCF   xFC,F
17B8:  RRCF   xFB,F
17BA:  RRCF   xFA,F
17BC:  DECFSZ xF7,F
17BE:  BRA    17B0
17C0:  BTFSS  xF8.7
17C2:  BRA    17CA
17C4:  BSF    xF9.1
17C6:  BRA    1900
17C8:  BCF    xF9.1
17CA:  BCF    xF7.0
17CC:  BSF    xF9.5
17CE:  MOVLW  04
17D0:  MOVWF  FEA
17D2:  MOVLW  F6
17D4:  MOVWF  FE9
17D6:  BRA    1926
17D8:  BCF    xF9.5
17DA:  BTFSC  xF8.7
17DC:  BRA    17F2
17DE:  BTFSS  xF7.0
17E0:  BRA    1808
17E2:  RRCF   xFD,F
17E4:  RRCF   xFC,F
17E6:  RRCF   xFB,F
17E8:  RRCF   xFA,F
17EA:  INCF   00,F
17EC:  BTFSC  FD8.2
17EE:  BRA    18F6
17F0:  BRA    1808
17F2:  BTFSC  xFD.7
17F4:  BRA    180E
17F6:  BCF    FD8.0
17F8:  RLCF   xFA,F
17FA:  RLCF   xFB,F
17FC:  RLCF   xFC,F
17FE:  RLCF   xFD,F
1800:  DECF   00,F
1802:  BTFSC  FD8.2
1804:  BRA    18F6
1806:  BRA    17F2
1808:  BSF    xF9.7
180A:  BRA    185E
180C:  BCF    xF9.7
180E:  MOVFF  4F4,4F8
1812:  BTFSS  xF4.7
1814:  BRA    181A
1816:  BSF    xFD.7
1818:  BRA    18E8
181A:  BCF    xFD.7
181C:  BRA    18E8
181E:  MOVFF  4F4,4FD
1822:  BSF    xFD.7
1824:  MOVFF  4F5,4FC
1828:  MOVFF  4F6,4FB
182C:  BTFSS  xF8.7
182E:  BRA    1838
1830:  BCF    xFD.7
1832:  BSF    xF9.2
1834:  BRA    1900
1836:  BCF    xF9.2
1838:  CLRF   xFA
183A:  BCF    xF7.0
183C:  MOVLW  04
183E:  MOVWF  FEA
1840:  MOVLW  F2
1842:  MOVWF  FE9
1844:  BRA    1926
1846:  BTFSC  xF8.7
1848:  BRA    1882
184A:  MOVFF  4F0,4F8
184E:  BTFSS  xF7.0
1850:  BRA    185E
1852:  RRCF   xFD,F
1854:  RRCF   xFC,F
1856:  RRCF   xFB,F
1858:  RRCF   xFA,F
185A:  INCF   00,F
185C:  BZ    18F6
185E:  BTFSS  xFA.7
1860:  BRA    1878
1862:  INCF   xFB,F
1864:  BNZ   1878
1866:  INCF   xFC,F
1868:  BNZ   1878
186A:  INCF   xFD,F
186C:  BNZ   1878
186E:  RRCF   xFD,F
1870:  RRCF   xFC,F
1872:  RRCF   xFB,F
1874:  INCF   00,F
1876:  BZ    18F6
1878:  BTFSC  xF9.6
187A:  BRA    1784
187C:  BTFSC  xF9.7
187E:  BRA    180C
1880:  BRA    18BA
1882:  MOVLW  80
1884:  XORWF  xFD,F
1886:  BTFSS  xFD.7
1888:  BRA    1892
188A:  BRA    1900
188C:  MOVFF  4F4,4F8
1890:  BRA    18A6
1892:  MOVFF  4F0,4F8
1896:  MOVF   xFD,F
1898:  BNZ   18A6
189A:  MOVF   xFC,F
189C:  BNZ   18A6
189E:  MOVF   xFB,F
18A0:  BNZ   18A6
18A2:  CLRF   00
18A4:  BRA    18E8
18A6:  BTFSC  xFD.7
18A8:  BRA    18BA
18AA:  BCF    FD8.0
18AC:  RLCF   xFA,F
18AE:  RLCF   xFB,F
18B0:  RLCF   xFC,F
18B2:  RLCF   xFD,F
18B4:  DECFSZ 00,F
18B6:  BRA    18A6
18B8:  BRA    18F6
18BA:  BTFSS  xF8.7
18BC:  BRA    18C2
18BE:  BSF    xFD.7
18C0:  BRA    18E8
18C2:  BCF    xFD.7
18C4:  BRA    18E8
18C6:  MOVFF  4F3,00
18CA:  MOVFF  4F4,4FD
18CE:  MOVFF  4F5,4FC
18D2:  MOVFF  4F6,4FB
18D6:  BRA    18E8
18D8:  MOVFF  4EF,00
18DC:  MOVFF  4F0,4FD
18E0:  MOVFF  4F1,4FC
18E4:  MOVFF  4F2,4FB
18E8:  MOVFF  4FD,01
18EC:  MOVFF  4FC,02
18F0:  MOVFF  4FB,03
18F4:  BRA    195E
18F6:  CLRF   00
18F8:  CLRF   01
18FA:  CLRF   02
18FC:  CLRF   03
18FE:  BRA    195E
1900:  CLRF   xFA
1902:  COMF   xFB,F
1904:  COMF   xFC,F
1906:  COMF   xFD,F
1908:  COMF   xFA,F
190A:  INCF   xFA,F
190C:  BNZ   1918
190E:  INCF   xFB,F
1910:  BNZ   1918
1912:  INCF   xFC,F
1914:  BNZ   1918
1916:  INCF   xFD,F
1918:  BTFSC  xF9.0
191A:  BRA    1740
191C:  BTFSC  xF9.1
191E:  BRA    17C8
1920:  BTFSC  xF9.2
1922:  BRA    1836
1924:  BRA    188C
1926:  MOVF   FEF,W
1928:  ADDWF  xFB,F
192A:  BNC   1936
192C:  INCF   xFC,F
192E:  BNZ   1936
1930:  INCF   xFD,F
1932:  BTFSC  FD8.2
1934:  BSF    xF7.0
1936:  MOVF   FED,F
1938:  MOVF   FEF,W
193A:  ADDWF  xFC,F
193C:  BNC   1944
193E:  INCF   xFD,F
1940:  BTFSC  FD8.2
1942:  BSF    xF7.0
1944:  MOVF   FED,F
1946:  MOVF   FEF,W
1948:  BTFSC  FEF.7
194A:  BRA    194E
194C:  XORLW  80
194E:  ADDWF  xFD,F
1950:  BTFSC  FD8.0
1952:  BSF    xF7.0
1954:  BTFSC  xF9.4
1956:  BRA    1750
1958:  BTFSC  xF9.5
195A:  BRA    17D8
195C:  BRA    1846
195E:  MOVLB  0
1960:  RETURN 0
*
2702:  CLRF   01
2704:  CLRF   02
2706:  CLRF   00
2708:  CLRF   03
270A:  MOVLB  4
270C:  MOVF   xBE,W
270E:  BNZ   2714
2710:  MOVF   xBD,W
2712:  BZ    2744
2714:  MOVLW  10
2716:  MOVWF  xBF
2718:  BCF    FD8.0
271A:  RLCF   xBB,F
271C:  RLCF   xBC,F
271E:  RLCF   00,F
2720:  RLCF   03,F
2722:  MOVF   xBE,W
2724:  SUBWF  03,W
2726:  BNZ   272C
2728:  MOVF   xBD,W
272A:  SUBWF  00,W
272C:  BNC   273C
272E:  MOVF   xBD,W
2730:  SUBWF  00,F
2732:  BTFSS  FD8.0
2734:  DECF   03,F
2736:  MOVF   xBE,W
2738:  SUBWF  03,F
273A:  BSF    FD8.0
273C:  RLCF   01,F
273E:  RLCF   02,F
2740:  DECFSZ xBF,F
2742:  BRA    2718
2744:  MOVLB  0
2746:  RETURN 0
*
28A4:  MOVLB  4
28A6:  MOVF   xB8,W
28A8:  CLRF   01
28AA:  SUBWF  xB7,W
28AC:  BC    28B4
28AE:  MOVFF  4B7,00
28B2:  BRA    28CC
28B4:  CLRF   00
28B6:  MOVLW  08
28B8:  MOVWF  xB9
28BA:  RLCF   xB7,F
28BC:  RLCF   00,F
28BE:  MOVF   xB8,W
28C0:  SUBWF  00,W
28C2:  BTFSC  FD8.0
28C4:  MOVWF  00
28C6:  RLCF   01,F
28C8:  DECFSZ xB9,F
28CA:  BRA    28BA
28CC:  MOVLB  0
28CE:  GOTO   28F8 (RETURN)
....................  
.................... #list 
....................  
.................... #device  adc=10 
.................... #fuses   nowdt,put,hs,noprotect,nolvp,cpudiv1,NOUSBDIV,     
.................... #use     delay(clock=20000000)                                                       
*
0484:  MOVLW  04
0486:  MOVWF  FEA
0488:  MOVLW  C3
048A:  MOVWF  FE9
048C:  MOVF   FEF,W
048E:  BZ    04AA
0490:  MOVLW  06
0492:  MOVWF  01
0494:  CLRF   00
0496:  DECFSZ 00,F
0498:  BRA    0496
049A:  DECFSZ 01,F
049C:  BRA    0494
049E:  MOVLW  7B
04A0:  MOVWF  00
04A2:  DECFSZ 00,F
04A4:  BRA    04A2
04A6:  DECFSZ FEF,F
04A8:  BRA    0490
04AA:  RETURN 0
*
08EC:  MOVLW  03
08EE:  MOVLB  4
08F0:  SUBWF  xB5,F
08F2:  BNC   0908
08F4:  MOVLW  04
08F6:  MOVWF  FEA
08F8:  MOVLW  B5
08FA:  MOVWF  FE9
08FC:  MOVF   FEF,W
08FE:  BZ    0908
0900:  BRA    0904
0902:  BRA    0904
0904:  DECFSZ FEF,F
0906:  BRA    0902
0908:  MOVLB  0
090A:  RETURN 0
.................... #use     i2c(master,slow,sda=pin_b0,scl=pin_b1)       
*
05A0:  MOVLW  08
05A2:  MOVWF  01
05A4:  MOVLW  05
05A6:  MOVWF  00
05A8:  DECFSZ 00,F
05AA:  BRA    05A8
05AC:  BCF    F8A.1
05AE:  BCF    F93.1
05B0:  MOVLW  06
05B2:  MOVWF  00
05B4:  DECFSZ 00,F
05B6:  BRA    05B4
05B8:  MOVLB  4
05BA:  RLCF   xB1,F
05BC:  BCF    F8A.0
05BE:  BTFSC  FD8.0
05C0:  BSF    F93.0
05C2:  BTFSS  FD8.0
05C4:  BCF    F93.0
05C6:  BSF    F93.1
05C8:  BTFSS  F81.1
05CA:  BRA    05C8
05CC:  DECFSZ 01,F
05CE:  BRA    05D2
05D0:  BRA    05D6
05D2:  MOVLB  0
05D4:  BRA    05A4
05D6:  MOVLW  05
05D8:  MOVWF  00
05DA:  DECFSZ 00,F
05DC:  BRA    05DA
05DE:  BCF    F8A.1
05E0:  BCF    F93.1
05E2:  NOP   
05E4:  BSF    F93.0
05E6:  MOVLW  06
05E8:  MOVWF  00
05EA:  DECFSZ 00,F
05EC:  BRA    05EA
05EE:  MOVLW  06
05F0:  MOVWF  00
05F2:  DECFSZ 00,F
05F4:  BRA    05F2
05F6:  BSF    F93.1
05F8:  BTFSS  F81.1
05FA:  BRA    05F8
05FC:  CLRF   01
05FE:  MOVLW  06
0600:  MOVWF  00
0602:  DECFSZ 00,F
0604:  BRA    0602
0606:  BTFSC  F81.0
0608:  BSF    01.0
060A:  BCF    F8A.1
060C:  BCF    F93.1
060E:  BCF    F8A.0
0610:  BCF    F93.0
0612:  MOVLB  0
0614:  RETURN 0
0616:  MOVLW  08
0618:  MOVLB  4
061A:  MOVWF  xB3
061C:  MOVFF  00,4B4
0620:  BSF    F93.0
0622:  MOVLW  06
0624:  MOVWF  00
0626:  DECFSZ 00,F
0628:  BRA    0626
062A:  BSF    F93.1
062C:  BTFSS  F81.1
062E:  BRA    062C
0630:  BTFSC  F81.0
0632:  BSF    FD8.0
0634:  BTFSS  F81.0
0636:  BCF    FD8.0
0638:  RLCF   01,F
063A:  MOVLW  05
063C:  MOVWF  00
063E:  DECFSZ 00,F
0640:  BRA    063E
0642:  BCF    F93.1
0644:  BCF    F8A.1
0646:  DECFSZ xB3,F
0648:  BRA    0620
064A:  BSF    F93.0
064C:  MOVLW  06
064E:  MOVWF  00
0650:  DECFSZ 00,F
0652:  BRA    0650
0654:  BCF    F8A.0
0656:  MOVF   xB4,W
0658:  BTFSS  FD8.2
065A:  BCF    F93.0
065C:  NOP   
065E:  BSF    F93.1
0660:  BTFSS  F81.1
0662:  BRA    0660
0664:  MOVLW  05
0666:  MOVWF  00
0668:  DECFSZ 00,F
066A:  BRA    0668
066C:  BCF    F8A.1
066E:  BCF    F93.1
0670:  MOVLW  06
0672:  MOVWF  00
0674:  DECFSZ 00,F
0676:  BRA    0674
0678:  BCF    F8A.0
067A:  BCF    F93.0
067C:  MOVLB  0
067E:  RETURN 0
.................... #use     rs232(baud=9600, xmit=pin_c6,rcv=pin_c7)     
.................... //xxxxxxxxxxxxxxxxxxxxxxxxxxxxxxxxxxxxxxxxxxxxxxxxxxxxxxxx    
.................... //dinh nghia lai ten cac kieu du lieu cho gon 
.................... //xxxxxxxxxxxxxxxxxxxxxxxxxxxxxxxxxxxxxxxxxxxxxxxxxxxxxxxx 
.................... #define usi8  unsigned int8      
.................... #define usi16 unsigned int16                           
.................... #define usi32 unsigned int32                                                                     
.................... #define si8   signed   int8                                 
.................... #define si16  signed   int16  
.................... #define si32  signed   int32 
.................... //xxxxxxxxxxxxxxxxxxxxxxxxxxxxxxxxxxxxxxxxxxxxxxxxxxxxxxxx 
.................... //dinh nghia 1 so tu thuong dung 
.................... //xxxxxxxxxxxxxxxxxxxxxxxxxxxxxxxxxxxxxxxxxxxxxxxxxxxxxxxx 
.................... #define co_reset true 
.................... #define no_reset false  
....................  
.................... #define tt_on    1           
.................... #define tt_off   0                     
.................... #define enable   1                         
.................... #define disable  0 
.................... #define sang     1           
.................... #define tat      0   
.................... #define tat_l7d  0xff      
.................... #define cx_vn    true     //co xoa so 0 vo nghia         
.................... #define kx_vn    false    //khong xoa so 0 vo nghia           
.................... #define co_fill  true 
.................... #define no_fill  false  
.................... #define c_reset  1           
.................... #define k_reset  0                                          
.................... //xxxxxxxxxxxxxxxxxxxxxxxxxxxxxxxxxxxxxxxxxxxxxxxxxxxxxxxx 
.................... //dinh nghia ten cho 4 nut nhan  
.................... //xxxxxxxxxxxxxxxxxxxxxxxxxxxxxxxxxxxxxxxxxxxxxxxxxxxxxxxx 
.................... #ifndef bt0 
.................... #define bt0    pin_b5 
.................... #endif  
....................  
.................... #ifndef bt1     
.................... #define bt1    pin_b4 
.................... #endif  
....................                    
.................... #ifndef bt2     
.................... #define bt2    pin_b3 
.................... #endif  
....................  
.................... #ifndef bt3 
.................... #define bt3    pin_b2 
.................... #endif  
....................  
.................... #define on     bt0    //dk led don, motor  
.................... #define off    bt1 
.................... #define inv    bt2 
....................                                 
.................... #define up     bt0    //dk led don 
.................... #define mod    bt1 
.................... #define dw     bt2 
.................... #define clr    bt3 
....................  
.................... #define stop   bt1 
....................  
.................... #define on1    bt0      
.................... #define off1   bt1 
.................... #define on2    bt2        
.................... #define off2   bt3              
.................... //xxxxxxxxxxxxxxxxxxxxxxxxxxxxxxxxxxxxxxxxxxxxxxxxxxxxxxxx   
.................... //dinh nghia port giao tiep cam bien sieu am hcsr-04  
.................... //xxxxxxxxxxxxxxxxxxxxxxxxxxxxxxxxxxxxxxxxxxxxxxxxxxxxxxxx   
.................... #define trig   pin_e1            
.................... #define echo   pin_a3                  
.................... //xxxxxxxxxxxxxxxxxxxxxxxxxxxxxxxxxxxxxxxxxxxxxxxxxxxxxxxx   
.................... //dinh nghia port giao tiep CB nhiet va do am 1 day DHT11    
.................... //xxxxxxxxxxxxxxxxxxxxxxxxxxxxxxxxxxxxxxxxxxxxxxxxxxxxxxxx   
.................... #define dht11 pin_d1 
.................... //xxxxxxxxxxxxxxxxxxxxxxxxxxxxxxxxxxxxxxxxxxxxxxxxxxxxxxxx   
.................... //dinh nghia port giao tiep noi tiep 6 module 
.................... //xxxxxxxxxxxxxxxxxxxxxxxxxxxxxxxxxxxxxxxxxxxxxxxxxxxxxxxx                                        
.................... #define ssdo      pin_e2          
.................... #define ssck      pin_e0          
....................  
.................... #define rck_mtl   pin_d7 
.................... #define rck_4l7d  pin_d6           
.................... #define rck_8l7dq pin_d5         
.................... #define rck_32led pin_d4 
.................... #define rck_rlb   pin_d3              
.................... #define rck_lcd   pin_d2          
....................  
.................... #define g_all     pin_d0           
....................   
.................... //xxxxxxxxxxxxxxxxxxxxxxxxxxxxxxxxxxxxxxxxxxxxxxxxxxxxxxxx  
.................... //khai bao  module relay, triac, buzzer, dong co 
.................... //xxxxxxxxxxxxxxxxxxxxxxxxxxxxxxxxxxxxxxxxxxxxxxxxxxxxxxxx  
.................... unsigned int16 rbdc;                           
.................... #bit step_motor_enable = rbdc.0     
.................... #bit step_motor_in1    = rbdc.1     
.................... #bit step_motor_in2    = rbdc.2 
.................... #bit step_motor_in3    = rbdc.3 
.................... #bit step_motor_in4    = rbdc.4 
.................... #bit dc_enable         = rbdc.5     
.................... #bit pwrkey            = rbdc.6     
....................  
.................... #bit buzzer            = rbdc.8    //1=on,0=off 
.................... #bit triac_1           = rbdc.9    //1=on,0=off 
.................... #bit triac_2           = rbdc.10   //1=on,0=off 
.................... #bit relay_1           = rbdc.11   //0=on,1=off 
.................... #bit relay_2           = rbdc.12   //0=on,1=off       
....................  
.................... //xxxxxxxxxxxxxxxxxxxxxxxxxxxxxxxxxxxxxxxxxxxxxxxxxxxxxxxx  
.................... //Khai bao mang chua 16 ma 7 doan tu 0 den F 
.................... //xxxxxxxxxxxxxxxxxxxxxxxxxxxxxxxxxxxxxxxxxxxxxxxxxxxxxxxx   
.................... const unsigned char ma7doan[16]= { 
....................    0xc0,0xf9,0xa4,0xb0,0x99,0x92,0x82,0xf8,         
....................    0x80,0x90,0x88,0x83,0xc6,0xa1,0x86,0x8e}; 
.................... #define     maso0    0xc0 
....................  
.................... //xxxxxxxxxxxxxxxxxxxxxxxxxxxxxxxxxxxxxxxxxxxxxxxxxxxxxxxx  
.................... //ham 102: xuat 1 byte ra thanh ghi dich 
.................... //xxxxxxxxxxxxxxxxxxxxxxxxxxxxxxxxxxxxxxxxxxxxxxxxxxxxxxxx     
.................... void xuat_1byte(unsigned int8 x) 
.................... { 
....................    unsigned int8   sb;    
....................    #bit msb  = x.7;   
....................    for (sb=0;sb<8;sb++) 
*
0334:  MOVLB  4
0336:  CLRF   xC8
0338:  MOVF   xC8,W
033A:  SUBLW  07
033C:  BNC   035A
....................    {                                                  
....................       output_bit(ssdo,msb);     
033E:  BTFSC  xC7.7
0340:  BRA    0346
0342:  BCF    F8D.2
0344:  BRA    0348
0346:  BSF    F8D.2
0348:  BCF    F96.2
....................       output_low(ssck); output_high(ssck); 
034A:  BCF    F96.0
034C:  BCF    F8D.0
034E:  BCF    F96.0
0350:  BSF    F8D.0
....................       x= x<<1;          
0352:  BCF    FD8.0
0354:  RLCF   xC7,F
0356:  INCF   xC8,F
0358:  BRA    0338
....................    } 
035A:  MOVLB  0
035C:  RETURN 0
.................... }  
.................... //xxxxxxxxxxxxxxxxxxxxxxxxxxxxxxxxxxxxxxxxxxxxxxxxxxxxxxxx     
.................... //ham 103: xuat 1 word ra thanh ghi dich 
.................... //xxxxxxxxxxxxxxxxxxxxxxxxxxxxxxxxxxxxxxxxxxxxxxxxxxxxxxxx     
.................... void xuat_1word(unsigned int16 w) 
.................... {   
....................    unsigned int8 b1,b0; 
....................    b1 = w>>8; b0 = w; 
035E:  MOVFF  4AF,4B0
0362:  MOVFF  4AE,4B1
....................    xuat_1byte(b1);     
0366:  MOVFF  4B0,4C7
036A:  RCALL  0334
....................    xuat_1byte(b0); 
036C:  MOVFF  4B1,4C7
0370:  RCALL  0334
0372:  RETURN 0
.................... }    
....................                                 
.................... //xxxxxxxxxxxxxxxxxxxxxxxxxxxxxxxxxxxxxxxxxxxxxxxxxxxxxxxx      
.................... //ham 104: xoa cac module  
.................... //xxxxxxxxxxxxxxxxxxxxxxxxxxxxxxxxxxxxxxxxxxxxxxxxxxxxxxxx   
.................... void xoa_tat_6module()                           
.................... {                                                                                               
....................    xuat_1word(0);                              
0374:  MOVLB  4
0376:  CLRF   xAF
0378:  CLRF   xAE
037A:  MOVLB  0
037C:  RCALL  035E
....................    xuat_1word(0);  
037E:  MOVLB  4
0380:  CLRF   xAF
0382:  CLRF   xAE
0384:  MOVLB  0
0386:  RCALL  035E
....................    xuat_1word(0);                              
0388:  MOVLB  4
038A:  CLRF   xAF
038C:  CLRF   xAE
038E:  MOVLB  0
0390:  RCALL  035E
....................    xuat_1word(0);                                     
0392:  MOVLB  4
0394:  CLRF   xAF
0396:  CLRF   xAE
0398:  MOVLB  0
039A:  RCALL  035E
....................     
....................    output_high(rck_rlb);    
039C:  BCF    F95.3
039E:  BSF    F8C.3
....................    output_low(rck_rlb); 
03A0:  BCF    F95.3
03A2:  BCF    F8C.3
....................     
....................    output_high(rck_32led); 
03A4:  BCF    F95.4
03A6:  BSF    F8C.4
....................    output_low(rck_32led);  
03A8:  BCF    F95.4
03AA:  BCF    F8C.4
....................     
....................    output_high(rck_8l7dq);    
03AC:  BCF    F95.5
03AE:  BSF    F8C.5
....................    output_low(rck_8l7dq);    
03B0:  BCF    F95.5
03B2:  BCF    F8C.5
....................                                   
....................    output_high(rck_mtl);           
03B4:  BCF    F95.7
03B6:  BSF    F8C.7
....................    output_low(rck_mtl);    
03B8:  BCF    F95.7
03BA:  BCF    F8C.7
....................                             
....................    output_high(rck_lcd);    
03BC:  BCF    F95.2
03BE:  BSF    F8C.2
....................    output_low(rck_lcd);       
03C0:  BCF    F95.2
03C2:  BCF    F8C.2
....................                                                                            
....................    xuat_1word(0xffff);  
03C4:  MOVLB  4
03C6:  SETF   xAF
03C8:  SETF   xAE
03CA:  MOVLB  0
03CC:  RCALL  035E
....................    xuat_1word(0xffff);  
03CE:  MOVLB  4
03D0:  SETF   xAF
03D2:  SETF   xAE
03D4:  MOVLB  0
03D6:  RCALL  035E
....................    output_high(rck_4l7d);        
03D8:  BCF    F95.6
03DA:  BSF    F8C.6
....................    output_low(rck_4l7d);                                                                       
03DC:  BCF    F95.6
03DE:  BCF    F8C.6
03E0:  GOTO   03FC (RETURN)
.................... }              
....................  
.................... //xxxxxxxxxxxxxxxxxxxxxxxxxxxxxxxxxxxxxxxxxxxx     
.................... //ham 101: ham khoi tao cac port va ic chot 
.................... //xxxxxxxxxxxxxxxxxxxxxxxxxxxxxxxxxxxxxxxxxxxx     
.................... void set_up_port()                                   
.................... {                             
....................    set_tris_a(0xff);    set_tris_b(0x3c);                                                    
03E4:  MOVLW  FF
03E6:  MOVWF  F92
03E8:  MOVLW  3C
03EA:  MOVWF  F93
....................    set_tris_c(0xf1);    set_tris_e(0x00);                                                
03EC:  MOVLW  F1
03EE:  MOVWF  F94
03F0:  MOVLW  00
03F2:  MOVWF  F96
....................    set_tris_d(0x00);     
03F4:  MOVWF  F95
....................    output_d(0x00);  
03F6:  CLRF   F95
03F8:  CLRF   F8C
....................    xoa_tat_6module(); 
03FA:  BRA    0374
....................    port_b_pullups(0xff);           
03FC:  BCF    FF1.7
....................    rbdc=0;                
03FE:  CLRF   05
0400:  CLRF   04
....................              
....................    setup_adc(adc_clock_div_32);         
0402:  MOVF   FC0,W
0404:  ANDLW  C0
0406:  IORLW  02
0408:  MOVWF  FC0
040A:  BSF    FC0.7
040C:  BSF    FC2.0
....................    setup_adc_ports(an0_to_an2|vss_vdd);  
040E:  MOVF   FC1,W
0410:  ANDLW  C0
0412:  IORLW  0C
0414:  MOVWF  FC1
....................    output_low(g_all);         
0416:  BCF    F95.0
0418:  BCF    F8C.0
041A:  GOTO   3462 (RETURN)
.................... } 
....................  //xxxxxxxxxxxxxxxxxxxxxxxxxxxxxxxxxxxxxxxxxxxxxxxxxxxxxxxx      
.................... //xuat 1 bit roi tra lai ket qua sau khi dich di 1 bit 
.................... //xxxxxxxxxxxxxxxxxxxxxxxxxxxxxxxxxxxxxxxxxxxxxxxxxxxxxxxx     
.................... unsigned  int8 xuat_1bit(usi8 bx) 
.................... {   
....................    #bit lsb = bx.0                                            
....................    output_bit(ssdo,lsb);     
....................    output_low(ssck); output_high(ssck); 
....................    bx = bx>>1;    
....................    return(bx);   
.................... }    
....................  
....................                                  
....................  
.................... #include <tv_01_4_nutnhan.c>            
.................... //xxxxxxxxxxxxxxxxxxxxxxxxxxxxxxxxxxxxxxxxxxxxxxxxxxxxxxxx 
.................... //NGUYEN DINH PHU SU PHAM KY THUAT TP HCM 
.................... //xxxxxxxxxxxxxxxxxxxxxxxxxxxxxxxxxxxxxxxxxxxxxxxxxxxxxxxx 
....................  
.................... //xxxxxxxxxxxxxxxxxxxxxxxxxxxxxxxxxxxxxxxxxxxxxxxxxxxxxxxx 
.................... //dinh nghia cac trang thai co nhan va khong nhan phim 
.................... //xxxxxxxxxxxxxxxxxxxxxxxxxxxxxxxxxxxxxxxxxxxxxxxxxxxxxxxx  
.................... #define co_nhan      1             
.................... #define khong_nhan   0            
.................... #define c_ktnp       1  //co kiem tra nha phim           
.................... #define k_ktnp       0  //khong kiem tra nha phim  
.................... // #define sole_1       false             
.................... // #define sole_2       true    
....................                                
.................... //xxxxxxxxxxxxxxxxxxxxxxxxxxxxxxxxxxxxxxxxxxxxxxxxxxxxxxxx  
.................... //chuong trinh kiem tra phim bt1 
.................... //xxxxxxxxxxxxxxxxxxxxxxxxxxxxxxxxxxxxxxxxxxxxxxxxxxxxxxxx  
.................... unsigned int16 dl_btn=0;  
.................... //xxxxxxxxxxxxxxxxxxxxxxxxxxxxxxxxxxxxxxxxxxxxxxxxxxxxxxxx 
.................... //phim bt0-cach 1: co chong doi, delay 20ms, cho nha phim 
.................... //dinh nghia them 1 so ten khac      
.................... //xxxxxxxxxxxxxxxxxxxxxxxxxxxxxxxxxxxxxxxxxxxxxxxxxxxxxxxx                        
.................... #define phim_on_c1  phim_bt0_c1     
.................... #define phim_run_c1 phim_bt0_c1  
.................... #define phim_up_c1  phim_bt0_c1        
....................  
.................... int1 phim_bt0_c1(int1 ktnp,usi16 dl)    
.................... {                     
....................    if (!input(bt0))    
....................    {         
....................       delay_ms(20);                                      
....................       if (!input(bt0)) 
....................       { 
....................          if(ktnp) while(!input(bt0)); 
....................          delay_ms(dl); 
....................          return co_nhan;       
....................       }                       
....................       return khong_nhan;    
....................    }          
....................   return khong_nhan;   
.................... }      
.................... //xxxxxxxxxxxxxxxxxxxxxxxxxxxxxxxxxxxxxxxxxxxxxxxxxxxxxxxx 
.................... //phim bt1-cach 1: co chong doi, delay 20ms, cho nha phim 
.................... //dinh nghia them 1 so ten khac       
.................... //xxxxxxxxxxxxxxxxxxxxxxxxxxxxxxxxxxxxxxxxxxxxxxxxxxxxxxxx   
.................... #define phim_off_c1   phim_bt1_c1    
.................... #define phim_mode_c1  phim_bt1_c1  
.................... #define phim_stop_c1  phim_bt1_c1  
.................... #define phim_clr_c1   phim_bt1_c1 
.................... int1 phim_bt1_c1(int1 ktnp,usi16 dl)                                                
.................... { 
....................    if(!input(bt1))    
....................    {                        
....................       delay_ms(20); 
....................       if(!input(bt1)) 
....................       { 
....................          if(ktnp) while(!input(bt1));     
....................          delay_ms(dl); 
....................          return co_nhan; 
....................       }  
....................       return khong_nhan; 
....................    } 
....................    return khong_nhan;   
.................... }        
....................       
.................... //xxxxxxxxxxxxxxxxxxxxxxxxxxxxxxxxxxxxxxxxxxxxxxxxxxxxxxxx 
.................... //phim bt2-cach 1: co chong doi, delay 20ms, cho nha phim 
.................... //dinh nghia them 1 so ten khac       
.................... //xxxxxxxxxxxxxxxxxxxxxxxxxxxxxxxxxxxxxxxxxxxxxxxxxxxxxxxx   
.................... #define phim_inv_c1 phim_bt2_c1    
.................... #define phim_dw_c1  phim_bt2_c1                   
....................  
.................... int1 phim_bt2_c1(int1 ktnp,usi16 dl)       
.................... { 
....................    if(!input(bt2))    
....................    {         
....................       delay_ms(20);                 
....................       if(!input(bt2)) 
....................       { 
....................          if(ktnp) while(!input(bt2));     
....................          delay_ms(dl); 
....................          return co_nhan; 
....................       }                                      
....................       return khong_nhan;  
....................    } 
....................    return khong_nhan;   
.................... }       
.................... //xxxxxxxxxxxxxxxxxxxxxxxxxxxxxxxxxxxxxxxxxxxxxxxxxxxxxxxx 
.................... //phim bt3-cach 1: co chong doi, delay 20ms, cho nha phim 
.................... //dinh nghia them 1 so ten khac       
.................... //xxxxxxxxxxxxxxxxxxxxxxxxxxxxxxxxxxxxxxxxxxxxxxxxxxxxxxxx      
....................  
.................... #define phim_ud_c1    phim_bt3_c1 
....................  
....................  
.................... int1 phim_bt3_c1(int1 ktnp,usi16 dl)       
.................... {                        
....................    if(!input(bt3))    
....................    {                                         
....................       delay_ms(20);                        
....................       if(!input(bt3)) 
....................       {                       
....................          if(ktnp) while(!input(bt3));     
....................          delay_ms(dl); 
....................          return co_nhan; 
....................       }  
....................       return khong_nhan;    
....................       }                        
....................    return khong_nhan;   
.................... }   
....................        
.................... //xxxxxxxxxxxxxxxxxxxxxxxxxxxxxxxxxxxxxxxxxxxxxxxxxxxxxxxx  
.................... //xxxxxxxxxxxxxxxxxxxxxxxxxxxxxxxxxxxxxxxxxxxxxxxxxxxxxxxx  
.................... //cac ham con cua cac phim nhan don theo cach 2 
.................... //xxxxxxxxxxxxxxxxxxxxxxxxxxxxxxxxxxxxxxxxxxxxxxxxxxxxxxxx  
.................... //xxxxxxxxxxxxxxxxxxxxxxxxxxxxxxxxxxxxxxxxxxxxxxxxxxxxxxxx     
....................  
.................... //xxxxxxxxxxxxxxxxxxxxxxxxxxxxxxxxxxxxxxxxxxxxxxxxxxxxxxxx   
.................... //phim bt0-cach 2: nhan so lan thuc hien la bien dl 
.................... //kiem tra neu co nhan thi tang bien dem dl_btn,delay 1ms.    
.................... //Neu bien dl_btn = dl thi reset dl_btn = 0, 
.................... //xem nhu co nhan va ket thuc.  
.................... //con lai thi xem nhu chua nhan hoac chua du thoi gian nhan 
.................... //moi chu ky thuc hien lon nhat la 1ms - khong cho nha phim  
.................... //dinh nghia them 1 so ten khac   
.................... //xxxxxxxxxxxxxxxxxxxxxxxxxxxxxxxxxxxxxxxxxxxxxxxxxxxxxxxx     
.................... #define phim_on_c2  phim_bt0_c2                     
.................... #define phim_run_c2 phim_bt0_c2       
.................... #define phim_up_c2  phim_bt0_c2   
....................  
.................... int1 phim_bt0_c2(usi16 dl)   
.................... {                       
....................    if(!input(bt0))                        
....................    {    
....................       dl_btn++;   delay_us(500);                
....................       if(dl_btn>=dl)  
....................       {   
....................          dl_btn=0; 
....................          return co_nhan; 
....................       }      
....................       else  return khong_nhan;  
....................    } 
....................    else  return khong_nhan;     
.................... }  
....................      
.................... //xxxxxxxxxxxxxxxxxxxxxxxxxxxxxxxxxxxxxxxxxxxxxxxxxxxxxxxx 
.................... //ham chong doi cach 2 cho phim bt1 
.................... //xxxxxxxxxxxxxxxxxxxxxxxxxxxxxxxxxxxxxxxxxxxxxxxxxxxxxxxx       
.................... #define phim_off_c2   phim_bt1_c2    
.................... #define phim_stop_c2  phim_bt1_c2   
.................... #define phim_mode_c2  phim_bt1_c2 
.................... #define phim_clr_c2   phim_bt3_c2 
....................  
.................... int1 phim_bt1_c2(usi16 dl) 
.................... {                       
....................    if(!input(bt1))    
....................    {            
....................       dl_btn++;  delay_us(500);   
....................       if(dl_btn >= dl)     
....................       {   
....................          dl_btn =0; 
....................          return co_nhan; 
....................       }      
....................       else return khong_nhan;  
....................    } 
....................    else return khong_nhan;     
.................... }      
....................  
.................... //xxxxxxxxxxxxxxxxxxxxxxxxxxxxxxxxxxxxxxxxxxxxxxxxxxxxxxxx 
.................... //ham chong doi cach 2 cho phim bt2 
.................... //xxxxxxxxxxxxxxxxxxxxxxxxxxxxxxxxxxxxxxxxxxxxxxxxxxxxxxxx 
.................... #define phim_inv_c2   phim_bt2_c2   
.................... #define phim_dw_c2    phim_bt2_c2   
....................  
.................... int1 phim_bt2_c2(usi16 dl) 
.................... {                       
....................    if(!input(bt2))    
....................    {                                   
....................       dl_btn++;  delay_us(500);   
....................       if(dl_btn >= dl)  
....................       {   
....................          dl_btn =0; 
....................          return co_nhan;    
....................       }      
....................       else return khong_nhan;  
....................    } 
....................    else return khong_nhan;     
.................... }                                        
.................... //xxxxxxxxxxxxxxxxxxxxxxxxxxxxxxxxxxxxxxxxxxxxxxxxxxxxxxxx 
.................... //ham chong doi cach 1 cho phim bt3 
.................... //xxxxxxxxxxxxxxxxxxxxxxxxxxxxxxxxxxxxxxxxxxxxxxxxxxxxxxxx         
.................... //#define phim_mode_c2  phim_bt3_c2   
.................... #define phim_ud_c2    phim_bt3_c2   
....................                           
.................... int1 phim_bt3_c2(usi16 dl)  
.................... {                       
....................    if(!input(bt3))     
....................    {                          
....................       dl_btn++;    delay_us(500);                                                 
....................       if(dl_btn >= dl)  
....................       {   
....................          dl_btn =0;                                  
....................          return co_nhan;  
....................       }      
....................       else return khong_nhan;  
....................    } 
....................    else return khong_nhan;     
.................... }            
....................  
.................... #include <tv_02_matran_phim4x4_138.c>     
.................... //xxxxxxxxxxxxxxxxxxxxxxxxxxxxxxxxxxxxxxxxxxxxxxxxxxxxxxxx 
.................... //NGUYEN DINH PHU SU PHAM KY THUAT TP HCM 
.................... //xxxxxxxxxxxxxxxxxxxxxxxxxxxxxxxxxxxxxxxxxxxxxxxxxxxxxxxx 
....................  
.................... const unsigned char maquet[4]= {0x3f,0x7f,0xbf,0xff}; 
.................... //xxxxxxxxxxxxxxxxxxxxxxxxxxxxxxxxxxxxxxxxxxxxxxxxxxxxxxxx 
.................... //ham quet phim ma tran 4x4                  
.................... //xxxxxxxxxxxxxxxxxxxxxxxxxxxxxxxxxxxxxxxxxxxxxxxxxxxxxxxx 
.................... unsigned int key_nhan()                
.................... {      
....................    unsigned int8 maphim,hang,cot;       
....................    maphim=hang=0xff; 
*
254A:  MOVLB  4
254C:  SETF   xAF
254E:  MOVFF  4AF,4AE
....................    for(cot=0;cot<4;cot++)                     
2552:  CLRF   xB0
2554:  MOVF   xB0,W
2556:  SUBLW  03
2558:  BNC   25AC
....................    {    
....................       output_b(maquet[cot]); 
255A:  CLRF   03
255C:  MOVF   xB0,W
255E:  MOVFF  FF2,4B1
2562:  BCF    FF2.7
2564:  MOVLB  0
2566:  CALL   0004
256A:  MOVLB  4
256C:  BTFSC  xB1.7
256E:  BSF    FF2.7
2570:  CLRF   F93
2572:  MOVWF  F8A
....................       if     (!input(pin_b2)) {hang=3; break;} 
2574:  BSF    F93.2
2576:  BTFSC  F81.2
2578:  BRA    2582
257A:  MOVLW  03
257C:  MOVWF  xAF
257E:  BRA    25AC
2580:  BRA    25A8
....................       else if(!input(pin_b3)) {hang=2; break;}        
2582:  BSF    F93.3
2584:  BTFSC  F81.3
2586:  BRA    2590
2588:  MOVLW  02
258A:  MOVWF  xAF
258C:  BRA    25AC
258E:  BRA    25A8
....................       else if(!input(pin_b4)) {hang=1; break;} 
2590:  BSF    F93.4
2592:  BTFSC  F81.4
2594:  BRA    259E
2596:  MOVLW  01
2598:  MOVWF  xAF
259A:  BRA    25AC
259C:  BRA    25A8
....................       else if(!input(pin_b5)) {hang=0; break;} 
259E:  BSF    F93.5
25A0:  BTFSC  F81.5
25A2:  BRA    25A8
25A4:  CLRF   xAF
25A6:  BRA    25AC
25A8:  INCF   xB0,F
25AA:  BRA    2554
....................    }           
....................    if(hang!=0xff) maphim = cot*4 + hang; 
25AC:  INCFSZ xAF,W
25AE:  BRA    25B2
25B0:  BRA    25BC
25B2:  MOVF   xB0,W
25B4:  MULLW  04
25B6:  MOVF   FF3,W
25B8:  ADDWF  xAF,W
25BA:  MOVWF  xAE
....................    return(maphim); 
25BC:  MOVFF  4AE,01
25C0:  MOVLB  0
25C2:  GOTO   35B8 (RETURN)
.................... }      
.................... //xxxxxxxxxxxxxxxxxxxxxxxxxxxxxxxxxxxxxxxxxxxxxxxxxxxxxxxx 
.................... //ham quet ma tran phim va chong doi tich cuc khi nhan phim 
.................... //cach 1              
.................... //xxxxxxxxxxxxxxxxxxxxxxxxxxxxxxxxxxxxxxxxxxxxxxxxxxxxxxxx                         
.................... unsigned int key_4x4_dw() 
.................... {      
....................    unsigned int8 mp1, mp2;   
....................    mp1=key_nhan();       
....................    if(mp1!=0xff)                 
....................    {   
....................       delay_ms(20);                                            
....................       mp1=key_nhan(); 
....................       do               
....................       {          
....................          delay_ms(5);  
....................          mp2=key_nhan();      
....................       }                     
....................       while(mp2==mp1);  
....................    }              
....................    return(mp1); 
.................... }  
.................... //xxxxxxxxxxxxxxxxxxxxxxxxxxxxxxxxxxxxxxxxxxxxxxxxxxxxxxxx 
.................... //ham quet ma tran phim va chong doi tich cuc khi nhan phim 
.................... //cach 2 
.................... //xxxxxxxxxxxxxxxxxxxxxxxxxxxxxxxxxxxxxxxxxxxxxxxxxxxxxxxx          
.................... unsigned int key_4x4_dw_c2(usi8 dl) 
.................... {      
....................    unsigned int8 mp;   
....................    mp=key_nhan();          
....................    if(mp!=0xff)                                    
....................    {   
....................       dl_btn++; delay_ms(1);         
....................       if(dl_btn>=dl)  
....................       {   
....................          dl_btn=0;  
....................          return mp; 
....................       }                
....................       else  return 0xff;  
....................    } 
....................    else  return 0xff;      
.................... }  
.................... //xxxxxxxxxxxxxxxxxxxxxxxxxxxxxxxxxxxxxxxxxxxxxxxxxxxxxxxx 
.................... //ham quet ma tran phim va chong doi tich cuc khi nha phim 
.................... //xxxxxxxxxxxxxxxxxxxxxxxxxxxxxxxxxxxxxxxxxxxxxxxxxxxxxxxx 
.................... unsigned int key_4x4_up() 
.................... {                     
....................    unsigned int8 mp1,mp2;   
....................    mp1=key_nhan(); 
....................    if(mp1!=0xff)    
....................    {                        
....................       if(mp2==0xff)              
....................       {                                                         
....................          delay_ms(20);   //chong doi 
....................          mp1=key_nhan(); 
....................          if(mp1!=0xff)   mp2=mp1; 
....................          return(mp1);    //phim moi                   
....................       }   
....................       else                
....................       {                                                                                                              
....................          do 
....................          {                                                     
....................             mp2=key_nhan(); 
....................             delay_ms(5);  
....................          } while(mp2!=0xff);                                                      
....................          return(mp2);     //thoat khi nha phim           
....................       }                 
....................    }            
....................    else                   
....................    { 
....................       mp2=mp1; 
....................       return(mp1);     //thoat vi khong nhan   
....................    }       
.................... } 
....................                                         
....................  
.................... #include <math.h> 
.................... //////////////////////////////////////////////////////////////////////////// 
.................... ////        (C) Copyright 1996,2011 Custom Computer Services            //// 
.................... //// This source code may only be used by licensed users of the CCS C   //// 
.................... //// compiler.  This source code may only be distributed to other       //// 
.................... //// licensed users of the CCS C compiler.  No other use, reproduction  //// 
.................... //// or distribution is permitted without written permission.           //// 
.................... //// Derivative programs created using this software in object code     //// 
.................... //// form are not restricted in any way.                                //// 
.................... //////////////////////////////////////////////////////////////////////////// 
.................... ////                                                                    //// 
.................... //// History:                                                           //// 
.................... ////  * 9/20/2001 :  Improvments are made to sin/cos code.              //// 
.................... ////                 The code now is small, much faster,                //// 
.................... ////                 and more accurate.                                 //// 
.................... ////  * 2/21/2007 :  Compiler handles & operator differently and does   //// 
.................... ////                 not return generic (int8 *) so type cast is done   //// 
.................... ////  * 6/19/2010 :  Divisions by constants converted to multiplication //// 
.................... ////                 by its inverse to improve computation speed        //// 
.................... ////  * 1/21/2011 :  Constants used for double precision math updated   //// 
.................... ////                 Updated routines include 64 bit versions of cos,   //// 
.................... ////                 asin,atan,exp,log and dependant functions          //// 
.................... ////  * 1/31/2011 :  Optimized current 32-bit float routines for cos    //// 
.................... ////                 and log function                                   //// 
.................... ////  * 6/13/2011 :  Fixed PCD overload CEIL_FLOOR functions for values //// 
.................... ////                 greater then 10000000 and less then -10000000      //// 
.................... ////                                                                    //// 
.................... //////////////////////////////////////////////////////////////////////////// 
....................  
.................... #ifndef MATH_H 
.................... #define MATH_H 
....................  
.................... #ifdef PI 
.................... #undef  PI 
.................... #endif 
.................... #define PI     3.1415926535897932 
....................  
....................  
.................... #define SQRT2  1.4142135623730950 
....................  
.................... //float const ps[4] = {5.9304945, 21.125224, 8.9403076, 0.29730279}; 
.................... //float const qs[4] = {1.0000000, 15.035723, 17.764134, 2.4934718}; 
....................  
.................... ///////////////////////////// Round Functions ////////////////////////////// 
....................  
.................... float32 CEIL_FLOOR(float32 x, unsigned int8 n) 
.................... { 
....................    float32 y, res; 
....................    unsigned int16 l; 
....................    int1 s; 
....................  
....................    s = 0; 
....................    y = x; 
....................  
....................    if (x < 0) 
....................    { 
....................       s = 1; 
....................       y = -y; 
....................    } 
....................  
....................    if (y <= 32768.0) 
....................       res = (float32)(unsigned int16)y; 
....................  
....................  else if (y < 10000000.0) 
....................    {  
....................       l = (unsigned int16)(y*0.000030517578125); 
....................       y = 32768.0*(y*0.000030517578125 - (float32)l); 
....................       res = 32768.0*(float32)l; 
....................       res += (float32)(unsigned int16)y; 
....................    } 
....................  
....................  else 
....................   res = y; 
....................  
....................  y = y - (float32)(unsigned int16)y; 
....................  
....................  if (s) 
....................   res = -res; 
....................  
....................  if (y != 0) 
....................  { 
....................   if (s == 1 && n == 0) 
....................    res -= 1.0; 
....................  
....................   if (s == 0 && n == 1) 
....................    res += 1.0; 
....................  } 
....................  if (x == 0) 
....................     res = 0; 
....................  
....................  return (res); 
.................... } 
....................  
.................... // Overloaded Functions to take care for new Data types in PCD 
.................... // Overloaded function CEIL_FLOOR() for data type - Float48 
.................... #if defined(__PCD__) 
.................... float48 CEIL_FLOOR(float48 x, unsigned int8 n) 
.................... { 
....................    float48 y, res; 
....................    unsigned int32 l; 
....................    int1 s; 
....................  
....................    s = 0; 
....................    y = x; 
....................  
....................    if (x < 0) 
....................    { 
....................       s = 1; 
....................       y = -y; 
....................    } 
....................  
....................    if (y <= 32768.0) 
....................       res = (float48)(unsigned int16)y; 
....................  
....................    else if (y < 549755813888.0) 
....................    { 
....................       l = (unsigned int32)(y*0.000030517578125); 
....................       y = 32768.0*(y*0.000030517578125 - (float48)l); 
....................       res = 32768.0*(float48)l; 
....................       res += (float48)(unsigned int16)y; 
....................    } 
....................    else 
....................    {   
....................       res = y; 
....................       y = 0.0; 
....................    } 
....................     
....................    if(y != 0) 
....................       y = y - (float48)(unsigned int16)y; 
....................  
....................    if (s) 
....................       res = -res; 
....................  
....................    if (y != 0) 
....................    { 
....................       if (s == 1 && n == 0) 
....................          res -= 1.0; 
....................  
....................       if (s == 0 && n == 1) 
....................          res += 1.0; 
....................    } 
....................    if (x == 0) 
....................       res = 0; 
....................  
....................    return (res); 
.................... } 
....................  
....................  
.................... // Overloaded function CEIL_FLOOR() for data type - Float64 
.................... float64 CEIL_FLOOR(float64 x, unsigned int8 n) 
.................... { 
....................    float64 y, res; 
....................    int64 l; 
....................    int1 s; 
....................  
....................    s = 0; 
....................    y = x; 
....................  
....................    if (x < 0) 
....................    { 
....................       s = 1; 
....................       y = -y; 
....................    } 
....................  
....................    if (y <= 32768.0) 
....................       res = (float64)(unsigned int16)y; 
....................    else if (y < 4503599627370496.0) 
....................    { 
....................       l = (int64)(y*0.000030517578125); 
....................       y = 32768.0*(y*0.000030517578125 - (float64)l); 
....................       res = 32768.0*(float64)l; 
....................       res += (float64)(unsigned int16)y; 
....................    } 
....................    else 
....................    { 
....................       res = y; 
....................       y = 0.0; 
....................    } 
....................     
....................    if(y != 0) 
....................       y = y - (float64)(unsigned int16)y; 
....................  
....................    if (s) 
....................       res = -res; 
....................  
....................    if (y != 0) 
....................    { 
....................       if (s == 1 && n == 0) 
....................          res -= 1.0; 
....................  
....................       if (s == 0 && n == 1) 
....................          res += 1.0; 
....................    } 
....................     
....................    if (x == 0) 
....................       res = 0; 
....................  
....................    return (res); 
.................... } 
.................... #endif 
....................  
.................... //////////////////////////////////////////////////////////////////////////// 
.................... //   float floor(float x) 
.................... //////////////////////////////////////////////////////////////////////////// 
.................... // Description : rounds down the number x. 
.................... // Date : N/A 
.................... // 
.................... float32 floor(float32 x) 
.................... { 
....................    return CEIL_FLOOR(x,0); 
.................... } 
.................... // Following 2 functions are overloaded functions of floor() for PCD 
.................... // Overloaded function floor() for data type - Float48 
.................... #if defined(__PCD__) 
.................... float48 floor(float48 x) 
.................... { 
....................    return CEIL_FLOOR(x, 0); 
.................... } 
....................  
.................... // Overloaded function floor() for data type - Float64 
.................... float64 floor(float64 x) 
.................... { 
....................    return CEIL_FLOOR(x, 0); 
.................... } 
.................... #endif 
....................  
....................  
.................... //////////////////////////////////////////////////////////////////////////// 
.................... //   float ceil(float x) 
.................... //////////////////////////////////////////////////////////////////////////// 
.................... // Description : rounds up the number x. 
.................... // Date : N/A 
.................... // 
.................... float32 ceil(float32 x) 
.................... { 
....................    return CEIL_FLOOR(x, 1); 
.................... } 
.................... // Following 2 functions are overloaded functions of ceil() for PCD 
.................... // Overloaded function ceil() for data type - Float48 
.................... #if defined(__PCD__) 
.................... float48 ceil(float48 x) 
.................... { 
....................    return CEIL_FLOOR(x, 1); 
.................... } 
....................  
.................... // Overloaded function ceil() for data type - Float64 
.................... float64 ceil(float64 x) 
.................... { 
....................    return CEIL_FLOOR(x, 1); 
.................... } 
.................... #endif 
....................  
....................  //////////////////////////////////////////////////////////////////////////// 
.................... //   float fabs(float x) 
.................... //////////////////////////////////////////////////////////////////////////// 
.................... // Description : Computes the absolute value of floating point number x 
.................... // Returns : returns the absolute value of x 
.................... // Date : N/A 
.................... // 
.................... #define fabs abs 
....................  
.................... //////////////////////////////////////////////////////////////////////////// 
.................... //   float fmod(float x) 
.................... //////////////////////////////////////////////////////////////////////////// 
.................... // Description : Computes the floating point remainder of x/y 
.................... // Returns : returns the value of x= i*y, for some integer i such that, if y 
.................... // is non zero, the result has the same isgn of x na dmagnitude less than the 
.................... // magnitude of y. If y is zero then a domain error occurs. 
.................... // Date : N/A 
.................... // 
....................  
.................... float fmod(float32 x,float32 y) 
.................... { 
....................    float32 i; 
....................    if (y!=0.0) 
....................    { 
....................       i=(x/y < 0.0)? ceil(x/y): floor(x/y); 
....................       return(x-(i*y)); 
....................    } 
....................    else 
....................    { 
....................    #ifdef _ERRNO 
....................    { 
....................       errno=EDOM; 
....................    } 
....................    #endif 
....................    } 
.................... } 
.................... //Overloaded function for fmod() for PCD 
.................... // Overloaded function fmod() for data type - Float48 
.................... #if defined(__PCD__) 
.................... float48 fmod(float48 x,float48 y) 
.................... { 
....................    float48 i; 
....................    if (y!=0.0) 
....................    { 
....................       i=(x/y < 0.0)? ceil(x/y): floor(x/y); 
....................       return(x-(i*y)); 
....................    } 
....................    else 
....................    { 
....................    #ifdef _ERRNO 
....................    { 
....................       errno=EDOM; 
....................    } 
....................    #endif 
....................    } 
.................... } 
.................... // Overloaded function fmod() for data type - Float64 
.................... float64 fmod(float64 x,float64 y) 
.................... { 
....................    float64 i; 
....................    if (y!=0.0) 
....................    { 
....................       i=(x/y < 0.0)? ceil(x/y): floor(x/y); 
....................       return(x-(i*y)); 
....................    } 
....................    else 
....................    { 
....................    #ifdef _ERRNO 
....................    { 
....................       errno=EDOM; 
....................    } 
....................    #endif 
....................    } 
.................... } 
.................... #endif 
.................... //////////////////// Exponential and logarithmic functions //////////////////// 
.................... //////////////////////////////////////////////////////////////////////////// 
.................... //   float exp(float x) 
.................... //////////////////////////////////////////////////////////////////////////// 
.................... // Description : returns the value (e^x) 
.................... // Date : N/A 
.................... // 
.................... #define LN2 0.6931471805599453 
.................... #define LN2_INV 1.4426950408889634073 
....................  
.................... float const pe[6] = {0.000207455774, 0.00127100575, 0.00965065093, 
....................                      0.0554965651,  0.240227138,  0.693147172}; 
....................  
....................  
.................... float32 exp(float32 x) 
.................... { 
....................    float32 y, res, r; 
....................    #if defined(__PCD__) 
....................    int8 data1; 
....................    #endif 
....................    signed int8 n; 
....................    int1 s; 
....................    #ifdef _ERRNO 
....................    if(x > 88.722838) 
....................    { 
....................       errno=ERANGE; 
....................       return(0); 
....................    } 
....................    #endif 
....................    n = (signed int16)(x*LN2_INV); 
....................    s = 0; 
....................    y = x; 
....................  
....................    if (x < 0) 
....................    { 
....................       s = 1; 
....................       n = -n; 
....................       y = -y; 
....................    } 
....................  
....................    res = 0.0; 
.................... #if !defined(__PCD__) 
....................    *((unsigned int8 *)(&res)) = n + 0x7F; 
.................... #endif 
....................  
.................... #if defined(__PCD__)  // Takes care of IEEE format for PCD 
....................    data1 = n+0x7F; 
....................    if(bit_test(data1,0)) 
....................    bit_set(*(((unsigned int8 *)(&res)+2)),7); 
....................    rotate_right(&data1,1); 
....................    bit_clear(data1,7); 
....................    *(((unsigned int8 *)(&res)+3)) = data1; 
.................... #endif 
....................  
....................    y = y*LN2_INV - (float32)n; 
....................  
....................    r = pe[0]*y + pe[1]; 
....................    r = r*y + pe[2]; 
....................    r = r*y + pe[3]; 
....................    r = r*y + pe[4]; 
....................    r = r*y + pe[5]; 
....................  
....................    res = res*(1.0 + y*r); 
....................  
....................    if (s) 
....................       res = 1.0/res; 
....................    return(res); 
.................... } 
....................  
....................  
.................... //Overloaded function for exp() for PCD 
.................... // Overloaded function exp() for data type - Float48 
.................... #if defined(__PCD__) 
.................... float48 exp(float48 x) 
.................... { 
....................    float48 y, res, r; 
....................    int8 data1; 
....................    signed int8 n; 
....................    int1 s; 
....................    #ifdef _ERRNO 
....................    if(x > 88.722838) 
....................    { 
....................       errno=ERANGE; 
....................       return(0); 
....................    } 
....................    #endif 
....................    n = (signed int16)(x*LN2_INV); 
....................    s = 0; 
....................    y = x; 
....................  
....................    if (x < 0) 
....................    { 
....................       s = 1; 
....................       n = -n; 
....................       y = -y; 
....................    } 
....................  
....................    res = 0.0; 
....................  
....................    data1 = n+0x7F; 
....................    if(bit_test(data1,0)) 
....................    bit_set(*(((unsigned int8 *)(&res)+4)),7); 
....................    rotate_right(&data1,1); 
....................    bit_clear(data1,7); 
....................    *(((unsigned int8 *)(&res)+5)) = data1; 
....................  
....................    y = y*LN2_INV - (float48)n; 
....................  
....................    r = pe[0]*y + pe[1]; 
....................    r = r*y + pe[2]; 
....................    r = r*y + pe[3]; 
....................    r = r*y + pe[4]; 
....................    r = r*y + pe[5]; 
....................  
....................    res = res*(1.0 + y*r); 
....................  
....................    if (s) 
....................       res = 1.0/res; 
....................    return(res); 
.................... } 
....................  
.................... // Overloaded function exp() for data type - Float64 
.................... float64 const pe_64[12] ={9.30741400474913e-011,-4.28655416283316e-011, 
....................                           8.71486547014137e-009,9.84458531538385e-008, 
....................                           1.32588296983536e-006,1.52489283823016e-005, 
....................                           0.000154037598423921,0.00133335487036216, 
....................                           0.00961812936407326,0.0555041086222122, 
....................                           0.240226506962827,0.693147180559823}; 
....................  
.................... float64 exp(float64 x) 
.................... { 
....................    float64 y, res, r; 
....................    unsigned int16 data1, data2; 
....................    unsigned int16 *p; 
....................    signed int16 n; 
....................    int1 s; 
....................    #ifdef _ERRNO 
....................    if(x > 709.7827128) 
....................    { 
....................       errno=ERANGE; 
....................       return(0); 
....................    } 
....................    #endif 
....................    y = x*LN2_INV; 
....................    n = (signed int16)y; 
....................    s = 0; 
....................    y = x; 
....................  
....................    if (x < 0) 
....................    { 
....................       s = 1; 
....................       n = -n; 
....................       y = -y; 
....................    } 
....................  
....................    res = 0.0; 
....................  
.................... #if !defined(__PCD__) 
....................    *((unsigned int16 *)(&res)) = n + 0x7F; 
.................... #endif 
....................    p= (((unsigned int16 *)(&res))+3); 
....................    data1 = *p; 
....................    data2 = *p;    
....................    data1 = n + 0x3FF; 
....................    data1 = data1 <<4; 
....................    if(bit_test(data2,15)) 
....................    bit_set(data1,15); 
....................    data2 = data2 & 0x000F; 
....................    data1 ^= data2; 
....................  
....................    *(((unsigned int16 *)(&res)+3)) = data1; 
....................  
....................  
....................    y = y*LN2_INV - (float64)n; 
....................  
....................    r = pe_64[0]*y + pe_64[1]; 
....................    r = r*y + pe_64[2]; 
....................    r = r*y + pe_64[3]; 
....................    r = r*y + pe_64[4]; 
....................    r = r*y + pe_64[5]; 
....................    r = r*y + pe_64[6]; 
....................    r = r*y + pe_64[7]; 
....................    r = r*y + pe_64[8]; 
....................    r = r*y + pe_64[9]; 
....................    r = r*y + pe_64[10]; 
....................    r = r*y + pe_64[11]; 
....................     
....................    res = res*(1.0 + y*r); 
....................  
....................    if (s) 
....................       res = 1.0/res; 
....................    return(res); 
.................... } 
.................... #ENDIF 
....................  
....................  
.................... /************************************************************/ 
....................  
.................... float32 const pl[4] = {-1.080310025160955, 1.999999947089217}; 
.................... float32 const ql[4] = {0.091284365719509, -0.873491916557671}; 
....................  
.................... //////////////////////////////////////////////////////////////////////////// 
.................... //   float log(float x) 
.................... //////////////////////////////////////////////////////////////////////////// 
.................... // Description : returns the the natural log of x 
.................... // Date : N/A 
.................... // 
.................... float32 log(float32 x) 
.................... { 
....................    float32 y, res, r, y2; 
....................    #if defined(__PCD__) 
....................    unsigned int8  data1,data2; 
....................    #endif 
....................    signed int8 n; 
....................    #ifdef _ERRNO 
....................    if(x <0) 
....................    { 
....................       errno=EDOM; 
....................    } 
....................    if(x ==0) 
....................    { 
....................       errno=ERANGE; 
....................       return(0); 
....................    } 
....................    #endif 
....................    y = x; 
....................  
....................    if (y != 1.0) 
....................    { 
.................... #if !defined(__PCD__) 
....................     *((unsigned int8 *)(&y)) = 0x7E;  
.................... #endif 
....................  
.................... #if defined(__PCD__) // Takes care of IEEE format 
....................    data2 = *(((unsigned int8 *)(&y))+3); 
....................    *(((unsigned int8 *)(&y))+3) = 0x3F; 
....................    data1 = *(((unsigned int8 *)(&y))+2); 
....................    bit_clear(data1,7); 
....................    *(((unsigned int8 *)(&y))+2) = data1; 
....................    if(bit_test(data2,7)) 
....................      bit_set(*(((unsigned int8 *)(&y))+3),7); 
.................... #endif 
....................  
....................       y = (y - 1.0)/(y + 1.0); 
....................  
....................       y2=y*y; 
....................  
....................       res = pl[0]*y2 + pl[1]; 
....................  
....................       r = ql[0]*y2 + ql[1]; 
....................       r = r*y2 + 1.0; 
....................  
....................       res = y*res/r; 
.................... #if !defined(__PCD__) 
....................       n = *((unsigned int8 *)(&x)) - 0x7E; 
.................... #endif 
.................... #if defined(__PCD__)  
....................     data1 = *(((unsigned int8 *)(&x)+3)); 
....................     rotate_left(&data1,1); 
....................     data2 = *(((unsigned int8 *)(&x)+2)); 
....................     if(bit_test (data2,7)) 
....................       bit_set(data1,0); 
....................     n = data1 - 0x7E; 
.................... #endif 
....................  
....................       if (n<0)  
....................          r = -(float32)-n; 
....................       else 
....................          r = (float32)n; 
....................  
....................       res += r*LN2; 
....................    } 
....................  
....................    else 
....................       res = 0.0; 
....................  
....................    return(res); 
.................... } 
....................  
.................... //Overloaded function for log() for PCD 
.................... // Overloaded function log() for data type - Float48 
.................... #if defined(__PCD__) 
.................... // Overloaded function log() for data type - float64 
.................... float64 const pl_64[4] = {-0.145694052150681, 1.365485300000370, 
....................                           -3.120535668274329, 2.000000000000000}; 
....................  
.................... float64 const ql_64[4] = {0.006047500465908, -0.208298281937234, 
....................                           1.113943039156721, -1.893601167470470}; 
....................  
.................... float48 log(float48 x) 
.................... { 
....................    float48 y, res, r, y2; 
....................    unsigned int8  data1,data2; 
....................    signed int8 n; 
.................... #ifdef _ERRNO 
....................    if(x <0) 
....................    { 
....................       errno=EDOM; 
....................    } 
....................    if(x ==0) 
....................    { 
....................       errno=ERANGE; 
....................       return(0); 
....................    } 
.................... #endif 
....................    y = x; 
....................  
....................    if (y != 1.0) 
....................    { 
....................  
.................... #if !defined(__PCD__) 
....................       *((unsigned int8 *)(&y)) = 0x7E;  
.................... #endif 
....................       data2 = *(((unsigned int8 *)(&y))+5); 
....................       *(((unsigned int8 *)(&y))+5) = 0x3F; 
....................       data1 = *(((unsigned int8 *)(&y))+4); 
....................       bit_clear(data1,7); 
....................       *(((unsigned int8 *)(&y))+4) = data1; 
....................  
....................       if(bit_test(data2,7)) 
....................       bit_set(*(((unsigned int8 *)(&y))+4),7); 
....................       y = (y - 1.0)/(y + 1.0); 
....................  
....................       y2=y*y; 
....................  
....................       res = pl_64[0]*y2 + pl_64[1]; 
....................       res = res*y2 + pl_64[2]; 
....................       res = res*y2 + pl_64[3]; 
....................  
....................       r = ql_64[0]*y2 + ql_64[1]; 
....................       r = r*y2 + ql_64[2]; 
....................       r = r*y2 + ql_64[3]; 
....................       r = r*y2 + 1.0;  
....................       res = y*res/r; 
....................  
....................       data1 = *(((unsigned int8 *)(&x)+5)); 
....................       rotate_left(&data1,1); 
....................       data2 = *(((unsigned int8 *)(&x)+4)); 
....................       if(bit_test (data2,7)) 
....................       bit_set(data1,0); 
....................        
....................       n = data1 - 0x7E; 
....................  
....................       if (n<0) 
....................       r = -(float48)-n; 
....................       else 
....................       r = (float48)n; 
....................  
....................       res += r*LN2; 
....................    } 
....................  
....................    else 
....................    res = 0.0; 
....................  
....................    return(res); 
.................... } 
....................  
.................... float64 log(float64 x) 
.................... { 
....................    float64 y, res, r, y2; 
....................    unsigned int16  data1,data2; 
....................    unsigned int16 *p; 
....................    signed int16 n; 
....................    #ifdef _ERRNO 
....................    if(x <0) 
....................    { 
....................       errno=EDOM; 
....................    } 
....................    if(x ==0) 
....................    { 
....................       errno=ERANGE; 
....................       return(0); 
....................    } 
....................    #endif 
....................    y = x; 
....................  
....................    if (y != 1.0) 
....................    { 
....................    #if !defined(__PCD__) 
....................        *((unsigned int8 *)(&y)) = 0x7E;  
....................    #endif 
....................       p= (((unsigned int16 *)(&y))+3); 
....................       data1 = *p; 
....................       data2 = *p; 
....................       data1 = 0x3FE; 
....................       data1 = data1 <<4; 
....................       if(bit_test (data2,15)) 
....................          bit_set(data1,15); 
....................       data2 = data2 & 0x000F; 
....................       data1 ^=data2; 
....................  
....................       *p = data1; 
....................  
....................       y = (y - 1.0)/(y + 1.0); 
....................  
....................       y2=y*y; 
....................  
....................       res = pl_64[0]*y2 + pl_64[1]; 
....................       res = res*y2 + pl_64[2]; 
....................       res = res*y2 + pl_64[3]; 
....................  
....................       r = ql_64[0]*y2 + ql_64[1]; 
....................       r = r*y2 + ql_64[2]; 
....................       r = r*y2 + ql_64[3]; 
....................       r = r*y2 + 1.0; 
....................  
....................       res = y*res/r; 
....................   
....................       p= (((unsigned int16 *)(&x))+3); 
....................       data1 = *p; 
....................       bit_clear(data1,15); 
....................       data1 = data1 >>4;     
....................       n = data1 - 0x3FE; 
....................  
....................  
....................       if (n<0) 
....................          r = -(float64)-n; 
....................       else 
....................          r = (float64)n; 
....................  
....................       res += r*LN2; 
....................    } 
....................  
....................    else 
....................       res = 0.0; 
....................  
....................    return(res); 
.................... } 
.................... #endif 
....................  
....................  
.................... #define LN10 2.3025850929940456 
.................... #define LN10_INV 0.4342944819032518276 
....................  
.................... //////////////////////////////////////////////////////////////////////////// 
.................... //   float log10(float x) 
.................... //////////////////////////////////////////////////////////////////////////// 
.................... // Description : returns the the log base 10 of x 
.................... // Date : N/A 
.................... // 
.................... float32 log10(float32 x) 
.................... { 
....................    float32 r; 
....................  
....................    r = log(x); 
....................    r = r*LN10_INV; 
....................    return(r); 
.................... } 
....................  
.................... //Overloaded functions for log10() for PCD 
.................... // Overloaded function log10() for data type - Float48 
.................... #if defined(__PCD__) 
.................... float48 log10(float48 x) 
.................... { 
....................    float48 r; 
....................  
....................    r = log(x); 
....................    r = r*LN10_INV; 
....................    return(r); 
.................... } 
....................  
.................... // Overloaded function log10() for data type - Float64 
.................... float64 log10(float64 x) 
.................... { 
....................    float64 r; 
....................  
....................    r = log(x); 
....................    r = r*LN10_INV; 
....................    return(r); 
.................... } 
.................... #endif 
.................... //////////////////////////////////////////////////////////////////////////// 
.................... //   float modf(float x) 
.................... //////////////////////////////////////////////////////////////////////////// 
.................... // Description :breaks the argument value int integral and fractional parts, 
.................... // ach of which have the same sign as the argument.  It stores the integral part 
.................... // as a float in the object pointed to by the iptr 
.................... // Returns : returns the signed fractional part of value. 
.................... // Date : N/A 
.................... // 
....................  
.................... float32 modf(float32 value,float32 *iptr) 
.................... { 
....................    *iptr=(value < 0.0)? ceil(value): floor(value); 
....................    return(value - *iptr); 
.................... } 
.................... //Overloaded functions for modf() for PCD 
.................... // Overloaded function modf() for data type - Float48 
.................... #if defined(__PCD__) 
.................... float48 modf(float48 value,float48 *iptr) 
.................... { 
....................    *iptr=(value < 0.0)? ceil(value): floor(value); 
....................    return(value - *iptr); 
.................... } 
.................... // Overloaded function modf() for data type - Float64 
.................... float64 modf(float64 value,float64 *iptr) 
.................... { 
....................    *iptr=(value < 0.0)? ceil(value): floor(value); 
....................    return(value - *iptr); 
.................... } 
.................... #endif 
....................  
.................... //////////////////////////////////////////////////////////////////////////// 
.................... //   float pwr(float x,float y) 
.................... //////////////////////////////////////////////////////////////////////////// 
.................... // Description : returns the value (x^y) 
.................... // Date : N/A 
.................... // Note : 0 is returned when the function will generate an imaginary number 
.................... // 
.................... float32 pwr(float32 x,float32 y) 
.................... { 
....................    if(0 > x && fmod(y, 1) == 0) { 
....................       if(fmod(y, 2) == 0) { 
....................          return (exp(log(-x) * y)); 
....................       } else { 
....................          return (-exp(log(-x) * y)); 
....................       } 
....................    } else if(0 > x && fmod(y, 1) != 0) { 
....................       return 0; 
....................    } else { 
....................       if(x != 0 || 0 >= y) { 
....................          return (exp(log(x) * y)); 
....................       } 
....................    } 
.................... } 
.................... //Overloaded functions for pwr() for PCD 
.................... // Overloaded function pwr() for data type - Float48 
.................... #if defined(__PCD__) 
.................... float48 pwr(float48 x,float48 y) 
.................... { 
....................    if(0 > x && fmod(y, 1) == 0) { 
....................       if(fmod(y, 2) == 0) { 
....................          return (exp(log(-x) * y)); 
....................       } else { 
....................          return (-exp(log(-x) * y)); 
....................       } 
....................    } else if(0 > x && fmod(y, 1) != 0) { 
....................       return 0; 
....................    } else { 
....................       if(x != 0 || 0 >= y) { 
....................          return (exp(log(x) * y)); 
....................       } 
....................    } 
.................... } 
.................... // Overloaded function pwr() for data type - Float64 
.................... float64 pwr(float64 x,float64 y) 
.................... { 
....................    if(0 > x && fmod(y, 1) == 0) { 
....................       if(fmod(y, 2) == 0) { 
....................          return (exp(log(-x) * y)); 
....................       } else { 
....................          return (-exp(log(-x) * y)); 
....................       } 
....................    } else if(0 > x && fmod(y, 1) != 0) { 
....................       return 0; 
....................    } else { 
....................       if(x != 0 || 0 >= y) { 
....................          return (exp(log(x) * y)); 
....................       } 
....................    } 
.................... } 
.................... #endif 
....................  
.................... //////////////////// Power functions //////////////////// 
....................  
.................... //////////////////////////////////////////////////////////////////////////// 
.................... //   float pow(float x,float y) 
.................... //////////////////////////////////////////////////////////////////////////// 
.................... // Description : returns the value (x^y) 
.................... // Date : N/A 
.................... // Note : 0 is returned when the function will generate an imaginary number 
.................... // 
.................... float32 pow(float32 x,float32 y) 
.................... { 
....................    if(0 > x && fmod(y, 1) == 0) { 
....................       if(fmod(y, 2) == 0) { 
....................          return (exp(log(-x) * y)); 
....................       } else { 
....................          return (-exp(log(-x) * y)); 
....................       } 
....................    } else if(0 > x && fmod(y, 1) != 0) { 
....................       return 0; 
....................    } else { 
....................       if(x != 0 || 0 >= y) { 
....................          return (exp(log(x) * y)); 
....................       } 
....................    } 
.................... } 
.................... //Overloaded functions for pow() for PCD 
.................... // Overloaded function for pow() data type - Float48 
.................... #if defined(__PCD__) 
.................... float48 pow(float48 x,float48 y) 
.................... { 
....................    if(0 > x && fmod(y, 1) == 0) { 
....................       if(fmod(y, 2) == 0) { 
....................          return (exp(log(-x) * y)); 
....................       } else { 
....................          return (-exp(log(-x) * y)); 
....................       } 
....................    } else if(0 > x && fmod(y, 1) != 0) { 
....................       return 0; 
....................    } else { 
....................       if(x != 0 || 0 >= y) { 
....................          return (exp(log(x) * y)); 
....................       } 
....................    } 
.................... } 
....................  
.................... // Overloaded function pow() for data type - Float64 
.................... float64 pow(float64 x,float64 y) 
.................... { 
....................    if(0 > x && fmod(y, 1) == 0) { 
....................       if(fmod(y, 2) == 0) { 
....................          return (exp(log(-x) * y)); 
....................       } else { 
....................          return (-exp(log(-x) * y)); 
....................       } 
....................    } else if(0 > x && fmod(y, 1) != 0) { 
....................       return 0; 
....................    } else { 
....................       if(x != 0 || 0 >= y) { 
....................          return (exp(log(x) * y)); 
....................       } 
....................    } 
.................... } 
.................... #endif 
....................  
.................... //////////////////////////////////////////////////////////////////////////// 
.................... //   float sqrt(float x) 
.................... //////////////////////////////////////////////////////////////////////////// 
.................... // Description : returns the square root of x 
.................... // Date : N/A 
.................... // 
.................... float32 sqrt(float32 x) 
.................... { 
....................    float32 y, res; 
....................    #if defined(__PCD__) 
....................    unsigned int16 data1,data2; 
....................    #endif 
....................    unsigned int8 *p; 
....................  
....................    #ifdef _ERRNO 
....................    if(x < 0) 
....................    { 
....................       errno=EDOM; 
....................    } 
....................    #endif 
....................  
....................    if( x<=0.0) 
....................       return(0.0); 
....................  
....................    y=x; 
....................     
....................    #if !defined(__PCD__) 
....................     p=&y; 
....................    (*p)=(unsigned int8)((((unsigned int16)(*p)) + 127) >> 1); 
....................    #endif 
....................     
....................    #if defined(__PCD__) 
....................     p = (((unsigned int8 *)(&y))+3); 
....................     data1 = *(((unsigned int8 *)(&y))+3); 
....................     data2 = *(((unsigned int8 *)(&y))+2); 
....................     rotate_left(&data1,1);     
....................     if(bit_test(data2,7))     
....................        bit_set(data1,0);     
....................     data1 = ((data1+127) >>1); 
....................     bit_clear(data2,7); 
....................     if(bit_test(data1,0)) 
....................        bit_set(data2,7); 
....................     data1 = data1 >>1; 
....................     *(((unsigned int8 *)(&y))+3) = data1; 
....................     *(((unsigned int8 *)(&y))+2) = data2; 
....................      
....................   #endif 
....................  
....................    do { 
....................       res=y; 
....................       y+=(x/y); 
....................  
....................       #if !defined(__PCD__) 
....................      (*p)--; 
....................    #endif 
....................     
....................    #if defined(__PCD__) 
....................     data1 = *(((unsigned int8 *)(&y))+3); 
....................     data2 = *(((unsigned int8 *)(&y))+2); 
....................     rotate_left(&data1,1); 
....................     if(bit_test(data2,7)) 
....................        bit_set(data1,0);     
....................     data1--; 
....................     bit_clear(data2,7); 
....................     if(bit_test(data1,0)) 
....................        bit_set(data2,7); 
....................     data1 = data1 >>1; 
....................     *(((unsigned int8 *)(&y))+3) = data1; 
....................     *(((unsigned int8 *)(&y))+2) = data2; 
....................      
....................   #endif 
....................    } while(res != y); 
....................  
....................    return(res); 
.................... } 
.................... //Overloaded functions for sqrt() for PCD 
.................... // Overloaded function sqrt() for data type - Float48 
.................... #if defined(__PCD__) 
.................... float48 sqrt(float48 x) 
.................... { 
....................    float48 y, res; 
....................    unsigned int16 data1,data2; 
....................    unsigned int8 *p; 
....................  
....................    #ifdef _ERRNO 
....................    if(x < 0) 
....................    { 
....................       errno=EDOM; 
....................    } 
....................    #endif 
....................  
....................    if( x<=0.0) 
....................       return(0.0); 
....................  
....................    y=x; 
....................     
....................    #if !defined(__PCD__) 
....................     p=&y; 
....................    (*p)=(unsigned int8)((((unsigned int16)(*p)) + 127) >> 1); 
....................    #endif 
....................     
....................    #if defined(__PCD__) 
....................     p = (((unsigned int8 *)(&y))+5); 
....................     data1 = *(((unsigned int8 *)(&y))+5); 
....................     data2 = *(((unsigned int8 *)(&y))+4); 
....................     rotate_left(&data1,1); 
....................     if(bit_test(data2,7)) 
....................        bit_set(data1,0);     
....................     data1 = ((data1+127) >>1); 
....................     bit_clear(data2,7); 
....................     if(bit_test(data1,0)) 
....................        bit_set(data2,7); 
....................     data1 = data1 >>1; 
....................     *(((unsigned int8 *)(&y))+5) = data1; 
....................     *(((unsigned int8 *)(&y))+4) = data2; 
....................      
....................   #endif 
....................  
....................    do { 
....................       res=y; 
....................       y+=(x/y); 
....................  
....................       #if !defined(__PCD__) 
....................      (*p)--; 
....................    #endif 
....................     
....................     data1 = *(((unsigned int8 *)(&y))+5); 
....................     data2 = *(((unsigned int8 *)(&y))+4); 
....................     rotate_left(&data1,1); 
....................     if(bit_test(data2,7)) 
....................        bit_set(data1,0);     
....................     data1--; 
....................     bit_clear(data2,7); 
....................     if(bit_test(data1,0)) 
....................        bit_set(data2,7); 
....................     data1 = data1 >>1; 
....................     *(((unsigned int8 *)(&y))+5) = data1; 
....................     *(((unsigned int8 *)(&y))+4) = data2; 
....................      
....................    } while(res != y); 
....................  
....................    return(res); 
.................... } 
....................  
.................... // Overloaded function sqrt() for data type - Float64 
.................... float64 sqrt(float64 x) 
.................... { 
....................    float64 y, res; 
....................    unsigned int16 *p; 
....................    unsigned int16 temp1,temp2; 
....................  
....................    #ifdef _ERRNO 
....................    if(x < 0) 
....................    { 
....................       errno=EDOM; 
....................    } 
....................    #endif 
....................  
....................    if( x<=0.0) 
....................       return(0.0); 
....................  
....................    y=x; 
....................    p= (((unsigned int16 *)(&y))+3); 
....................    temp1 = *p; 
....................    temp2 = *p; 
....................    bit_clear(temp1,15); 
....................    temp1 = (temp1>>4)+1023; 
....................    temp1 = temp1 >> 1; 
....................    temp1 = (temp1<<4) & 0xFFF0; 
....................    if(bit_test(temp2,15)) 
....................       bit_set(temp1,15); 
....................    temp2 = temp2 & 0x000F; 
....................    temp1 ^= temp2; 
....................     
....................    (*p) = temp1; 
....................     
....................    do { 
....................       res=y; 
....................       y+=(x/y); 
....................      temp1 = *p; 
....................      temp2 = *p; 
....................      bit_clear(temp1,15); 
....................      temp1 = (temp1>>4); 
....................      temp1--; 
....................      temp1 = (temp1<<4) & 0xFFF0; 
....................      if(bit_test(temp2,15)) 
....................         bit_set(temp1,15); 
....................      temp2 = temp2 & 0x000F; 
....................      temp1 ^= temp2; 
....................      (*p) = temp1; 
....................  
....................    } while(res != y); 
....................  
....................    return(res); 
.................... } 
.................... #endif 
....................  
.................... ////////////////////////////// Trig Functions ////////////////////////////// 
.................... #ifdef PI_DIV_BY_TWO_INV 
.................... #undef PI_DIV_BY_TWO_INV 
.................... #endif 
.................... #define PI_DIV_BY_TWO_INV 0.63661977236758134 
.................... #ifdef PI_DIV_BY_TWO 
.................... #undef PI_DIV_BY_TWO 
.................... #endif 
.................... #define PI_DIV_BY_TWO   1.5707963267948966 
.................... #ifdef TWOBYPI 
.................... #undef TWOBYPI 
.................... #endif 
.................... #define TWOBYPI          0.6366197723675813 
....................  
.................... //////////////////////////////////////////////////////////////////////////// 
.................... //   float cos(float x) 
.................... //////////////////////////////////////////////////////////////////////////// 
.................... // Description : returns the cosine value of the angle x, which is in radian 
.................... // Date : 9/20/2001 
.................... // 
.................... float32 cos(float32 x) 
*
1962:  MOVLB  4
1964:  CLRF   xD0
1966:  CLRF   xCF
1968:  CLRF   xCE
196A:  MOVLW  7F
196C:  MOVWF  xCD
.................... { 
....................    float32 y, t, t2 = 1.0; 
....................    unsigned int8 quad, i; 
....................    float32 frac; 
....................    float32 p[5] = {                    //by the series definition for cosine 
....................       -0.49999999456337096,            // sum ( ( (-1)^n * x^2n )/(2n)! ) 
....................        0.04166663896921267, 
....................       -0.00138883894522527, 
....................        0.00002476138231734, 
....................       -0.00000026070414770 
....................       //-0.00000000001147, 
....................       // 0.00000000000005 
....................    }; 
196E:  MOVLW  7E
1970:  MOVWF  xD7
1972:  MOVLW  80
1974:  MOVWF  xD8
1976:  CLRF   xD9
1978:  CLRF   xDA
197A:  MOVLW  7A
197C:  MOVWF  xDB
197E:  MOVLW  2A
1980:  MOVWF  xDC
1982:  MOVLW  AA
1984:  MOVWF  xDD
1986:  MOVLW  A3
1988:  MOVWF  xDE
198A:  MOVLW  75
198C:  MOVWF  xDF
198E:  MOVLW  B6
1990:  MOVWF  xE0
1992:  MOVLW  09
1994:  MOVWF  xE1
1996:  MOVLW  B4
1998:  MOVWF  xE2
199A:  MOVLW  6F
199C:  MOVWF  xE3
199E:  MOVLW  4F
19A0:  MOVWF  xE4
19A2:  MOVLW  B6
19A4:  MOVWF  xE5
19A6:  MOVLW  AA
19A8:  MOVWF  xE6
19AA:  MOVLW  69
19AC:  MOVWF  xE7
19AE:  MOVLW  8B
19B0:  MOVWF  xE8
19B2:  MOVLW  F6
19B4:  MOVWF  xE9
19B6:  MOVLW  E8
19B8:  MOVWF  xEA
....................  
....................    if (x < 0) x = -x;                  // absolute value of input 
19BA:  MOVFF  4C4,4EE
19BE:  MOVFF  4C3,4ED
19C2:  MOVFF  4C2,4EC
19C6:  MOVFF  4C1,4EB
19CA:  CLRF   xF2
19CC:  CLRF   xF1
19CE:  CLRF   xF0
19D0:  CLRF   xEF
19D2:  MOVLB  0
19D4:  BRA    15FC
19D6:  BNC   19E2
19D8:  MOVLB  4
19DA:  MOVF   xC2,W
19DC:  XORLW  80
19DE:  MOVWF  xC2
19E0:  MOVLB  0
....................  
....................    quad = (unsigned int8)(x * PI_DIV_BY_TWO_INV);    // quadrant 
19E2:  MOVFF  4C4,4F2
19E6:  MOVFF  4C3,4F1
19EA:  MOVFF  4C2,4F0
19EE:  MOVFF  4C1,4EF
19F2:  MOVLW  83
19F4:  MOVLB  4
19F6:  MOVWF  xF6
19F8:  MOVLW  F9
19FA:  MOVWF  xF5
19FC:  MOVLW  22
19FE:  MOVWF  xF4
1A00:  MOVLW  7E
1A02:  MOVWF  xF3
1A04:  MOVLB  0
1A06:  RCALL  13A8
1A08:  MOVFF  03,4EE
1A0C:  MOVFF  02,4ED
1A10:  MOVFF  01,4EC
1A14:  MOVFF  00,4EB
1A18:  RCALL  1678
1A1A:  MOVFF  01,4D1
....................    frac = (x * PI_DIV_BY_TWO_INV) - quad;  // fractional part of input 
1A1E:  MOVFF  4C4,4F2
1A22:  MOVFF  4C3,4F1
1A26:  MOVFF  4C2,4F0
1A2A:  MOVFF  4C1,4EF
1A2E:  MOVLW  83
1A30:  MOVLB  4
1A32:  MOVWF  xF6
1A34:  MOVLW  F9
1A36:  MOVWF  xF5
1A38:  MOVLW  22
1A3A:  MOVWF  xF4
1A3C:  MOVLW  7E
1A3E:  MOVWF  xF3
1A40:  MOVLB  0
1A42:  RCALL  13A8
1A44:  MOVFF  03,4EE
1A48:  MOVFF  02,4ED
1A4C:  MOVFF  01,4EC
1A50:  MOVFF  00,4EB
1A54:  MOVLB  4
1A56:  CLRF   xF0
1A58:  MOVFF  4D1,4EF
1A5C:  MOVLB  0
1A5E:  RCALL  16B4
1A60:  BSF    FD8.1
1A62:  MOVFF  4EE,4F2
1A66:  MOVFF  4ED,4F1
1A6A:  MOVFF  4EC,4F0
1A6E:  MOVFF  4EB,4EF
1A72:  MOVFF  03,4F6
1A76:  MOVFF  02,4F5
1A7A:  MOVFF  01,4F4
1A7E:  MOVFF  00,4F3
1A82:  RCALL  16EA
1A84:  MOVFF  03,4D6
1A88:  MOVFF  02,4D5
1A8C:  MOVFF  01,4D4
1A90:  MOVFF  00,4D3
....................    quad = quad % 4;                    // quadrant (0 to 3) 
1A94:  MOVLW  03
1A96:  MOVLB  4
1A98:  ANDWF  xD1,F
....................  
....................    if (quad == 0 || quad == 2) 
1A9A:  MOVF   xD1,F
1A9C:  BZ    1AA4
1A9E:  MOVF   xD1,W
1AA0:  SUBLW  02
1AA2:  BNZ   1ADC
....................       t = frac * PI_DIV_BY_TWO; 
1AA4:  MOVFF  4D6,4F2
1AA8:  MOVFF  4D5,4F1
1AAC:  MOVFF  4D4,4F0
1AB0:  MOVFF  4D3,4EF
1AB4:  MOVLW  DB
1AB6:  MOVWF  xF6
1AB8:  MOVLW  0F
1ABA:  MOVWF  xF5
1ABC:  MOVLW  49
1ABE:  MOVWF  xF4
1AC0:  MOVLW  7F
1AC2:  MOVWF  xF3
1AC4:  MOVLB  0
1AC6:  RCALL  13A8
1AC8:  MOVFF  03,4CC
1ACC:  MOVFF  02,4CB
1AD0:  MOVFF  01,4CA
1AD4:  MOVFF  00,4C9
1AD8:  BRA    1BB0
1ADA:  MOVLB  4
....................    else if (quad == 1) 
1ADC:  DECFSZ xD1,W
1ADE:  BRA    1B4A
....................       t = (1-frac) * PI_DIV_BY_TWO; 
1AE0:  BSF    FD8.1
1AE2:  CLRF   xF2
1AE4:  CLRF   xF1
1AE6:  CLRF   xF0
1AE8:  MOVLW  7F
1AEA:  MOVWF  xEF
1AEC:  MOVFF  4D6,4F6
1AF0:  MOVFF  4D5,4F5
1AF4:  MOVFF  4D4,4F4
1AF8:  MOVFF  4D3,4F3
1AFC:  MOVLB  0
1AFE:  RCALL  16EA
1B00:  MOVFF  03,4EE
1B04:  MOVFF  02,4ED
1B08:  MOVFF  01,4EC
1B0C:  MOVFF  00,4EB
1B10:  MOVFF  03,4F2
1B14:  MOVFF  02,4F1
1B18:  MOVFF  01,4F0
1B1C:  MOVFF  00,4EF
1B20:  MOVLW  DB
1B22:  MOVLB  4
1B24:  MOVWF  xF6
1B26:  MOVLW  0F
1B28:  MOVWF  xF5
1B2A:  MOVLW  49
1B2C:  MOVWF  xF4
1B2E:  MOVLW  7F
1B30:  MOVWF  xF3
1B32:  MOVLB  0
1B34:  RCALL  13A8
1B36:  MOVFF  03,4CC
1B3A:  MOVFF  02,4CB
1B3E:  MOVFF  01,4CA
1B42:  MOVFF  00,4C9
1B46:  BRA    1BB0
1B48:  MOVLB  4
....................    else // should be 3 
....................       t = (frac-1) * PI_DIV_BY_TWO; 
1B4A:  BSF    FD8.1
1B4C:  MOVFF  4D6,4F2
1B50:  MOVFF  4D5,4F1
1B54:  MOVFF  4D4,4F0
1B58:  MOVFF  4D3,4EF
1B5C:  CLRF   xF6
1B5E:  CLRF   xF5
1B60:  CLRF   xF4
1B62:  MOVLW  7F
1B64:  MOVWF  xF3
1B66:  MOVLB  0
1B68:  RCALL  16EA
1B6A:  MOVFF  03,4EE
1B6E:  MOVFF  02,4ED
1B72:  MOVFF  01,4EC
1B76:  MOVFF  00,4EB
1B7A:  MOVFF  03,4F2
1B7E:  MOVFF  02,4F1
1B82:  MOVFF  01,4F0
1B86:  MOVFF  00,4EF
1B8A:  MOVLW  DB
1B8C:  MOVLB  4
1B8E:  MOVWF  xF6
1B90:  MOVLW  0F
1B92:  MOVWF  xF5
1B94:  MOVLW  49
1B96:  MOVWF  xF4
1B98:  MOVLW  7F
1B9A:  MOVWF  xF3
1B9C:  MOVLB  0
1B9E:  RCALL  13A8
1BA0:  MOVFF  03,4CC
1BA4:  MOVFF  02,4CB
1BA8:  MOVFF  01,4CA
1BAC:  MOVFF  00,4C9
....................  
....................    y = 1.0; 
1BB0:  MOVLB  4
1BB2:  CLRF   xC8
1BB4:  CLRF   xC7
1BB6:  CLRF   xC6
1BB8:  MOVLW  7F
1BBA:  MOVWF  xC5
....................    t = t * t; 
1BBC:  MOVFF  4CC,4F2
1BC0:  MOVFF  4CB,4F1
1BC4:  MOVFF  4CA,4F0
1BC8:  MOVFF  4C9,4EF
1BCC:  MOVFF  4CC,4F6
1BD0:  MOVFF  4CB,4F5
1BD4:  MOVFF  4CA,4F4
1BD8:  MOVFF  4C9,4F3
1BDC:  MOVLB  0
1BDE:  CALL   13A8
1BE2:  MOVFF  03,4CC
1BE6:  MOVFF  02,4CB
1BEA:  MOVFF  01,4CA
1BEE:  MOVFF  00,4C9
....................    for (i = 0; i <= 4; i++) 
1BF2:  MOVLB  4
1BF4:  CLRF   xD2
1BF6:  MOVF   xD2,W
1BF8:  SUBLW  04
1BFA:  BNC   1CC6
....................    { 
....................       t2 = t2 * t; 
1BFC:  MOVFF  4D0,4F2
1C00:  MOVFF  4CF,4F1
1C04:  MOVFF  4CE,4F0
1C08:  MOVFF  4CD,4EF
1C0C:  MOVFF  4CC,4F6
1C10:  MOVFF  4CB,4F5
1C14:  MOVFF  4CA,4F4
1C18:  MOVFF  4C9,4F3
1C1C:  MOVLB  0
1C1E:  CALL   13A8
1C22:  MOVFF  03,4D0
1C26:  MOVFF  02,4CF
1C2A:  MOVFF  01,4CE
1C2E:  MOVFF  00,4CD
....................       y = y + p[i] * t2; 
1C32:  MOVLB  4
1C34:  MOVF   xD2,W
1C36:  MULLW  04
1C38:  MOVF   FF3,W
1C3A:  CLRF   03
1C3C:  ADDLW  D7
1C3E:  MOVWF  FE9
1C40:  MOVLW  04
1C42:  ADDWFC 03,W
1C44:  MOVWF  FEA
1C46:  MOVFF  FEF,4EB
1C4A:  MOVFF  FEC,4EC
1C4E:  MOVFF  FEC,4ED
1C52:  MOVFF  FEC,4EE
1C56:  MOVFF  4EE,4F2
1C5A:  MOVFF  4ED,4F1
1C5E:  MOVFF  4EC,4F0
1C62:  MOVFF  4EB,4EF
1C66:  MOVFF  4D0,4F6
1C6A:  MOVFF  4CF,4F5
1C6E:  MOVFF  4CE,4F4
1C72:  MOVFF  4CD,4F3
1C76:  MOVLB  0
1C78:  CALL   13A8
1C7C:  MOVFF  FEA,4EC
1C80:  MOVFF  FE9,4EB
1C84:  BCF    FD8.1
1C86:  MOVFF  4C8,4F2
1C8A:  MOVFF  4C7,4F1
1C8E:  MOVFF  4C6,4F0
1C92:  MOVFF  4C5,4EF
1C96:  MOVFF  03,4F6
1C9A:  MOVFF  02,4F5
1C9E:  MOVFF  01,4F4
1CA2:  MOVFF  00,4F3
1CA6:  RCALL  16EA
1CA8:  MOVFF  4EC,FEA
1CAC:  MOVFF  4EB,FE9
1CB0:  MOVFF  03,4C8
1CB4:  MOVFF  02,4C7
1CB8:  MOVFF  01,4C6
1CBC:  MOVFF  00,4C5
1CC0:  MOVLB  4
1CC2:  INCF   xD2,F
1CC4:  BRA    1BF6
....................    } 
....................  
....................    if (quad == 2 || quad == 1) 
1CC6:  MOVF   xD1,W
1CC8:  SUBLW  02
1CCA:  BZ    1CD0
1CCC:  DECFSZ xD1,W
1CCE:  BRA    1CD6
....................       y = -y;  // correct sign 
1CD0:  MOVF   xC6,W
1CD2:  XORLW  80
1CD4:  MOVWF  xC6
....................  
....................    return (y); 
1CD6:  MOVFF  4C5,00
1CDA:  MOVFF  4C6,01
1CDE:  MOVFF  4C7,02
1CE2:  MOVFF  4C8,03
1CE6:  MOVLB  0
1CE8:  RETURN 0
.................... } 
....................  
....................  
.................... //Overloaded functions for cos() for PCD 
.................... // Overloaded function cos() for data type - Float48 
.................... #if defined(__PCD__) 
.................... float48 cos(float48 x) 
.................... { 
....................    float48 y, t, t2 = 1.0; 
....................    unsigned int8 quad, i; 
....................    float48 frac; 
....................    float48 p[6] = {                    //by the series definition for cosine 
....................       -0.5,                            // sum ( ( (-1)^n * x^2n )/(2n)! ) 
....................        0.04166666666667, 
....................       -0.00138888888889, 
....................        0.00002480158730, 
....................       -0.00000027557319, 
....................        0.00000000208767, 
....................       //-0.00000000001147, 
....................       // 0.00000000000005 
....................    }; 
....................  
....................    if (x < 0) x = -x;                  // absolute value of input 
....................  
....................    quad = (unsigned int8)(x * PI_DIV_BY_TWO_INV);    // quadrant 
....................    frac = (x * PI_DIV_BY_TWO_INV) - quad;  // fractional part of input 
....................    quad = quad % 4;                    // quadrant (0 to 3) 
....................  
....................    if (quad == 0 || quad == 2) 
....................       t = frac * PI_DIV_BY_TWO; 
....................    else if (quad == 1) 
....................       t = (1-frac) * PI_DIV_BY_TWO; 
....................    else // should be 3 
....................       t = (frac-1) * PI_DIV_BY_TWO; 
....................  
....................    y = 0.999999999781; 
....................    t = t * t; 
....................    for (i = 0; i <= 5; i++) 
....................    { 
....................       t2 = t2 * t; 
....................       y = y + p[i] * t2; 
....................    } 
....................  
....................    if (quad == 2 || quad == 1) 
....................       y = -y;  // correct sign 
....................  
....................    return (y); 
.................... } 
....................  
.................... // Overloaded function cos() for data type - Float64 
.................... float64 cos(float64 x) 
.................... { 
....................    float64 y, t, t2 = 1.0; 
....................    unsigned int8 quad, i; 
....................    float64 frac; 
....................    float64 p_64[9] = {               //by the series definition for cosine 
....................      -0.49999999999998740,           // sum ( ( (-1)^n * x^2n )/(2n)! )              
....................       0.04166666666656518, 
....................      -0.00138888888851691, 
....................       0.00002480158658490, 
....................      -0.00000027557239796, 
....................       0.00000000208715031, 
....................      -0.00000000001126577, 
....................       0.00000000000000427, 
....................       0.00000000000000372}; 
....................  
....................    if (x < 0) x = -x;                  // absolute value of input 
....................  
....................    quad = (unsigned int8)(x * PI_DIV_BY_TWO_INV);    // quadrant 
....................    frac = (x * PI_DIV_BY_TWO_INV) - quad;  // fractional part of input 
....................    quad = quad % 4;                    // quadrant (0 to 3) 
....................  
....................    if (quad == 0 || quad == 2) 
....................       t = frac * PI_DIV_BY_TWO; 
....................    else if (quad == 1) 
....................       t = (1-frac) * PI_DIV_BY_TWO; 
....................    else // should be 3 
....................       t = (frac-1) * PI_DIV_BY_TWO; 
....................  
....................    y = 1.0; 
....................    t = t * t; 
....................    for (i = 0; i <= 8; i++) 
....................    { 
....................       t2 = t2 * t; 
....................       y = y + p_64[i] * t2; 
....................    } 
....................  
....................    if (quad == 2 || quad == 1) 
....................       y = -y;  // correct sign 
....................  
....................    return (y); 
.................... } 
....................  
.................... #endif 
....................  
.................... //////////////////////////////////////////////////////////////////////////// 
.................... //   float sin(float x) 
.................... //////////////////////////////////////////////////////////////////////////// 
.................... // Description : returns the sine value of the angle x, which is in radian 
.................... // Date : 9/20/2001 
.................... // 
.................... float32 sin(float32 x) 
.................... { 
....................    return cos(x - PI_DIV_BY_TWO); 
1CEA:  BSF    FD8.1
1CEC:  MOVFF  4BC,4F2
1CF0:  MOVFF  4BB,4F1
1CF4:  MOVFF  4BA,4F0
1CF8:  MOVFF  4B9,4EF
1CFC:  MOVLW  DB
1CFE:  MOVLB  4
1D00:  MOVWF  xF6
1D02:  MOVLW  0F
1D04:  MOVWF  xF5
1D06:  MOVLW  49
1D08:  MOVWF  xF4
1D0A:  MOVLW  7F
1D0C:  MOVWF  xF3
1D0E:  MOVLB  0
1D10:  RCALL  16EA
1D12:  MOVFF  03,4C0
1D16:  MOVFF  02,4BF
1D1A:  MOVFF  01,4BE
1D1E:  MOVFF  00,4BD
1D22:  MOVFF  03,4C4
1D26:  MOVFF  02,4C3
1D2A:  MOVFF  01,4C2
1D2E:  MOVFF  00,4C1
1D32:  RCALL  1962
1D34:  RETURN 0
.................... } 
....................  
.................... //Overloaded functions for sin() for PCD 
.................... // Overloaded function sin() for data type - Float48 
.................... #if defined(__PCD__) 
.................... float48 sin(float48 x) 
.................... { 
....................    return cos(x - PI_DIV_BY_TWO); 
.................... } 
....................  
.................... // Overloaded function sin() for data type - Float48 
.................... float64 sin(float64 x) 
.................... { 
....................    return cos(x - PI_DIV_BY_TWO); 
.................... } 
.................... #endif 
....................  
.................... //////////////////////////////////////////////////////////////////////////// 
.................... //   float tan(float x) 
.................... //////////////////////////////////////////////////////////////////////////// 
.................... // Description : returns the tangent value of the angle x, which is in radian 
.................... // Date : 9/20/2001 
.................... // 
.................... float32 tan(float32 x) 
.................... { 
....................    float32 c, s; 
....................  
....................    c = cos(x); 
....................    if (c == 0.0) 
....................       return (1.0e+36); 
....................  
....................    s = sin(x); 
....................    return(s/c); 
.................... } 
.................... //Overloaded functions for tan() for PCD 
.................... // Overloaded function tan() for data type - Float48 
.................... #if defined(__PCD__) 
.................... float48 tan(float48 x) 
.................... { 
....................    float48 c, s; 
....................  
....................    c = cos(x); 
....................    if (c == 0.0) 
....................       return (1.0e+36); 
....................  
....................    s = sin(x); 
....................    return(s/c); 
.................... } 
....................  
.................... // Overloaded function tan() for data type - Float48 
.................... float64 tan(float64 x) 
.................... { 
....................    float64 c, s; 
....................  
....................    c = cos(x); 
....................    if (c == 0.0) 
....................       return (1.0e+36); 
....................  
....................    s = sin(x); 
....................    return(s/c); 
.................... } 
.................... #endif 
....................  
.................... float32 const pas[3] = {0.49559947, -4.6145309, 5.6036290}; 
.................... float32 const qas[3] = {1.0000000,  -5.5484666, 5.6036290}; 
....................  
.................... float32 ASIN_COS(float32 x, unsigned int8 n) 
.................... { 
....................    float32 y, res, r, y2; 
....................    int1 s; 
....................    #ifdef _ERRNO 
....................    if(x <-1 || x > 1) 
....................    { 
....................       errno=EDOM; 
....................    } 
....................    #endif 
....................    s = 0; 
....................    y = x; 
....................  
....................    if (x < 0) 
....................    { 
....................       s = 1; 
....................       y = -y; 
....................    } 
....................  
....................    if (y > 0.5) 
....................    { 
....................       y = sqrt((1.0 - y)*0.5); 
....................       n += 2; 
....................    } 
....................  
....................    y2=y*y; 
....................  
....................    res = pas[0]*y2 + pas[1]; 
....................    res = res*y2 + pas[2]; 
....................  
....................    r = qas[0]*y2 + qas[1]; 
....................    r = r*y2 + qas[2]; 
....................  
....................    res = y*res/r; 
....................  
....................    if (n & 2)     // |x| > 0.5 
....................       res = PI_DIV_BY_TWO - 2.0*res; 
....................    if (s) 
....................       res = -res; 
....................    if (n & 1)           // take arccos 
....................       res = PI_DIV_BY_TWO - res; 
....................  
....................    return(res); 
.................... } 
....................  
....................  
.................... //Overloaded functions for ASIN_COS() for PCD 
.................... // Overloaded function ASIN_COS() for data type - Float48 
.................... #if defined(__PCD__) 
.................... float48 ASIN_COS(float48 x, unsigned int8 n) 
.................... { 
....................    float48 y, res, r, y2; 
....................    int1 s; 
....................    #ifdef _ERRNO 
....................    if(x <-1 || x > 1) 
....................    { 
....................       errno=EDOM; 
....................    } 
....................    #endif 
....................    s = 0; 
....................    y = x; 
....................  
....................    if (x < 0) 
....................    { 
....................       s = 1; 
....................       y = -y; 
....................    } 
....................  
....................    if (y > 0.5) 
....................    { 
....................       y = sqrt((1.0 - y)*0.5); 
....................       n += 2; 
....................    } 
....................  
....................    y2=y*y; 
....................  
....................    res = pas[0]*y2 + pas[1]; 
....................    res = res*y2 + pas[2]; 
....................  
....................    r = qas[0]*y2 + qas[1]; 
....................    r = r*y2 + qas[2]; 
....................  
....................    res = y*res/r; 
....................  
....................    if (n & 2)     // |x| > 0.5 
....................       res = PI_DIV_BY_TWO - 2.0*res; 
....................    if (s) 
....................       res = -res; 
....................    if (n & 1)           // take arccos 
....................       res = PI_DIV_BY_TWO - res; 
....................  
....................    return(res); 
.................... } 
....................  
.................... // Overloaded function ASIN_COS() for data type - Float64 
.................... double pas_64[5]={1.000000000000000,-2.069938587724477,1.421444580548907, 
....................                  -0.360690137621842,0.024929451660228}; 
....................  
.................... double qas_64[5]={-2.236605254391134,1.719212122946451,-0.524122954476133, 
....................                    0.052808872045749,-0.000662536036570}; 
....................                     
.................... float64 ASIN_COS(float64 x, unsigned int8 n) 
.................... { 
....................    float64 y, res, r, y2; 
....................    int1 s; 
....................    #ifdef _ERRNO 
....................    if(x <-1 || x > 1) 
....................    { 
....................       errno=EDOM; 
....................    } 
....................    #endif 
....................    s = 0; 
....................    y = x; 
....................  
....................    if (x < 0) 
....................    { 
....................       s = 1; 
....................       y = -y; 
....................    } 
....................  
....................    if (y > 0.5) 
....................    { 
....................       y = sqrt((1.0 - y)*0.5); 
....................       n += 2; 
....................    } 
....................  
....................    y2=y*y; 
....................  
....................    res = pas_64[4]*y2 + pas_64[3]; 
....................    res = res*y2 + pas_64[2]; 
....................    res = res*y2 + pas_64[1]; 
....................    res = res*y2 + pas_64[0]; 
....................  
....................    r = qas_64[4]*y2 + qas_64[3]; 
....................    r = r*y2 + qas_64[2]; 
....................    r = r*y2 + qas_64[1]; 
....................    r = r*y2 + qas_64[0]; 
....................    r = r*y2 + 1.0; 
....................  
....................    res = y*res/r; 
....................  
....................    if (n & 2)     // |x| > 0.5 
....................       res = PI_DIV_BY_TWO - 2.0*res; 
....................    if (s) 
....................       res = -res; 
....................    if (n & 1)           // take arccos 
....................       res = PI_DIV_BY_TWO - res; 
....................  
....................    return(res); 
.................... } 
.................... #endif 
....................  
.................... //////////////////////////////////////////////////////////////////////////// 
.................... //   float asin(float x) 
.................... //////////////////////////////////////////////////////////////////////////// 
.................... // Description : returns the arcsine value of the value x. 
.................... // Date : N/A 
.................... // 
.................... float32 asin(float32 x) 
.................... { 
....................    float32 r; 
....................  
....................    r = ASIN_COS(x, 0); 
....................    return(r); 
.................... } 
.................... //Overloaded functions for asin() for PCD 
.................... // Overloaded function asin() for data type - Float48 
.................... #if defined(__PCD__) 
.................... float48 asin(float48 x) 
.................... { 
....................    float48 r; 
....................  
....................    r = ASIN_COS(x, 0); 
....................    return(r); 
.................... } 
....................  
.................... // Overloaded function asin() for data type - Float64 
.................... float64 asin(float64 x) 
.................... { 
....................    float64 r; 
....................  
....................    r = ASIN_COS(x, 0); 
....................    return(r); 
.................... } 
.................... #endif 
....................  
.................... //////////////////////////////////////////////////////////////////////////// 
.................... //   float acos(float x) 
.................... //////////////////////////////////////////////////////////////////////////// 
.................... // Description : returns the arccosine value of the value x. 
.................... // Date : N/A 
.................... // 
.................... float32 acos(float32 x) 
.................... { 
....................    float32 r; 
....................  
....................    r = ASIN_COS(x, 1); 
....................    return(r); 
.................... } 
.................... //Overloaded functions for acos() for PCD 
.................... // Overloaded function acos() for data type - Float48 
.................... #if defined(__PCD__) 
.................... float48 acos(float48 x) 
.................... { 
....................    float48 r; 
....................  
....................    r = ASIN_COS(x, 1); 
....................    return(r); 
.................... } 
....................  
.................... // Overloaded function acos() for data type - Float64 
.................... float64 acos(float64 x) 
.................... { 
....................    float64 r; 
....................  
....................    r = ASIN_COS(x, 1); 
....................    return(r); 
.................... } 
.................... #endif 
....................  
.................... float32 const pat[4] = {0.17630401, 5.6710795, 22.376096, 19.818457}; 
.................... float32 const qat[4] = {1.0000000,  11.368190, 28.982246, 19.818457}; 
....................  
.................... //////////////////////////////////////////////////////////////////////////// 
.................... //   float atan(float x) 
.................... //////////////////////////////////////////////////////////////////////////// 
.................... // Description : returns the arctangent value of the value x. 
.................... // Date : N/A 
.................... // 
.................... float32 atan(float32 x) 
.................... { 
....................    float32 y, res, r; 
....................    int1 s, flag; 
....................  
....................    s = 0; 
....................    flag = 0; 
....................    y = x; 
....................  
....................    if (x < 0) 
....................    { 
....................       s = 1; 
....................       y = -y; 
....................    } 
....................  
....................    if (y > 1.0) 
....................    { 
....................       y = 1.0/y; 
....................       flag = 1; 
....................    } 
....................  
....................    res = pat[0]*y*y + pat[1]; 
....................    res = res*y*y + pat[2]; 
....................    res = res*y*y + pat[3]; 
....................  
....................    r = qat[0]*y*y + qat[1]; 
....................    r = r*y*y + qat[2]; 
....................    r = r*y*y + qat[3]; 
....................  
....................    res = y*res/r; 
....................  
....................  
....................    if (flag)                              // for |x| > 1 
....................       res = PI_DIV_BY_TWO - res; 
....................    if (s) 
....................       res = -res; 
....................  
....................    return(res); 
.................... } 
.................... //Overloaded functions for atan() for PCD 
.................... // Overloaded function atan() for data type - Float48 
.................... #if defined(__PCD__) 
.................... float48 atan(float48 x) 
.................... { 
....................    float48 y, res, r; 
....................    int1 s, flag; 
....................  
....................    s = 0; 
....................    flag = 0; 
....................    y = x; 
....................  
....................    if (x < 0) 
....................    { 
....................       s = 1; 
....................       y = -y; 
....................    } 
....................  
....................    if (y > 1.0) 
....................    { 
....................       y = 1.0/y; 
....................       flag = 1; 
....................    } 
....................  
....................    res = pat[0]*y*y + pat[1]; 
....................    res = res*y*y + pat[2]; 
....................    res = res*y*y + pat[3]; 
....................  
....................    r = qat[0]*y*y + qat[1]; 
....................    r = r*y*y + qat[2]; 
....................    r = r*y*y + qat[3]; 
....................  
....................    res = y*res/r; 
....................  
....................  
....................    if (flag)                              // for |x| > 1 
....................       res = PI_DIV_BY_TWO - res; 
....................    if (s) 
....................       res = -res; 
....................  
....................    return(res); 
.................... } 
....................  
.................... float64 pat_64[6]={0.999999999999999,2.249923645595566,1.771541617806449, 
....................                    0.579678874003185,0.072162702162882,0.002281100141660}; 
....................  
.................... float64 qat_64[6]={2.583256978928510,2.432627277466967,1.016760379885393, 
....................                    0.182482977188688,0.011155377971690,0.000100013019160}; 
.................... // Overloaded function atan() for data type - Float64 
.................... float64 atan(float64 x) 
.................... { 
....................    float64 y,y2, res, r; 
....................    int1 s, flag; 
....................  
....................    s = 0; 
....................    flag = 0; 
....................    y = x; 
....................  
....................    if (x < 0) 
....................    { 
....................       s = 1; 
....................       y = -y; 
....................    } 
....................  
....................    if (y > 1.0) 
....................    { 
....................       y = 1.0/y; 
....................       flag = 1; 
....................    } 
....................    y2 = y*y; 
....................    res = pat_64[5]*y2 + pat_64[4]; 
....................    res = res*y2 + pat_64[3]; 
....................    res = res*y2 + pat_64[2]; 
....................    res = res*y2 + pat_64[1]; 
....................    res = res*y2 + pat_64[0]; 
....................  
....................    r = qat_64[5]*y2 + qat_64[4]; 
....................    r = r*y2 + qat_64[3]; 
....................    r = r*y2 + qat_64[2]; 
....................    r = r*y2 + qat_64[1]; 
....................    r = r*y2 + qat_64[0]; 
....................    r = r*y2 + 1.0; 
....................  
....................    res = y*res/r; 
....................  
....................  
....................    if (flag)                              // for |x| > 1 
....................       res = PI_DIV_BY_TWO - res; 
....................    if (s) 
....................       res = -res; 
....................  
....................    return(res); 
.................... } 
.................... #endif 
....................  
.................... ///////////////////////////////////////////////////////////////////////////// 
.................... //   float atan2(float y, float x) 
.................... ///////////////////////////////////////////////////////////////////////////// 
.................... // Description :computes the principal value of arc tangent of y/x, using the 
.................... // signs of both the arguments to determine the quadrant of the return value 
.................... // Returns : returns the arc tangent of y/x. 
.................... // Date : N/A 
.................... // 
....................  
.................... float32 atan2(float32 y,float32 x) 
.................... { 
....................    float32 z; 
....................    int1 sign; 
....................    unsigned int8 quad; 
....................    sign=0; 
....................    quad=0; //quadrant 
....................    quad=((y<=0.0)?((x<=0.0)?3:4):((x<0.0)?2:1)); 
....................    if(y<0.0) 
....................    { 
....................       sign=1; 
....................       y=-y; 
....................    } 
....................    if(x<0.0) 
....................    { 
....................       x=-x; 
....................    } 
....................    if (x==0.0) 
....................    { 
....................       if(y==0.0) 
....................       { 
....................       #ifdef _ERRNO 
....................       { 
....................          errno=EDOM; 
....................       } 
....................       #endif 
....................       } 
....................       else 
....................       { 
....................          if(sign) 
....................          { 
....................          return (-(PI_DIV_BY_TWO)); 
....................          } 
....................          else 
....................          { 
....................          return (PI_DIV_BY_TWO); 
....................          } 
....................       } 
....................    } 
....................    else 
....................    { 
....................       z=y/x; 
....................       switch(quad) 
....................       { 
....................          case 1: 
....................          { 
....................             return atan(z); 
....................             break; 
....................          } 
....................          case 2: 
....................          { 
.................... //            return (atan(z)+PI_DIV_BY_TWO);  //2L3122 
....................             return (PI-atan(z)); 
....................             break; 
....................          } 
....................          case 3: 
....................          { 
....................             return (atan(z)-PI); 
....................             break; 
....................          } 
....................          case 4: 
....................          { 
....................             return (-atan(z)); 
....................             break; 
....................          } 
....................       } 
....................    } 
.................... } 
....................  
.................... //Overloaded functions for atan2() for PCD 
.................... // Overloaded function atan2() for data type - Float48 
.................... #if defined(__PCD__) 
.................... float48 atan2(float48 y,float48 x) 
.................... { 
....................    float48 z; 
....................    int1 sign; 
....................    unsigned int8 quad; 
....................    sign=0; 
....................    quad=0; //quadrant 
....................    quad=((y<=0.0)?((x<=0.0)?3:4):((x<0.0)?2:1)); 
....................    if(y<0.0) 
....................    { 
....................       sign=1; 
....................       y=-y; 
....................    } 
....................    if(x<0.0) 
....................    { 
....................       x=-x; 
....................    } 
....................    if (x==0.0) 
....................    { 
....................       if(y==0.0) 
....................       { 
....................       #ifdef _ERRNO 
....................       { 
....................          errno=EDOM; 
....................       } 
....................       #endif 
....................       } 
....................       else 
....................       { 
....................          if(sign) 
....................          { 
....................          return (-(PI_DIV_BY_TWO)); 
....................          } 
....................          else 
....................          { 
....................          return (PI_DIV_BY_TWO); 
....................          } 
....................       } 
....................    } 
....................    else 
....................    { 
....................       z=y/x; 
....................       switch(quad) 
....................       { 
....................          case 1: 
....................          { 
....................             return atan(z); 
....................             break; 
....................          } 
....................          case 2: 
....................          { 
.................... //            return (atan(z)+PI_DIV_BY_TWO);  //2L3122 
....................             return (PI-atan(z)); 
....................             break; 
....................          } 
....................          case 3: 
....................          { 
....................             return (atan(z)-PI); 
....................             break; 
....................          } 
....................          case 4: 
....................          { 
....................             return (-atan(z)); 
....................             break; 
....................          } 
....................       } 
....................    } 
.................... } 
....................  
.................... // Overloaded function atan2() for data type - Float64 
.................... float64 atan2(float64 y,float64 x) 
.................... { 
....................    float64 z; 
....................    int1 sign; 
....................    unsigned int8 quad; 
....................    sign=0; 
....................    quad=0; //quadrant 
....................    quad=((y<=0.0)?((x<=0.0)?3:4):((x<0.0)?2:1)); 
....................    if(y<0.0) 
....................    { 
....................       sign=1; 
....................       y=-y; 
....................    } 
....................    if(x<0.0) 
....................    { 
....................       x=-x; 
....................    } 
....................    if (x==0.0) 
....................    { 
....................       if(y==0.0) 
....................       { 
....................       #ifdef _ERRNO 
....................       { 
....................          errno=EDOM; 
....................       } 
....................       #endif 
....................       } 
....................       else 
....................       { 
....................          if(sign) 
....................          { 
....................          return (-(PI_DIV_BY_TWO)); 
....................          } 
....................          else 
....................          { 
....................          return (PI_DIV_BY_TWO); 
....................          } 
....................       } 
....................    } 
....................    else 
....................    { 
....................       z=y/x; 
....................       switch(quad) 
....................       { 
....................          case 1: 
....................          { 
....................             return atan(z); 
....................             break; 
....................          } 
....................          case 2: 
....................          { 
.................... //            return (atan(z)+PI_DIV_BY_TWO);  //2L3122 
....................             return (PI-atan(z)); 
....................             break; 
....................          } 
....................          case 3: 
....................          { 
....................             return (atan(z)-PI); 
....................             break; 
....................          } 
....................          case 4: 
....................          { 
....................             return (-atan(z)); 
....................             break; 
....................          } 
....................       } 
....................    } 
.................... } 
.................... #endif 
....................  
.................... //////////////////// Hyperbolic functions //////////////////// 
....................  
.................... //////////////////////////////////////////////////////////////////////////// 
.................... //   float cosh(float x) 
.................... //////////////////////////////////////////////////////////////////////////// 
.................... // Description : Computes the hyperbolic cosine value of x 
.................... // Returns : returns the hyperbolic cosine value of x 
.................... // Date : N/A 
.................... // 
....................  
.................... float32 cosh(float32 x) 
.................... { 
....................    return ((exp(x)+exp(-x))*0.5); 
.................... } 
.................... //Overloaded functions for cosh() for PCD 
.................... // Overloaded function cosh() for data type - Float48 
.................... #if defined(__PCD__) 
.................... float48 cosh(float48 x) 
.................... { 
....................    return ((exp(x)+exp(-x))*0.5); 
.................... } 
....................  
.................... // Overloaded function cosh() for data type - Float64 
.................... float64 cosh(float64 x) 
.................... { 
....................    return ((exp(x)+exp(-x))*0.5); 
.................... } 
.................... #endif 
....................  
.................... //////////////////////////////////////////////////////////////////////////// 
.................... //   float sinh(float x) 
.................... //////////////////////////////////////////////////////////////////////////// 
.................... // Description : Computes the hyperbolic sine value of x 
.................... // Returns : returns the hyperbolic sine value of x 
.................... // Date : N/A 
.................... // 
....................  
.................... float32 sinh(float32 x) 
.................... { 
....................  
....................    return ((exp(x) - exp(-x))*0.5); 
.................... } 
.................... //Overloaded functions for sinh() for PCD 
.................... // Overloaded function sinh() for data type - Float48 
.................... #if defined(__PCD__) 
.................... float48 sinh(float48 x) 
.................... { 
....................  
....................    return ((exp(x) - exp(-x))*0.5); 
.................... } 
....................  
.................... // Overloaded function sinh() for data type - Float48 
.................... float64 sinh(float64 x) 
.................... { 
....................  
....................    return ((exp(x) - exp(-x))*0.5); 
.................... } 
.................... #endif 
....................  
.................... //////////////////////////////////////////////////////////////////////////// 
.................... //   float tanh(float x) 
.................... //////////////////////////////////////////////////////////////////////////// 
.................... // Description : Computes the hyperbolic tangent value of x 
.................... // Returns : returns the hyperbolic tangent value of x 
.................... // Date : N/A 
.................... // 
....................  
.................... float32 tanh(float32 x) 
.................... { 
....................    return(sinh(x)/cosh(x)); 
.................... } 
.................... //Overloaded functions for tanh() for PCD 
.................... // Overloaded function tanh() for data type - Float48 
.................... #if defined(__PCD__) 
.................... float48 tanh(float48 x) 
.................... { 
....................    return(sinh(x)/cosh(x)); 
.................... } 
....................  
.................... // Overloaded function tanh() for data type - Float64 
.................... float64 tanh(float64 x) 
.................... { 
....................    return(sinh(x)/cosh(x)); 
.................... } 
.................... #endif 
....................  
.................... //////////////////////////////////////////////////////////////////////////// 
.................... //   float frexp(float x, signed int *exp) 
.................... //////////////////////////////////////////////////////////////////////////// 
.................... // Description : breaks a floating point number into a normalized fraction and an integral 
.................... // power of 2. It stores the integer in the signed int object pointed to by exp. 
.................... // Returns : returns the value x, such that x is a double with magnitude in the interval 
.................... // [1/2,1) or zero, and value equals x times 2 raised to the power *exp.If value is zero, 
.................... // both parts of the result are zero. 
.................... // Date : N/A 
.................... // 
....................  
.................... #define LOG2 .30102999566398119521 
.................... #define LOG2_INV 3.32192809488736234787 
.................... float32 frexp(float32 x, signed int8 *exp) 
.................... { 
....................    float32 res; 
....................    int1 sign = 0; 
....................    if(x == 0.0) 
....................    { 
....................       *exp=0; 
....................       return (0.0); 
....................    } 
....................    if(x < 0.0) 
....................    { 
....................      x=-x; 
....................      sign=1; 
....................    } 
....................    if (x > 1.0) 
....................    { 
....................       *exp=(ceil(log10(x)*LOG2_INV)); 
....................       res=x/(pow(2, *exp)); 
....................       if (res == 1) 
....................       { 
....................          *exp=*exp+1; 
....................           res=.5; 
....................       } 
....................    } 
....................    else 
....................    { 
....................       if(x < 0.5) 
....................       { 
....................          *exp=-1; 
....................          res=x*2; 
....................       } 
....................       else 
....................       { 
....................          *exp=0; 
....................           res=x; 
....................       } 
....................    } 
....................    if(sign) 
....................    { 
....................       res=-res; 
....................    } 
....................    return res; 
.................... } 
....................  
.................... //Overloaded functions for frexp() for PCD 
.................... // Overloaded function frexp() for data type - Float48 
.................... #if defined(__PCD__) 
.................... float48 frexp(float48 x, signed int8 *exp) 
.................... { 
....................    float48 res; 
....................    int1 sign = 0; 
....................    if(x == 0.0) 
....................    { 
....................       *exp=0; 
....................       return (0.0); 
....................    } 
....................    if(x < 0.0) 
....................    { 
....................      x=-x; 
....................      sign=1; 
....................    } 
....................    if (x > 1.0) 
....................    { 
....................       *exp=(ceil(log10(x)*LOG2_INV)); 
....................       res=x/(pow(2, *exp)); 
....................       if (res == 1) 
....................       { 
....................          *exp=*exp+1; 
....................           res=.5; 
....................       } 
....................    } 
....................    else 
....................    { 
....................       if(x < 0.5) 
....................       { 
....................          *exp=-1; 
....................          res=x*2; 
....................       } 
....................       else 
....................       { 
....................          *exp=0; 
....................           res=x; 
....................       } 
....................    } 
....................    if(sign) 
....................    { 
....................       res=-res; 
....................    } 
....................    return res; 
.................... } 
....................  
.................... // Overloaded function frexp() for data type - Float64 
.................... float64 frexp(float64 x, signed int8 *exp) 
.................... { 
....................    float64 res; 
....................    int1 sign = 0; 
....................    if(x == 0.0) 
....................    { 
....................       *exp=0; 
....................       return (0.0); 
....................    } 
....................    if(x < 0.0) 
....................    { 
....................      x=-x; 
....................      sign=1; 
....................    } 
....................    if (x > 1.0) 
....................    { 
....................       *exp=(ceil(log10(x)*LOG2_INV)); 
....................       res=x/(pow(2, *exp)); 
....................       if (res == 1) 
....................       { 
....................          *exp=*exp+1; 
....................           res=.5; 
....................       } 
....................    } 
....................    else 
....................    { 
....................       if(x < 0.5) 
....................       { 
....................          *exp=-1; 
....................          res=x*2; 
....................       } 
....................       else 
....................       { 
....................          *exp=0; 
....................           res=x; 
....................       } 
....................    } 
....................    if(sign) 
....................    { 
....................       res=-res; 
....................    } 
....................    return res; 
.................... } 
.................... #endif 
....................  
.................... ////////////////////////////////////////////////////////////////////////////// 
.................... //   float ldexp(float x, signed int *exp) 
.................... ////////////////////////////////////////////////////////////////////////////// 
.................... // Description : multiplies a floating point number by an integral power of 2. 
.................... // Returns : returns the value of x times 2 raised to the power exp. 
.................... // Date : N/A 
.................... // 
....................  
.................... float32 ldexp(float32 value, signed int8 exp) 
.................... { 
....................    return (value * pow(2,exp)); 
.................... } 
.................... //Overloaded functions for ldexp() for PCD 
.................... // Overloaded function ldexp() for data type - Float48 
....................  
.................... #if defined(__PCD__) 
.................... float48 ldexp(float48 value, signed int8 exp) 
.................... { 
....................    return (value * pow(2,exp)); 
.................... } 
.................... // Overloaded function ldexp() for data type - Float64 
.................... float64 ldexp(float64 value, signed int8 exp) 
.................... { 
....................    return (value * pow(2,exp)); 
.................... } 
.................... #endif 
....................  
.................... #endif 
....................  
....................  
.................... #include <tv_03_32led_don.c>  
.................... //xxxxxxxxxxxxxxxxxxxxxxxxxxxxxxxxxxxxxxxxxxxxxxxxxxxxxxxx 
.................... //NGUYEN DINH PHU SU PHAM KY THUAT TP HCM 
.................... //xxxxxxxxxxxxxxxxxxxxxxxxxxxxxxxxxxxxxxxxxxxxxxxxxxxxxxxx 
.................... //xxxxxxxxxxxxxxxxxxxxxxxxxxxxxxxxxxxxxxxxxxxxxxxxxxxxxxxx 
.................... //ham 301: chuong trinh con xuat 4 byte ra 32 led don 
.................... //xxxxxxxxxxxxxxxxxxxxxxxxxxxxxxxxxxxxxxxxxxxxxxxxxxxxxxxx 
.................... void xuat_32led_don_4byte(usi8 bld3,bld2,bld1,bld0) 
.................... {      
....................    xuat_1byte(bld3);  xuat_1byte(bld2); 
....................    xuat_1byte(bld1);  xuat_1byte(bld0);             
....................                       
....................    output_high(rck_32led);     
....................    output_low(rck_32led);       
.................... } 
.................... //xxxxxxxxxxxxxxxxxxxxxxxxxxxxxxxxxxxxxxxxxxxxxxxxxxxxxxxx 
.................... //ham 302: chuong trinh con xuat 2 word 16 bitra 32 led don 
.................... //xxxxxxxxxxxxxxxxxxxxxxxxxxxxxxxxxxxxxxxxxxxxxxxxxxxxxxxx 
.................... void xuat_32led_don_2word(usi16 wld1,usi16 wld0) 
.................... {      
....................    unsigned int8  b3,b2,b1,b0; 
....................    b3 = wld1>>8;  b2 = wld1;  
....................    b1 = wld0>>8;  b0 = wld0; 
....................    xuat_32led_don_4byte(b3,b2,b1,b0); 
.................... } 
.................... //xxxxxxxxxxxxxxxxxxxxxxxxxxxxxxxxxxxxxxxxxxxxxxxxxxxxxxxx 
.................... //ham 303: chuong trinh con xuat 1 double word ra 32 led don 
.................... //xxxxxxxxxxxxxxxxxxxxxxxxxxxxxxxxxxxxxxxxxxxxxxxxxxxxxxxx 
.................... void xuat_32led_don_1dw(usi32 dwld) 
.................... {      
....................    unsigned int16  wd1,wd0; 
....................    wd1 = dwld>>16;  wd0 = dwld; 
....................    xuat_32led_don_2word(wd1,wd0); 
.................... } 
.................... //xxxxxxxxxxxxxxxxxxxxxxxxxxxxxxxxxxxxxxxxxxxxxxxxxxxxxxxx 
.................... //ham 304: chuong trinh con xuat 1 byte ra 32 led don 
.................... //xxxxxxxxxxxxxxxxxxxxxxxxxxxxxxxxxxxxxxxxxxxxxxxxxxxxxxxx 
.................... void xuat_32led_don_1byte(usi8 b0) 
.................... {      
....................    xuat_32led_don_4byte(0,0,0,b0); 
.................... }   
....................  
.................... #include <tv_04_4led_7doan.c>  
.................... //xxxxxxxxxxxxxxxxxxxxxxxxxxxxxxxxxxxxxxxxxxxxxxxxxxxxxxxx 
.................... //NGUYEN DINH PHU SU PHAM KY THUAT TP HCM 
.................... //xxxxxxxxxxxxxxxxxxxxxxxxxxxxxxxxxxxxxxxxxxxxxxxxxxxxxxxx 
....................  
.................... //xxxxxxxxxxxxxxxxxxxxxxxxxxxxxxxxxxxxxxxxxxxxxxxxxxxxxxxx 
.................... //khai bao mang va dnh nghia cac bien cho module 4led 7 doan 
.................... //xxxxxxxxxxxxxxxxxxxxxxxxxxxxxxxxxxxxxxxxxxxxxxxxxxxxxxxx 
.................... unsigned int8 dl_4l7d[4]= {0xff,0xff,0xff,0xff}; 
.................... #define ngan4  dl_4l7d[0] 
.................... #define tram4  dl_4l7d[1] 
.................... #define chuc4  dl_4l7d[2] 
.................... #define donvi4 dl_4l7d[3]             
....................                                            
.................... #define l7d_43 dl_4l7d[0] 
.................... #define l7d_42 dl_4l7d[1] 
.................... #define l7d_41 dl_4l7d[2] 
.................... #define l7d_40 dl_4l7d[3]             
.................... //xxxxxxxxxxxxxxxxxxxxxxxxxxxxxxxxxxxxxxxxxxxxxxxxxxxxxxxx 
.................... //ham 401: xuat 4 byte ra 4 led 7 doan 
.................... //xxxxxxxxxxxxxxxxxxxxxxxxxxxxxxxxxxxxxxxxxxxxxxxxxxxxxxxx 
.................... void xuat_4led_7doan_4so() 
.................... {                                                                   
....................    xuat_1byte(dl_4l7d[3]);    
....................    xuat_1byte(dl_4l7d[2]); 
....................    xuat_1byte(dl_4l7d[1]);    
....................    xuat_1byte(dl_4l7d[0]); 
....................                                     
....................    output_low(rck_4l7d);    
....................    output_high(rck_4l7d); 
.................... }                                                   
.................... //xxxxxxxxxxxxxxxxxxxxxxxxxxxxxxxxxxxxxxxxxxxxxxxxxxxxxxxx 
.................... //ham 402: giai ma so x 2 so, luu o led thu y, tuy chon xoa vn 
.................... //xxxxxxxxxxxxxxxxxxxxxxxxxxxxxxxxxxxxxxxxxxxxxxxxxxxxxxxx 
.................... void md4l7d_giaima_2so_vitri_vn(usi8 x,y, int1 xvn) 
.................... {                                         
....................    dl_4l7d[y]   = ma7doan[x%10];        
....................    dl_4l7d[y-1] = ma7doan[x/10%10];               
....................    if(xvn==true)                                                    
....................    {                                                            
....................       if(dl_4l7d[y-1]==maso0) dl_4l7d[y-1]=0xff;                                  
....................    }                                                       
.................... }  
.................... //xxxxxxxxxxxxxxxxxxxxxxxxxxxxxxxxxxxxxxxxxxxxxxxxxxxxxxxx 
.................... //ham 403: giai ma so x 3 so, luu o led thu y, tuy chon xoa vn 
.................... //xxxxxxxxxxxxxxxxxxxxxxxxxxxxxxxxxxxxxxxxxxxxxxxxxxxxxxxx   
.................... void md4l7d_giaima_3so_vitri_vn(usi16 x, usi8 y, int1 xvn) 
.................... {                                         
....................    dl_4l7d[y]   = ma7doan[x%10];        
....................    dl_4l7d[y-1] = ma7doan[x/10%10]; 
....................    dl_4l7d[y-2] = ma7doan[x/100%10]; 
....................    if(xvn==true)          
....................    { 
....................       if(dl_4l7d[y-2]==maso0) 
....................       {                                
....................          dl_4l7d[y-2]=0xff; 
....................          if(dl_4l7d[y-1]==maso0) dl_4l7d[y-1]=0xff; 
....................       } 
....................    }             
.................... } 
.................... //xxxxxxxxxxxxxxxxxxxxxxxxxxxxxxxxxxxxxxxxxxxxxxxxxxxxxxxx 
.................... //ham 404: giai ma so x 4 so, luu o led thu y, tuy chon xoa vn 
.................... //xxxxxxxxxxxxxxxxxxxxxxxxxxxxxxxxxxxxxxxxxxxxxxxxxxxxxxxx 
.................... void md4l7d_giaima_4so_vitri_vn(usi16 x, usi8 y, int1 xvn) 
.................... {                                         
....................    dl_4l7d[y]   = ma7doan[x%10];        
....................    dl_4l7d[y-1] = ma7doan[x/10%10]; 
....................    dl_4l7d[y-2] = ma7doan[x/100%10]; 
....................    dl_4l7d[y-3] = ma7doan[x/1000%10]; 
....................    if(xvn==true)                                   
....................    { 
....................       if(dl_4l7d[y-3]==maso0)  
....................       {                        
....................          dl_4l7d[y-3]=0xff; 
....................          if(dl_4l7d[y-2]==maso0)  
....................          { 
....................             dl_4l7d[y-2]=0xff;  
....................             if(dl_4l7d[y-1]==maso0) dl_4l7d[y-1]=0xff;    
....................          } 
....................       }                         
....................    }           
.................... }   
.................... //xxxxxxxxxxxxxxxxxxxxxxxxxxxxxxxxxxxxxxxxxxxxxxxxxxxxxxxx 
.................... //ham 405: giai ma so x 2 so, luu o led thu y, tuy chon xoa vn 
.................... //xxxxxxxxxxxxxxxxxxxxxxxxxxxxxxxxxxxxxxxxxxxxxxxxxxxxxxxx 
.................... void md4l7d_gma_so_bcd_vitri_vn(usi8 x,y, int1 xvn) 
.................... {                                         
....................    dl_4l7d[y]   = ma7doan[x%16];        
....................    dl_4l7d[y-1] = ma7doan[x/16];               
....................    if(xvn==true)                                                    
....................    {                                                            
....................       if(dl_4l7d[y-1]==maso0) dl_4l7d[y-1]=0xff;                                  
....................    }                                                       
.................... }  
.................... //xxxxxxxxxxxxxxxxxxxxxxxxxxxxxxxxxxxxxxxxxxxxxxxxxxxxxxxx 
.................... //ham 406: hien thi du lieu 2byte tren 4 led 7 doan 
.................... //xxxxxxxxxxxxxxxxxxxxxxxxxxxxxxxxxxxxxxxxxxxxxxxxxxxxxxxx 
.................... void xuat_4led_7doan_2so_4led (unsigned int8 bh,bl) 
.................... {          
....................    dl_4l7d[3] = ma7doan[bh/10%10]; 
....................    dl_4l7d[2] = ma7doan[bh%10];   
....................    dl_4l7d[1] = ma7doan[bl/10%10]; 
....................    dl_4l7d[0] = ma7doan[bl%10];  
....................    xuat_4led_7doan_4so(); 
.................... }                                  
....................  
.................... #include <tv_05_8led_7doan_quet.c>  
.................... //xxxxxxxxxxxxxxxxxxxxxxxxxxxxxxxxxxxxxxxxxxxxxxxxxxxxxxxx 
.................... //NGUYEN DINH PHU SU PHAM KY THUAT TP HCM 
.................... //xxxxxxxxxxxxxxxxxxxxxxxxxxxxxxxxxxxxxxxxxxxxxxxxxxxxxxxx 
.................... //xxxxxxxxxxxxxxxxxxxxxxxxxxxxxxxxxxxxxxxxxxxxxxxxxxxxxxxx 
.................... //ham 501: hien thi led theo thu tu 
.................... //xxxxxxxxxxxxxxxxxxxxxxxxxxxxxxxxxxxxxxxxxxxxxxxxxxxxxxxx 
.................... const unsigned int8 ma_quet[9]=  
....................    {0x7f,0xbf,0xdf,0xef,0xf7,0xfb,0xfd,0xfe,0xff};    
....................  
.................... void xuat_8led_7doan_quet(usi8 ttq,mht) 
.................... {                                                        
....................    xuat_1byte(~(ma_quet[ttq]));    
....................    xuat_1byte(~mht); 
....................  
....................    output_high(rck_8l7dq);  
....................    output_low(rck_8l7dq); 
.................... }                        
.................... //xxxxxxxxxxxxxxxxxxxxxxxxxxxxxxxxxxxxxxxxxxxxxxxxxxxxxxxx 
.................... //ham 502: xuat 2 byte ra tat 8 led quet 
.................... //xxxxxxxxxxxxxxxxxxxxxxxxxxxxxxxxxxxxxxxxxxxxxxxxxxxxxxxx 
.................... void tat_8led_7doan_quet() 
.................... { 
....................    xuat_8led_7doan_quet(8,0xff); 
.................... } 
.................... //xxxxxxxxxxxxxxxxxxxxxxxxxxxxxxxxxxxxxxxxxxxxxxxxxxxxxxxx 
.................... //ham 503: hien thi 8 so tren 8 led quet - khong kiem tra 
.................... //xxxxxxxxxxxxxxxxxxxxxxxxxxxxxxxxxxxxxxxxxxxxxxxxxxxxxxxx 
.................... unsigned int8 dl_8l7dq[8]={0xff,0xff,0xff,0xff,0xff,0xff,0xff,0xff}; 
....................                                                                 
.................... void hien_thi_8led_7doan_quet() 
.................... {      
....................    unsigned int8 ttl=0;                                       
....................    for(ttl=0;ttl<8;ttl++)          
....................    {              
....................       xuat_8led_7doan_quet(ttl,dl_8l7dq[ttl]); 
....................       delay_ms(1);   
....................       tat_8led_7doan_quet();                              
....................    } 
.................... }                                              
.................... //xxxxxxxxxxxxxxxxxxxxxxxxxxxxxxxxxxxxxxxxxxxxxxxxxxxxxxxx 
.................... //ham 504: giai ma 2 so x, vi tri y, tuy chon xoa vn 
.................... //xxxxxxxxxxxxxxxxxxxxxxxxxxxxxxxxxxxxxxxxxxxxxxxxxxxxxxxx 
.................... void md8l7d_gma_2so_vitri_vn(usi8 x,y,int1 xvn) 
.................... {                                         
....................    dl_8l7dq[y]   = ma7doan[x%10];        
....................    dl_8l7dq[y+1] = ma7doan[x/10%10];               
....................    if(xvn==true)                                                    
....................    {                                                            
....................       if(dl_8l7dq[y+1]==maso0) dl_8l7dq[y+1]=0xff;                                  
....................    }                                                       
.................... }   
.................... //xxxxxxxxxxxxxxxxxxxxxxxxxxxxxxxxxxxxxxxxxxxxxxxxxxxxxxxx 
.................... //ham 505: giai ma 3 so x, vi tri y, tuy chon xoa vn 
.................... //xxxxxxxxxxxxxxxxxxxxxxxxxxxxxxxxxxxxxxxxxxxxxxxxxxxxxxxx 
.................... void md8l7d_gma_3so_vitri_vn(usi16 x,usi8 y,int1 xvn) 
.................... {                                         
....................    dl_8l7dq[y]   = ma7doan[x%10];        
....................    dl_8l7dq[y+1] = ma7doan[x/10%10]; 
....................    dl_8l7dq[y+2] = ma7doan[x/100%10]; 
....................    if(xvn==true)          
....................    {        
....................       if(dl_8l7dq[y+2]==maso0) 
....................       {                                
....................          dl_8l7dq[y+2]=0xff; 
....................          if(dl_8l7dq[y+1]==maso0) dl_8l7dq[y+1]=0xff; 
....................       } 
....................    }             
.................... }  
.................... //xxxxxxxxxxxxxxxxxxxxxxxxxxxxxxxxxxxxxxxxxxxxxxxxxxxxxxxx 
.................... //ham 506: giai ma 4 so x, vi tri y, tuy chon xoa vn 
.................... //xxxxxxxxxxxxxxxxxxxxxxxxxxxxxxxxxxxxxxxxxxxxxxxxxxxxxxxx 
.................... void md8l7d_gma_4so_vitri_vn(usi16 x,usi8 y,int1 xvn) 
.................... {                                         
....................    dl_8l7dq[y]   = ma7doan[x%10];        
....................    dl_8l7dq[y+1] = ma7doan[x/10%10]; 
....................    dl_8l7dq[y+2] = ma7doan[x/100%10]; 
....................    dl_8l7dq[y+3] = ma7doan[x/1000%10]; 
....................    if(xvn==true)                                   
....................    { 
....................       if(dl_8l7dq[y+3]==maso0)  
....................       { 
....................          dl_8l7dq[y+3]=0xff; 
....................          if(dl_8l7dq[y+2]==maso0)  
....................          { 
....................             dl_8l7dq[y+2]=0xff;  
....................             if(dl_8l7dq[y+1]==maso0) dl_8l7dq[y+1]=0xff;    
....................          } 
....................       }                         
....................    }           
.................... }    
.................... //xxxxxxxxxxxxxxxxxxxxxxxxxxxxxxxxxxxxxxxxxxxxxxxxxxxxxxxx 
.................... //ham 507: giai ma 2 so bcd x, tai vi tri y, xoa vn: y/n 
.................... //xxxxxxxxxxxxxxxxxxxxxxxxxxxxxxxxxxxxxxxxxxxxxxxxxxxxxxxx 
.................... void md8l7d_gma_so_bcd_vitri_vn(usi8 x,y,int1 xvn) 
.................... {                                         
....................    dl_8l7dq[y]   = ma7doan[x%16];        
....................    dl_8l7dq[y+1] = ma7doan[x/16];               
....................    if(xvn==true)                                                    
....................    {                                                            
....................       if(dl_8l7dq[y+1]==maso0) dl_8l7dq[y+1]=0xff;                                  
....................    }    
.................... }                
.................... //xxxxxxxxxxxxxxxxxxxxxxxxxxxxxxxxxxxxxxxxxxxxxxxxxxxxxxxx 
.................... //ham 508: hien thi 8 so tren 8 led quet voi so lan dl 
.................... //xxxxxxxxxxxxxxxxxxxxxxxxxxxxxxxxxxxxxxxxxxxxxxxxxxxxxxxx 
.................... void delay_quet_8led(unsigned int16 dl) 
.................... {                                 
....................    unsigned int16 i;            
....................    for(i=0;i<dl;i++) 
....................    hien_thi_8led_7doan_quet();         
.................... }  
....................  
.................... #include <tv_05_i2c_ds13_pcf.c> 
.................... //xxxxxxxxxxxxxxxxxxxxxxxxxxxxxxxxxxxxxxxxxxxxxxxxxxxxxxxx 
.................... //NGUYEN DINH PHU SU PHAM KY THUAT TP HCM 
.................... //xxxxxxxxxxxxxxxxxxxxxxxxxxxxxxxxxxxxxxxxxxxxxxxxxxxxxxxx 
.................... //xxxxxxxxxxxxxxxxxxxxxxxxxxxxxxxxxxxxxxxxxxxxxxxxxxxxxxxx 
.................... //dinh nghia dia chi ghi va dia chi doc ds1307 
.................... //xxxxxxxxxxxxxxxxxxxxxxxxxxxxxxxxxxxxxxxxxxxxxxxxxxxxxxxx                     
.................... #define ds13_addr_wr 0xd0 
.................... #define ds13_addr_rd 0xd1 
....................  
.................... //xxxxxxxxxxxxxxxxxxxxxxxxxxxxxxxxxxxxxxxxxxxxxxxxxxxxxxxx   
.................... //khai bao 2 mang:  
.................... //mang ghi: giay-phut-gio-thu-ngay-thang-nam-madk_msds   
.................... //mang doc: giay-phut-gio-thu-ngay-thang-nam-madk_msds   
.................... //xxxxxxxxxxxxxxxxxxxxxxxxxxxxxxxxxxxxxxxxxxxxxxxxxxxxxxxx       
.................... usi8 time_w[9]={0x30,0x37,0x08,0x07,0x04,0x06,0x22,0x90,0x95};   
.................... usi8 time_r[9]={0x30,0x30,0x10,0x08,0x20,0x02,0x20,0x90,0x96}; 
.................... #define giay_ds  time_r[0]               
.................... #define phut_ds  time_r[1]                   
.................... #define gio_ds   time_r[2] 
.................... #define thu_ds   time_r[3] 
.................... #define ngay_ds  time_r[4] 
.................... #define thang_ds time_r[5]                   
.................... #define nam_ds   time_r[6] 
....................  
.................... #define ma_qd   time_w[8]  
.................... #define ma_ds   time_r[8]                                        
.................... //xxxxxxxxxxxxxxxxxxxxxxxxxxxxxxxxxxxxxxxxxxxxxxxxxxxxxxxx   
.................... //cap nhat time: giay-phut-gio-thu-ngay-thang-nam-madk_msds   
.................... //xxxxxxxxxxxxxxxxxxxxxxxxxxxxxxxxxxxxxxxxxxxxxxxxxxxxxxxx  
.................... void ds1307_cap_nhat_time(int1 sel)                  
.................... {          
....................    usi8 i;    
....................    i2c_start(); 
*
073E:  BSF    F93.0
0740:  MOVLW  05
0742:  MOVWF  00
0744:  DECFSZ 00,F
0746:  BRA    0744
0748:  BSF    F93.1
074A:  MOVLW  06
074C:  MOVWF  00
074E:  DECFSZ 00,F
0750:  BRA    074E
0752:  BCF    F8A.0
0754:  BCF    F93.0
0756:  MOVLW  05
0758:  MOVWF  00
075A:  DECFSZ 00,F
075C:  BRA    075A
075E:  BCF    F8A.1
0760:  BCF    F93.1
....................    i2c_write(ds13_addr_wr);         
0762:  MOVLW  D0
0764:  MOVLB  4
0766:  MOVWF  xB1
0768:  MOVLB  0
076A:  RCALL  05A0
....................    i2c_write(0x00);     
076C:  MOVLB  4
076E:  CLRF   xB1
0770:  MOVLB  0
0772:  RCALL  05A0
....................    for(i=0;i<9;i++)                           
0774:  MOVLB  4
0776:  CLRF   xAF
0778:  MOVF   xAF,W
077A:  SUBLW  08
077C:  BNC   07C0
....................    {   
....................       if(sel)  i2c_write(time_w[i]); 
077E:  MOVF   xAE,F
0780:  BZ    07A0
0782:  CLRF   03
0784:  MOVF   xAF,W
0786:  ADDLW  14
0788:  MOVWF  FE9
078A:  MOVLW  00
078C:  ADDWFC 03,W
078E:  MOVWF  FEA
0790:  MOVFF  FEF,4B0
0794:  MOVFF  4B0,4B1
0798:  MOVLB  0
079A:  RCALL  05A0
079C:  BRA    07BA
079E:  MOVLB  4
....................       else     i2c_write(time_r[i]); 
07A0:  CLRF   03
07A2:  MOVF   xAF,W
07A4:  ADDLW  1D
07A6:  MOVWF  FE9
07A8:  MOVLW  00
07AA:  ADDWFC 03,W
07AC:  MOVWF  FEA
07AE:  MOVFF  FEF,4B0
07B2:  MOVFF  4B0,4B1
07B6:  MOVLB  0
07B8:  RCALL  05A0
07BA:  MOVLB  4
07BC:  INCF   xAF,F
07BE:  BRA    0778
....................    }                                  
....................    i2c_stop();         
07C0:  BCF    F93.0
07C2:  NOP   
07C4:  BSF    F93.1
07C6:  BTFSS  F81.1
07C8:  BRA    07C6
07CA:  MOVLW  05
07CC:  MOVWF  00
07CE:  DECFSZ 00,F
07D0:  BRA    07CE
07D2:  BRA    07D4
07D4:  NOP   
07D6:  BSF    F93.0
07D8:  MOVLW  05
07DA:  MOVWF  00
07DC:  DECFSZ 00,F
07DE:  BRA    07DC
07E0:  MOVLB  0
07E2:  GOTO   0800 (RETURN)
.................... }                       
.................... //xxxxxxxxxxxxxxxxxxxxxxxxxxxxxxxxxxxxxxxxxxxxxxxxxxxxxxxx   
.................... //doc thoi gian    
.................... //xxxxxxxxxxxxxxxxxxxxxxxxxxxxxxxxxxxxxxxxxxxxxxxxxxxxxxxx                              
.................... void ds1307_doc_time(usi8 j)      
.................... {    
....................    usi8 i;  
....................    i2c_start(); 
*
0680:  BSF    F93.0
0682:  MOVLW  05
0684:  MOVWF  00
0686:  DECFSZ 00,F
0688:  BRA    0686
068A:  BSF    F93.1
068C:  MOVLW  06
068E:  MOVWF  00
0690:  DECFSZ 00,F
0692:  BRA    0690
0694:  BCF    F8A.0
0696:  BCF    F93.0
0698:  MOVLW  05
069A:  MOVWF  00
069C:  DECFSZ 00,F
069E:  BRA    069C
06A0:  BCF    F8A.1
06A2:  BCF    F93.1
....................    i2c_write(ds13_addr_wr); 
06A4:  MOVLW  D0
06A6:  MOVLB  4
06A8:  MOVWF  xB1
06AA:  MOVLB  0
06AC:  RCALL  05A0
....................    i2c_write(0x00);                      
06AE:  MOVLB  4
06B0:  CLRF   xB1
06B2:  MOVLB  0
06B4:  RCALL  05A0
....................    i2c_start();                 
06B6:  BSF    F93.0
06B8:  MOVLW  05
06BA:  MOVWF  00
06BC:  DECFSZ 00,F
06BE:  BRA    06BC
06C0:  BSF    F93.1
06C2:  MOVLW  06
06C4:  MOVWF  00
06C6:  DECFSZ 00,F
06C8:  BRA    06C6
06CA:  BTFSS  F81.1
06CC:  BRA    06CA
06CE:  BCF    F8A.0
06D0:  BCF    F93.0
06D2:  MOVLW  05
06D4:  MOVWF  00
06D6:  DECFSZ 00,F
06D8:  BRA    06D6
06DA:  BCF    F8A.1
06DC:  BCF    F93.1
....................                  
....................    i2c_write(ds13_addr_rd); 
06DE:  MOVLW  D1
06E0:  MOVLB  4
06E2:  MOVWF  xB1
06E4:  MOVLB  0
06E6:  RCALL  05A0
....................    for(i=0;i<j;i++) time_r[i]=i2c_read();   
06E8:  MOVLB  4
06EA:  CLRF   xAF
06EC:  MOVF   xAE,W
06EE:  SUBWF  xAF,W
06F0:  BC    0712
06F2:  CLRF   03
06F4:  MOVF   xAF,W
06F6:  ADDLW  1D
06F8:  MOVWF  FE9
06FA:  MOVLW  00
06FC:  ADDWFC 03,W
06FE:  MOVWF  FEA
0700:  MOVLW  01
0702:  MOVWF  00
0704:  MOVLB  0
0706:  RCALL  0616
0708:  MOVFF  01,FEF
070C:  MOVLB  4
070E:  INCF   xAF,F
0710:  BRA    06EC
....................                                   
....................    i = i2c_read(0); //not ack, don't care i   
0712:  CLRF   00
0714:  MOVLB  0
0716:  RCALL  0616
0718:  MOVFF  01,4AF
....................    i2c_stop(); 
071C:  BCF    F93.0
071E:  NOP   
0720:  BSF    F93.1
0722:  BTFSS  F81.1
0724:  BRA    0722
0726:  MOVLW  05
0728:  MOVWF  00
072A:  DECFSZ 00,F
072C:  BRA    072A
072E:  BRA    0730
0730:  NOP   
0732:  BSF    F93.0
0734:  MOVLW  05
0736:  MOVWF  00
0738:  DECFSZ 00,F
073A:  BRA    0738
073C:  RETURN 0
.................... }                                                                        
.................... //xxxxxxxxxxxxxxxxxxxxxxxxxxxxxxxxxxxxxxxxxxxxxxxxxxxxxxxx   
.................... //kiem tra ma da luu: sai thi cap nhat, dung thi thoat 
.................... //xxxxxxxxxxxxxxxxxxxxxxxxxxxxxxxxxxxxxxxxxxxxxxxxxxxxxxxx            
.................... void ds1307_kiem_tra_ma()                                
.................... {                                               
....................    ds1307_doc_time(9);           
*
07E6:  MOVLW  09
07E8:  MOVLB  4
07EA:  MOVWF  xAE
07EC:  MOVLB  0
07EE:  RCALL  0680
....................    if(ma_qd!=ma_ds)    
07F0:  MOVF   25,W
07F2:  SUBWF  1C,W
07F4:  BZ    0800
....................    { 
....................       ds1307_cap_nhat_time(1); 
07F6:  MOVLW  01
07F8:  MOVLB  4
07FA:  MOVWF  xAE
07FC:  MOVLB  0
07FE:  BRA    073E
....................    } 
0800:  GOTO   3494 (RETURN)
.................... } 
.................... //xxxxxxxxxxxxxxxxxxxxxxxxxxxxxxxxxxxxxxxxxxxxxxxxxxxxxxxx    
.................... //xxxxxxxxxxxxxxxxxxxxxxxxxxxxxxxxxxxxxxxxxxxxxxxxxxxxxxxx 
.................... //thu vien cua pcf8591: 4adc:2lm35, joystick, 1dac: led 
.................... //step size bang 5 
.................... //xxxxxxxxxxxxxxxxxxxxxxxxxxxxxxxxxxxxxxxxxxxxxxxxxxxxxxxx    
.................... //xxxxxxxxxxxxxxxxxxxxxxxxxxxxxxxxxxxxxxxxxxxxxxxxxxxxxxxx    
.................... #define  pcf_addr_wr  0x90                     
.................... #define  pcf_addr_rd  0x91 
....................                                                     
.................... #define  pcf_chan0 0x40 
.................... #define  pcf_chan1 0x41 
.................... #define  pcf_chan2 0x42 
.................... #define  pcf_chan3 0x43 
.................... //xxxxxxxxxxxxxxxxxxxxxxxxxxxxxxxxxxxxxxxxxxxxxxxxxxxxxxxx   
.................... //ham thiet lap kenh 
.................... //xxxxxxxxxxxxxxxxxxxxxxxxxxxxxxxxxxxxxxxxxxxxxxxxxxxxxxxx                                     
.................... void pcf_channel(usi8 chan) 
.................... {                                   
....................    i2c_start(); 
....................    i2c_write(pcf_addr_wr); 
....................    i2c_write(chan);       
....................    i2c_stop(); 
.................... } 
.................... //xxxxxxxxxxxxxxxxxxxxxxxxxxxxxxxxxxxxxxxxxxxxxxxxxxxxxxxx   
.................... //ham vua chon kenh, vua xuat du lieu ra DAC 
.................... //xxxxxxxxxxxxxxxxxxxxxxxxxxxxxxxxxxxxxxxxxxxxxxxxxxxxxxxx  
.................... void pcf_xuat_dac(usi8 dac_out) 
.................... { 
....................    i2c_start();                      
....................    i2c_write(pcf_addr_wr); 
....................    i2c_write(pcf_chan0); 
....................    i2c_write(dac_out); 
....................    i2c_stop();              
.................... }                     
.................... //xxxxxxxxxxxxxxxxxxxxxxxxxxxxxxxxxxxxxxxxxxxxxxxxxxxxxxxx   
.................... //ham thiet lap kenh va doc ket qua cua lan truoc  
.................... //xxxxxxxxxxxxxxxxxxxxxxxxxxxxxxxxxxxxxxxxxxxxxxxxxxxxxxxx  
.................... usi8 pcf_doc_adc(usi8 ch) 
.................... {     
....................    usi8 kq;  
....................    kq=0;   
....................    pcf_channel(ch); 
....................    i2c_start();                            
....................    i2c_write(pcf_addr_rd);         
....................    kq= i2c_read(0); 
....................    i2c_stop();        
....................    return kq; 
.................... } 
.................... //xxxxxxxxxxxxxxxxxxxxxxxxxxxxxxxxxxxxxxxxxxxxxxxxxxxxxxxx   
.................... //ham doc kenh, so lan  
.................... //xxxxxxxxxxxxxxxxxxxxxxxxxxxxxxxxxxxxxxxxxxxxxxxxxxxxxxxx  
.................... usi8 pcf_doc_chan(usi8 chan, usi8 solan)                                      
.................... {  
....................    unsigned int16 pcf; 
....................    usi8 i;            
....................    pcf = 0;      
....................    for(i=0;i<solan;i++)             
....................    { 
....................       delay_us(30);                               
....................       pcf=pcf + pcf_doc_adc(chan);               
....................    }                                               
....................    pcf = pcf/solan;    
....................    return (pcf%256); 
.................... } 
....................  
....................                                                                  
....................  
.................... #include <tv_06_lcd_glcd.c>  //xuat du lieu                                             
.................... //xxxxxxxxxxxxxxxxxxxxxxxxxxxxxxxxxxxxxxxxxxxxxxxxxxxxxxxx 
.................... //NGUYEN DINH PHU SU PHAM KY THUAT TP HCM 
.................... //xxxxxxxxxxxxxxxxxxxxxxxxxxxxxxxxxxxxxxxxxxxxxxxxxxxxxxxx 
....................  
.................... //xxxxxxxxxxxxxxxxxxxxxxxxxxxxxxxxxxxxxxxxxxxxxxxxxxxxxxxx     
.................... //khai bao: mang 4 byte ra glcd va lcd 
.................... //xxxxxxxxxxxxxxxxxxxxxxxxxxxxxxxxxxxxxxxxxxxxxxxxxxxxxxxx   
.................... unsigned int8 g_lcd[4]={0,0,0,0};  
.................... #define glcd_ct g_lcd[0] 
.................... #define glcd_dt g_lcd[1] 
.................... #define lcd_ct  g_lcd[2]      
.................... #define lcd_dt  g_lcd[3] 
.................... //xxxxxxxxxxxxxxxxxxxxxxxxxxxxxxxxxxxxxxxxxxxxxxxxxxxxxxxx     
.................... //ham 601: xuat du lieu 4 byte ra glcd va lcd 
.................... //xxxxxxxxxxxxxxxxxxxxxxxxxxxxxxxxxxxxxxxxxxxxxxxxxxxxxxxx  
.................... void xuat_glcd_lcd() 
.................... {                                                   
....................    xuat_1byte(glcd_ct); xuat_1byte(glcd_dt); 
*
041E:  MOVFF  26,4C7
0422:  RCALL  0334
0424:  MOVFF  27,4C7
0428:  RCALL  0334
....................    xuat_1byte(lcd_ct);  xuat_1byte(lcd_dt);        
042A:  MOVFF  28,4C7
042E:  RCALL  0334
0430:  MOVFF  29,4C7
0434:  RCALL  0334
....................           
....................    output_high(rck_lcd);      
0436:  BCF    F95.2
0438:  BSF    F8C.2
....................    output_low(rck_lcd);                           
043A:  BCF    F95.2
043C:  BCF    F8C.2
043E:  RETURN 0
.................... } 
.................... //xxxxxxxxxxxxxxxxxxxxxxxxxxxxxxxxxxxxxxxxxxxxxxxxxxxxxxxx     
.................... //ham 602: ham xuat 2 byte ra lcd  
.................... //xxxxxxxxxxxxxxxxxxxxxxxxxxxxxxxxxxxxxxxxxxxxxxxxxxxxxxxx  
.................... void xuat_lcd(usi8 lcd_ctr,lcd_dta) 
.................... {      
....................    lcd_ct = ~lcd_ctr;        
*
0804:  MOVLB  4
0806:  MOVFF  4C4,28
080A:  COMF   28,F
....................    lcd_dt = ~lcd_dta;       
080C:  MOVFF  4C5,29
0810:  COMF   29,F
....................    xuat_glcd_lcd(); 
0812:  MOVLB  0
0814:  RCALL  041E
0816:  RETURN 0
.................... } 
.................... //xxxxxxxxxxxxxxxxxxxxxxxxxxxxxxxxxxxxxxxxxxxxxxxxxxxxxxxx     
.................... //ham 603: ham xuat 2 byte ra glcd  
.................... //xxxxxxxxxxxxxxxxxxxxxxxxxxxxxxxxxxxxxxxxxxxxxxxxxxxxxxxx  
.................... void xuat_glcd(usi8 glcd_ctr,glcd_dta) 
.................... {      
....................    glcd_ct = ~glcd_ctr;      
*
0440:  MOVLB  4
0442:  MOVFF  4C5,26
0446:  COMF   26,F
....................    glcd_dt = ~glcd_dta;      
0448:  MOVFF  4C6,27
044C:  COMF   27,F
....................    xuat_glcd_lcd(); 
044E:  MOVLB  0
0450:  RCALL  041E
0452:  RETURN 0
.................... } 
....................  
.................... #include <tv_06_lcd.c>       //cac ham lcd   
.................... //xxxxxxxxxxxxxxxxxxxxxxxxxxxxxxxxxxxxxxxxxxxxxxxxxxxxxxxx 
.................... //NGUYEN DINH PHU SU PHAM KY THUAT TP HCM 
.................... //xxxxxxxxxxxxxxxxxxxxxxxxxxxxxxxxxxxxxxxxxxxxxxxxxxxxxxxx 
....................  
.................... //xxxxxxxxxxxxxxxxxxxxxxxxxxxxxxxxxxxxxxxxxxxxxxxxxxxxxxxx 
.................... //dinh nghia bien dieu khien LCD va cac bit cua bien 
.................... //xxxxxxxxxxxxxxxxxxxxxxxxxxxxxxxxxxxxxxxxxxxxxxxxxxxxxxxx   
.................... unsigned int8 lcd_ctrl = 0xff;                      
.................... #bit lcd_p  = lcd_ctrl.3                                        
.................... #bit lcd_rs = lcd_ctrl.2 
.................... #bit lcd_rw = lcd_ctrl.1                                           
.................... #bit lcd_e  = lcd_ctrl.0              
....................                                                             
.................... //xxxxxxxxxxxxxxxxxxxxxxxxxxxxxxxxxxxxxxxxxxxxxxxxxxxxxxxx 
.................... //Dinh nghia cac lenh dieu khien cua LCD 
.................... //xxxxxxxxxxxxxxxxxxxxxxxxxxxxxxxxxxxxxxxxxxxxxxxxxxxxxxxx   
.................... #define lcd_clear_display      0x01     
.................... #define lcd_cursor_home        0x02                                                                                  
.................... //Lenh function set co nhieu bit lua chon 
.................... #define lcd_fs_function_set    0x20   //constant  
.................... #define fs_8bit                0x10                 
.................... #define fs_2line               0x08 
.................... #define fs_5x10                0x04 
.................... //Lenh dieu khien hien thi  
.................... #define lcd_dc_display_control 0x08  //constant 
.................... #define dc_display_on          0x04   
.................... #define dc_cursor_on           0x02 
.................... #define dc_blink_on            0x01                                                           
.................... //Lenh display entry mode */   
.................... #define lcd_em_entry_mode      0x04  //constant  
.................... #define em_shift_inc           0x01                       
.................... #define em_left                0x02                                                 
....................  
.................... /* Flags for display/cursor shift */                            
.................... #define lcd_cd_cursor_display  0x10   //constant               
.................... #define cd_display_move        0x08 
.................... #define cd_move_right          0x04 
....................  
.................... #define lcd_shift_left         0x18  
.................... #define lcd_shift_right        0x1C  
....................  
.................... #define lcd_ddram_addr         0x80 
.................... #define lcd_cgram_addr         0x40 
.................... //xxxxxxxxxxxxxxxxxxxxxxxxxxxxxxxxxxxxxxxxxxxxxxxxxxxxxxxx   
.................... void lcd_goto_xy(usi8 x,usi8 y); 
.................... void lcd_xuat_8bit(int8 db); 
.................... void lcd_command(int8 db); 
.................... void lcd_data(int8 db); 
.................... void lcd_puts(usi8 x, usi8 y, char* str);                  
.................... void lcd_setup();                                         
.................... //xxxxxxxxxxxxxxxxxxxxxxxxxxxxxxxxxxxxxxxxxxxxxxxxxxxxxxxx   
.................... //ham 604: ham xuat 8bit ra lcd 
.................... //xxxxxxxxxxxxxxxxxxxxxxxxxxxxxxxxxxxxxxxxxxxxxxxxxxxxxxxx   
.................... void lcd_xuat(int8 db)  
.................... {                                                      
....................    lcd_e=1; xuat_lcd(lcd_ctrl,db);    
*
0818:  BSF    2A.0
081A:  MOVFF  2A,4C4
081E:  MOVFF  4C3,4C5
0822:  RCALL  0804
....................    delay_us(20);                        
0824:  MOVLW  20
0826:  MOVWF  00
0828:  DECFSZ 00,F
082A:  BRA    0828
082C:  BRA    082E
082E:  NOP   
....................    lcd_e=0; xuat_lcd(lcd_ctrl,db);      
0830:  BCF    2A.0
0832:  MOVFF  2A,4C4
0836:  MOVFF  4C3,4C5
083A:  RCALL  0804
083C:  RETURN 0
.................... }                                                               
.................... //xxxxxxxxxxxxxxxxxxxxxxxxxxxxxxxxxxxxxxxxxxxxxxxxxxxxxxxx     
.................... //ham 605: ham xuat ma lenh dk lcd 
.................... //xxxxxxxxxxxxxxxxxxxxxxxxxxxxxxxxxxxxxxxxxxxxxxxxxxxxxxxx  
.................... void lcd_command(int8 db)    
.................... { 
....................    lcd_rs = 0; lcd_xuat(db);                                        
083E:  BCF    2A.2
0840:  MOVFF  4C2,4C3
0844:  RCALL  0818
0846:  RETURN 0
.................... } 
.................... //xxxxxxxxxxxxxxxxxxxxxxxxxxxxxxxxxxxxxxxxxxxxxxxxxxxxxxxx   
.................... //ham 606: ham xuat du lieu ra lcd 
.................... //xxxxxxxxxxxxxxxxxxxxxxxxxxxxxxxxxxxxxxxxxxxxxxxxxxxxxxxx  
.................... void lcd_data(int8 db)        
.................... { 
....................    lcd_rs = 1; lcd_xuat(db); 
*
08A4:  BSF    2A.2
08A6:  MOVFF  4BF,4C3
08AA:  RCALL  0818
08AC:  RETURN 0
.................... }                                         
.................... //xxxxxxxxxxxxxxxxxxxxxxxxxxxxxxxxxxxxxxxxxxxxxxxxxxxxxxxx   
.................... //ham 607: ham khoi tao lcd 
.................... //xxxxxxxxxxxxxxxxxxxxxxxxxxxxxxxxxxxxxxxxxxxxxxxxxxxxxxxx  
.................... void lcd_setup() 
.................... {                      
....................    lcd_e  = 0;   lcd_rw = 0;  
*
0848:  BCF    2A.0
084A:  BCF    2A.1
....................    lcd_rs = 1;   lcd_p  = 0; 
084C:  BSF    2A.2
084E:  BCF    2A.3
....................    lcd_command(lcd_fs_function_set|fs_8bit|fs_2line);          
0850:  MOVLW  38
0852:  MOVLB  4
0854:  MOVWF  xC2
0856:  MOVLB  0
0858:  RCALL  083E
....................    delay_us(40);   
085A:  MOVLW  42
085C:  MOVWF  00
085E:  DECFSZ 00,F
0860:  BRA    085E
0862:  NOP   
....................    lcd_command(lcd_dc_display_control|dc_display_on);    
0864:  MOVLW  0C
0866:  MOVLB  4
0868:  MOVWF  xC2
086A:  MOVLB  0
086C:  RCALL  083E
....................    delay_us(40); 
086E:  MOVLW  42
0870:  MOVWF  00
0872:  DECFSZ 00,F
0874:  BRA    0872
0876:  NOP   
....................    lcd_command(lcd_clear_display);       
0878:  MOVLW  01
087A:  MOVLB  4
087C:  MOVWF  xC2
087E:  MOVLB  0
0880:  RCALL  083E
....................    delay_ms(2);       
0882:  MOVLW  02
0884:  MOVLB  4
0886:  MOVWF  xC3
0888:  MOVLB  0
088A:  RCALL  0484
....................    lcd_command(lcd_em_entry_mode|em_left);        
088C:  MOVLW  06
088E:  MOVLB  4
0890:  MOVWF  xC2
0892:  MOVLB  0
0894:  RCALL  083E
....................    delay_us(40);                 
0896:  MOVLW  42
0898:  MOVWF  00
089A:  DECFSZ 00,F
089C:  BRA    089A
089E:  NOP   
08A0:  GOTO   3498 (RETURN)
.................... }             
.................... //xxxxxxxxxxxxxxxxxxxxxxxxxxxxxxxxxxxxxxxxxxxxxxxxxxxxxxxx   
.................... //ham 608: di chuyen con tro den toa do x,y 
.................... //xxxxxxxxxxxxxxxxxxxxxxxxxxxxxxxxxxxxxxxxxxxxxxxxxxxxxxxx  
.................... void lcd_goto_xy(usi8 x,usi8 y)  
.................... {                       
....................    const unsigned int8 lcd_vitri[]={0x80,0xc0,0x94,0xd4}; 
....................    lcd_command(lcd_vitri[x]+y);    //delay_us(20); 
*
0A5A:  CLRF   03
0A5C:  MOVLB  4
0A5E:  MOVF   xBF,W
0A60:  MOVFF  FF2,4C1
0A64:  BCF    FF2.7
0A66:  MOVLB  0
0A68:  CALL   0018
0A6C:  MOVLB  4
0A6E:  BTFSC  xC1.7
0A70:  BSF    FF2.7
0A72:  ADDWF  xC0,W
0A74:  MOVWF  xC1
0A76:  MOVWF  xC2
0A78:  MOVLB  0
0A7A:  RCALL  083E
0A7C:  RETURN 0
.................... }  
.................... //xxxxxxxxxxxxxxxxxxxxxxxxxxxxxxxxxxxxxxxxxxxxxxxxxxxxxxxx            
.................... //ham 609: ham xoa man hinh LCD 
.................... //xxxxxxxxxxxxxxxxxxxxxxxxxxxxxxxxxxxxxxxxxxxxxxxxxxxxxxxx  
.................... void lcd_clear()  
.................... {                       
....................    lcd_command(lcd_clear_display);       
*
25C6:  MOVLW  01
25C8:  MOVLB  4
25CA:  MOVWF  xC2
25CC:  MOVLB  0
25CE:  CALL   083E
....................    delay_ms(2); 
25D2:  MOVLW  02
25D4:  MOVLB  4
25D6:  MOVWF  xC3
25D8:  MOVLB  0
25DA:  CALL   0484
25DE:  RETURN 0
.................... }  
.................... //xxxxxxxxxxxxxxxxxxxxxxxxxxxxxxxxxxxxxxxxxxxxxxxxxxxxxxxx 
.................... //ham 609: ham mo den backlight lcd  
.................... //xxxxxxxxxxxxxxxxxxxxxxxxxxxxxxxxxxxxxxxxxxxxxxxxxxxxxxxx   
.................... void lcd_back_light_on() 
.................... { 
....................    lcd_p = 0; xuat_lcd(lcd_ctrl,0x00);    
.................... } 
.................... //xxxxxxxxxxxxxxxxxxxxxxxxxxxxxxxxxxxxxxxxxxxxxxxxxxxxxxxx 
.................... //ham 610: tat den backlight lcd  
.................... //xxxxxxxxxxxxxxxxxxxxxxxxxxxxxxxxxxxxxxxxxxxxxxxxxxxxxxxx   
.................... void lcd_back_light_off() 
.................... { 
....................    lcd_p = 1;  xuat_lcd(lcd_ctrl,0x00);     
.................... } 
.................... //xxxxxxxxxxxxxxxxxxxxxxxxxxxxxxxxxxxxxxxxxxxxxxxxxxxxxxxx   
.................... //ham 611: hien thi mang trn lcd tai x,y (hang,cot) 
.................... //xxxxxxxxxxxxxxxxxxxxxxxxxxxxxxxxxxxxxxxxxxxxxxxxxxxxxxxx  
.................... void lcd_puts(usi8 x, usi8 y, unsigned  char* str)  
.................... {                  
....................    while (*str)  
....................    { 
....................       if(y>=20)  
....................       { 
....................          y = 0;   x++; 
....................       } 
....................       if(x>=4) x = 0; 
....................       lcd_goto_xy(x,y);       
....................       if (*str == '\n')  
....................       {                    
....................          x++; 
....................          lcd_goto_xy(x,y); 
....................       }  
....................       else if (*str == '\r')  
....................       { 
....................          lcd_goto_xy(0,y); 
....................       }  
....................       else  
....................          { 
....................             lcd_data(*str); 
....................             y++;                       
....................              
....................          } 
....................       str++; 
....................    } 
.................... } 
.................... //xxxxxxxxxxxxxxxxxxxxxxxxxxxxxxxxxxxxxxxxxxxxxxxxxxxxxxxx   
.................... //mang so to cua LCD 
.................... //xxxxxxxxxxxxxxxxxxxxxxxxxxxxxxxxxxxxxxxxxxxxxxxxxxxxxxxx  
.................... const unsigned int8 lcd_so_to[10][6] ={ 
....................                   0,1,2,4,3,5,    // so 0 
....................                   1,2,32,3,7,3,   // so 1 
....................                   6,6,2,4,3,3,    // so 2 
....................                   6,6,2,3,3,5,    // so 3 
....................                   7,3,7,32,32,7,  // so 4 
....................                   7,6,6,3,3,5,    // so 5                                
....................                   0,6,6,4,3,5,    // so 6 
....................                   1,1,7,32,32,7,  // so 7 
....................                   0,6,2,4,3,5,    // so 8 
....................                   0,6,2,3,3,5};   // so 9 
.................... //xxxxxxxxxxxxxxxxxxxxxxxxxxxxxxxxxxxxxxxxxxxxxxxxxxxxxxxx   
.................... //mang tung doan so to cua LCD 
.................... //xxxxxxxxxxxxxxxxxxxxxxxxxxxxxxxxxxxxxxxxxxxxxxxxxxxxxxxx                    
.................... const unsigned int8 lcd_ma_8doan[] = { 
....................    0x07,0x0f,0x1f,0x1f,0x1f,0x1f,0x1f,0x1f,  //doan f - 0 
....................    0x1f,0x1f,0x1f,0x00,0x00,0x00,0x00,0x00,  //doan a - 1 
....................    0x1c,0x1e,0x1f,0x1f,0x1f,0x1f,0x1f,0x1f,  //doan b - 2 
....................    0x00,0x00,0x00,0x00,0x00,0x1f,0x1f,0x1f,  //doan d - 3 
....................    0x1f,0x1f,0x1f,0x1f,0x1f,0x1f,0x0f,0x07,  //doan e - 4 
....................    0x1f,0x1f,0x1f,0x1f,0x1f,0x1f,0x1e,0x1c,  //doan c - 5       
....................    0x1f,0x1f,0x1f,0x00,0x00,0x00,0x1f,0x1f,  //doan g+d-6  
....................    0x1f,0x1f,0x1f,0x1f,0x1f,0x1f,0x1f,0x1f}; //doan i  -7      
.................... //xxxxxxxxxxxxxxxxxxxxxxxxxxxxxxxxxxxxxxxxxxxxxxxxxxxxxxxx   
.................... //ham 612: copy mang so to vao cgram 
.................... //xxxxxxxxxxxxxxxxxxxxxxxxxxxxxxxxxxxxxxxxxxxxxxxxxxxxxxxx                                   
.................... void lcd_khoi_tao_cgram_so_to()                                                   
.................... {                                                                       
....................    usi8 i; 
....................    lcd_command(lcd_cgram_addr); 
*
08AE:  MOVLW  40
08B0:  MOVLB  4
08B2:  MOVWF  xC2
08B4:  MOVLB  0
08B6:  RCALL  083E
....................    for(i=0;i<64;i++)   
08B8:  MOVLB  4
08BA:  CLRF   xAE
08BC:  MOVF   xAE,W
08BE:  SUBLW  3F
08C0:  BNC   08E6
....................      lcd_data(lcd_ma_8doan[i]);   
08C2:  CLRF   03
08C4:  MOVF   xAE,W
08C6:  MOVFF  FF2,4AF
08CA:  BCF    FF2.7
08CC:  MOVLB  0
08CE:  CALL   0078
08D2:  MOVLB  4
08D4:  BTFSC  xAF.7
08D6:  BSF    FF2.7
08D8:  MOVWF  xAF
08DA:  MOVWF  xBF
08DC:  MOVLB  0
08DE:  RCALL  08A4
08E0:  MOVLB  4
08E2:  INCF   xAE,F
08E4:  BRA    08BC
08E6:  MOVLB  0
08E8:  GOTO   349C (RETURN)
.................... }          
.................... //xxxxxxxxxxxxxxxxxxxxxxxxxxxxxxxxxxxxxxxxxxxxxxxxxxxxxxxx   
.................... //ham 613: hien thi so to tai toa do x,y 
.................... //xxxxxxxxxxxxxxxxxxxxxxxxxxxxxxxxxxxxxxxxxxxxxxxxxxxxxxxx  
.................... void lcd_hien_thi_so_to(si8 so, x, y)  
.................... {                         
....................    usi8 i; 
....................    lcd_goto_xy(x,y); 
*
2748:  MOVFF  4BB,4BF
274C:  MOVFF  4BC,4C0
2750:  CALL   0A5A
....................    for(i=0;i<6;i++) 
2754:  MOVLB  4
2756:  CLRF   xBD
2758:  MOVF   xBD,W
275A:  SUBLW  05
275C:  BNC   27BE
....................    {                                                            
....................       if(i==3) lcd_goto_xy(x+1,y); 
275E:  MOVF   xBD,W
2760:  SUBLW  03
2762:  BNZ   2778
2764:  MOVLW  01
2766:  ADDWF  xBB,W
2768:  MOVWF  xBE
276A:  MOVWF  xBF
276C:  MOVFF  4BC,4C0
2770:  MOVLB  0
2772:  CALL   0A5A
2776:  MOVLB  4
....................       lcd_data(lcd_so_to[so][i]); 
2778:  MOVFF  4BA,4CB
277C:  MOVLW  06
277E:  MOVWF  xCC
2780:  MOVLB  0
2782:  CALL   0ECE
2786:  MOVF   01,W
2788:  MOVLB  4
278A:  CLRF   xBF
278C:  MOVWF  xBE
278E:  CLRF   03
2790:  MOVF   xBD,W
2792:  ADDWF  xBE,W
2794:  MOVWF  01
2796:  MOVF   xBF,W
2798:  ADDWFC 03,F
279A:  MOVF   01,W
279C:  MOVFF  FF2,4BE
27A0:  BCF    FF2.7
27A2:  MOVLB  0
27A4:  CALL   002C
27A8:  MOVLB  4
27AA:  BTFSC  xBE.7
27AC:  BSF    FF2.7
27AE:  MOVWF  xBE
27B0:  MOVWF  xBF
27B2:  MOVLB  0
27B4:  CALL   08A4
27B8:  MOVLB  4
27BA:  INCF   xBD,F
27BC:  BRA    2758
....................    }                         
27BE:  MOVLB  0
27C0:  RETURN 0
.................... }  
.................... //xxxxxxxxxxxxxxxxxxxxxxxxxxxxxxxxxxxxxxxxxxxxxxxxxxxxxxxx   
.................... //ham 614: xoa so to tai toa do x,y 
.................... //xxxxxxxxxxxxxxxxxxxxxxxxxxxxxxxxxxxxxxxxxxxxxxxxxxxxxxxx  
.................... void lcd_xoa_so_to(si8 x, y) 
.................... {   
....................    usi8 i; 
....................    lcd_goto_xy(x,y);          
27C2:  MOVFF  4B9,4BF
27C6:  MOVFF  4BA,4C0
27CA:  CALL   0A5A
....................    for(i=0;i<6;i++) 
27CE:  MOVLB  4
27D0:  CLRF   xBB
27D2:  MOVF   xBB,W
27D4:  SUBLW  05
27D6:  BNC   2802
....................    {             
....................       if(i==3) lcd_goto_xy(x+1,y);     
27D8:  MOVF   xBB,W
27DA:  SUBLW  03
27DC:  BNZ   27F2
27DE:  MOVLW  01
27E0:  ADDWF  xB9,W
27E2:  MOVWF  xBC
27E4:  MOVWF  xBF
27E6:  MOVFF  4BA,4C0
27EA:  MOVLB  0
27EC:  CALL   0A5A
27F0:  MOVLB  4
....................       lcd_data(' '); 
27F2:  MOVLW  20
27F4:  MOVWF  xBF
27F6:  MOVLB  0
27F8:  CALL   08A4
27FC:  MOVLB  4
27FE:  INCF   xBB,F
2800:  BRA    27D2
....................    } 
2802:  MOVLB  0
2804:  GOTO   289E (RETURN)
.................... }  
.................... //xxxxxxxxxxxxxxxxxxxxxxxxxxxxxxxxxxxxxxxxxxxxxxxxxxxxxxxx   
.................... //ham 615: hien thi so hex toa do x,y 
.................... //xxxxxxxxxxxxxxxxxxxxxxxxxxxxxxxxxxxxxxxxxxxxxxxxxxxxxxxx  
.................... void lcd_hthi_byte(usi8 sh,x,y)  
.................... {   
....................    usi8 bh,bl; 
....................    lcd_goto_xy(x,y); 
....................    bh=sh/16; bl=sh%16;                                                 
....................    if(bh>9) lcd_data(bh+0x37); 
....................    else     lcd_data(bh+0x30); 
....................    if(bl>9) lcd_data(bl+0x37); 
....................    else     lcd_data(bl+0x30); 
.................... }  
.................... //xxxxxxxxxxxxxxxxxxxxxxxxxxxxxxxxxxxxxxxxxxxxxxxxxxxxxxxx   
.................... //ham 616: giai ma hien thi 2 so tai toa do x,y 
.................... //xxxxxxxxxxxxxxxxxxxxxxxxxxxxxxxxxxxxxxxxxxxxxxxxxxxxxxxx  
.................... void lcd_gm_ht_2so_nho_xvn(usi16 so,usi8 x,usi8 y,int1 xvn)       
.................... {                            
....................    usi8 ch,dv;           
....................    lcd_goto_xy(x,y);                    
....................    ch = so/10%10+0x30;  dv = so%10+0x30; 
....................    if(xvn)  
....................    { 
....................       if(ch==0x30) ch=" "; 
....................    } 
....................    lcd_data(ch);   
....................    lcd_data(dv);    
.................... } 
.................... //xxxxxxxxxxxxxxxxxxxxxxxxxxxxxxxxxxxxxxxxxxxxxxxxxxxxxxxx   
.................... //ham 617: giai ma hien thi 3 so tai toa do x,y 
.................... //xxxxxxxxxxxxxxxxxxxxxxxxxxxxxxxxxxxxxxxxxxxxxxxxxxxxxxxx  
.................... void lcd_gm_ht_3so_nho_xvn(usi16 so,usi8 x,usi8 y,int1 xvn)       
.................... {                            
....................    usi8 tr,ch,dv;           
....................    lcd_goto_xy(x,y);                    
....................    tr = so/100%10+0x30;  
....................    ch = so/10%10+0x30;         
....................    dv = so%10+0x30; 
....................    if(xvn)  
....................    { 
....................       if(tr==0x30) 
....................       {      
....................          tr=" "; 
....................          if(ch==0x30) ch=" "; 
....................       } 
....................    } 
....................    lcd_data(tr);     
....................    lcd_data(ch);   
....................    lcd_data(dv);    
.................... } 
.................... //xxxxxxxxxxxxxxxxxxxxxxxxxxxxxxxxxxxxxxxxxxxxxxxxxxxxxxxx   
.................... //ham 618: giai ma hien thi 4 so tai toa do x,y 
.................... //xxxxxxxxxxxxxxxxxxxxxxxxxxxxxxxxxxxxxxxxxxxxxxxxxxxxxxxx  
.................... void lcd_gm_ht_4so_nho_xvn(usi16 so,usi8 x,usi8 y,int1 xvn)       
.................... {                            
....................    usi8 ng,tr,ch,dv;           
....................    lcd_goto_xy(x,y);                 
....................    ng = so/1000%10+0x30;     
....................    tr = so/100%10+0x30;  
....................    ch = so/10%10+0x30;         
....................    dv = so%10+0x30; 
....................    if(xvn)  
....................    { 
....................       if(ng==0x30) 
....................       {   
....................          ng=" "; 
....................          if(tr==0x30) 
....................          {      
....................             tr=" "; 
....................             if(ch==0x30) ch=" "; 
....................          } 
....................       } 
....................    } 
....................    lcd_data(ng);  lcd_data(tr);     
....................    lcd_data(ch);  lcd_data(dv);    
.................... } 
.................... //xxxxxxxxxxxxxxxxxxxxxxxxxxxxxxxxxxxxxxxxxxxxxxxxxxxxxxxx   
.................... //ham 619: giai ma hien thi 5 so tai toa do x,y 
.................... //xxxxxxxxxxxxxxxxxxxxxxxxxxxxxxxxxxxxxxxxxxxxxxxxxxxxxxxx  
.................... void lcd_gm_ht_5so_nho_xvn(usi16 so,usi8 x,usi8 y)       
.................... {                            
....................    usi8 cn,ng,tr,ch,dv;           
....................    lcd_goto_xy(x,y); 
....................    cn = so/10000%10+0x30;     
....................    ng = so/1000%10+0x30;     
....................    tr = so/100%10+0x30;  
....................    ch = so/10%10+0x30;         
....................    dv = so%10+0x30; 
....................    if(cn==0x30) 
....................    { 
....................      cn=" "; 
....................      if(ng==0x30) 
....................       {   
....................         ng=" "; 
....................         if(tr==0x30) 
....................         {      
....................         tr=" "; 
....................         if(ch==0x30) ch=" "; 
....................       } 
....................       } 
....................    } 
....................    lcd_data(cn); 
....................    lcd_data(ng);  lcd_data(tr);     
....................    lcd_data(ch);  lcd_data(dv);    
.................... } 
.................... //xxxxxxxxxxxxxxxxxxxxxxxxxxxxxxxxxxxxxxxxxxxxxxxxxxxxxxxx   
.................... //ham 620: giai ma hien thi 2 so to tai toa do x,y 
.................... //xxxxxxxxxxxxxxxxxxxxxxxxxxxxxxxxxxxxxxxxxxxxxxxxxxxxxxxx  
.................... void lcd_gm_ht_2so_to_xvn(usi16 so,usi8 x,usi8 y,int1 xvn) 
.................... {  
....................    usi8 ch,dv;     
....................    lcd_goto_xy(x,y); 
2808:  MOVFF  4B4,4BF
280C:  MOVFF  4B5,4C0
2810:  CALL   0A5A
....................    ch = so/10%10;         
2814:  MOVFF  4B3,4BC
2818:  MOVFF  4B2,4BB
281C:  MOVLB  4
281E:  CLRF   xBE
2820:  MOVLW  0A
2822:  MOVWF  xBD
2824:  MOVLB  0
2826:  RCALL  2702
2828:  MOVFF  02,4BA
282C:  MOVFF  01,4B9
2830:  MOVFF  02,4BC
2834:  MOVFF  01,4BB
2838:  MOVLB  4
283A:  CLRF   xBE
283C:  MOVLW  0A
283E:  MOVWF  xBD
2840:  MOVLB  0
2842:  RCALL  2702
2844:  MOVFF  00,4B7
2848:  MOVLB  4
....................    dv = so%10; 
284A:  MOVFF  4B3,4BC
284E:  MOVFF  4B2,4BB
2852:  CLRF   xBE
2854:  MOVLW  0A
2856:  MOVWF  xBD
2858:  MOVLB  0
285A:  RCALL  2702
285C:  MOVFF  00,4B8
2860:  MOVLB  4
....................    lcd_hien_thi_so_to(ch,x,y);                
2862:  MOVFF  4B7,4BA
2866:  MOVFF  4B4,4BB
286A:  MOVFF  4B5,4BC
286E:  MOVLB  0
2870:  RCALL  2748
....................    lcd_hien_thi_so_to(dv,x,y+3);   
2872:  MOVLW  03
2874:  MOVLB  4
2876:  ADDWF  xB5,W
2878:  MOVWF  xB9
287A:  MOVFF  4B8,4BA
287E:  MOVFF  4B4,4BB
2882:  MOVWF  xBC
2884:  MOVLB  0
2886:  RCALL  2748
....................    if((ch==0)&&(xvn)) lcd_xoa_so_to(x,y); 
2888:  MOVLB  4
288A:  MOVF   xB7,F
288C:  BNZ   28A0
288E:  MOVF   xB6,F
2890:  BZ    28A0
2892:  MOVFF  4B4,4B9
2896:  MOVFF  4B5,4BA
289A:  MOVLB  0
289C:  BRA    27C2
289E:  MOVLB  4
28A0:  MOVLB  0
28A2:  RETURN 0
.................... } 
.................... //xxxxxxxxxxxxxxxxxxxxxxxxxxxxxxxxxxxxxxxxxxxxxxxxxxxxxxxx   
.................... //ham 621: giai ma hien thi 3 so to tai toa do x,y 
.................... //xxxxxxxxxxxxxxxxxxxxxxxxxxxxxxxxxxxxxxxxxxxxxxxxxxxxxxxx  
.................... void lcd_gm_ht_3so_to_xvn(usi16 so,usi8 x,usi8 y,int1 xvn) 
.................... {  
....................    usi8 tr,ch,dv;           
....................    lcd_goto_xy(x,y);                    
....................    tr = so/100%10;  
....................    ch = so/10%10;         
....................    dv = so%10; 
....................    lcd_hien_thi_so_to(tr,x,y);                
....................    lcd_hien_thi_so_to(ch,x,y+3);   
....................    lcd_hien_thi_so_to(dv,x,y+6); 
....................    if((tr==0)&&(xvn)) 
....................    {      
....................       lcd_xoa_so_to(x,y); 
....................       if(ch==0) lcd_xoa_so_to(x,y+3); 
....................    } 
.................... } 
.................... //xxxxxxxxxxxxxxxxxxxxxxxxxxxxxxxxxxxxxxxxxxxxxxxxxxxxxxxx   
.................... //ham 622: giai ma hien thi 4 so to tai toa do x,y 
.................... //xxxxxxxxxxxxxxxxxxxxxxxxxxxxxxxxxxxxxxxxxxxxxxxxxxxxxxxx  
.................... void lcd_gm_ht_4so_to_xvn(usi16 so,usi8 x,usi8 y,int1 xvn) 
.................... {  
....................    usi8 ng,tr,ch,dv;           
....................    lcd_goto_xy(x,y);                    
....................    ng = so/1000%10;  
....................    tr = so/100%10;  
....................    ch = so/10%10;         
....................    dv = so%10; 
....................    lcd_hien_thi_so_to(ng,x,y);                
....................    lcd_hien_thi_so_to(tr,x,y+3);   
....................    lcd_hien_thi_so_to(ch,x,y+6); 
....................    lcd_hien_thi_so_to(dv,x,y+9);   
....................    if((ng==0)&&(xvn)) 
....................    {      
....................       lcd_xoa_so_to(x,y); 
....................       if(tr==0)  
....................      { 
....................       lcd_xoa_so_to(x,y+3); 
....................       if(ch==0) lcd_xoa_so_to(x,y+6); 
....................      } 
....................    } 
.................... } 
.................... //xxxxxxxxxxxxxxxxxxxxxxxxxxxxxxxxxxxxxxxxxxxxxxxxxxxxxxxx   
.................... //ham 623: giai ma hien thi 4 so to tai toa do x,y 
.................... //xxxxxxxxxxxxxxxxxxxxxxxxxxxxxxxxxxxxxxxxxxxxxxxxxxxxxxxx  
.................... void lcd_gm_ht_5so_to_xvn(usi16 so,usi8 x,usi8 y,int1 xvn) 
.................... {  
....................    usi8 cn,ng,tr,ch,dv;  
....................  
....................       lcd_goto_xy(x,y); 
....................       ng = so/1000%10;  
....................       ng = so/1000%10;  
....................       tr = so/100%10;  
....................       ch = so/10%10;         
....................       dv = so%10; 
....................       lcd_hien_thi_so_to(cn,x,y);                
....................       lcd_hien_thi_so_to(ng,x,y+3);   
....................       lcd_hien_thi_so_to(tr,x,y+6); 
....................       lcd_hien_thi_so_to(ch,x,y+9);  
....................       lcd_hien_thi_so_to(dv,x,y+12); 
....................       if((cn==0)&&(xvn)) 
....................       {      
....................          lcd_xoa_so_to(x,y); 
....................          if(ng==0)  
....................          { 
....................             lcd_xoa_so_to(x,y+3); 
....................             if(tr==0)  
....................             { 
....................                lcd_xoa_so_to(x,y+6); 
....................                if(ch==0) lcd_xoa_so_to(x,y+9); 
....................             } 
....................          } 
....................       } 
.................... } 
.................... //xxxxxxxxxxxxxxxxxxxxxxxxxxxxxxxxxxxxxxxxxxxxxxxxxxxxxxxx   
.................... //ham 624: giai ma hien thi 4 so to tai toa do x,y 
.................... //xxxxxxxxxxxxxxxxxxxxxxxxxxxxxxxxxxxxxxxxxxxxxxxxxxxxxxxx  
.................... void lcd_hien_thi_2so_tp_nho(usi8 tp,usi8 x, y) 
.................... {    
....................    lcd_goto_xy(x,y); 
....................    lcd_data(".");                                         
....................    lcd_data(tp/10%10+0x30); 
....................    lcd_data(tp%10+0x30);    
.................... }   
....................  
.................... void lcd_hien_thi_3so_tp_nho(usi16 tp,usi8 x, y) 
.................... {    
....................    lcd_goto_xy(x,y); 
....................    lcd_data(".");    
....................    lcd_data(tp/100+0x30); 
....................    lcd_data(tp/10%10+0x30); 
....................    lcd_data(tp%10+0x30);    
.................... } 
....................  
.................... void lcd_hien_thi_1so_tp_nho(usi8 tp,usi8 x, y) 
.................... {    
....................    lcd_goto_xy(x,y); 
*
28D2:  MOVFF  4B5,4BF
28D6:  MOVFF  4B6,4C0
28DA:  CALL   0A5A
....................    lcd_data(".");                                         
28DE:  MOVLW  E4
28E0:  MOVWF  FF6
28E2:  MOVLW  02
28E4:  MOVWF  FF7
28E6:  CALL   0A7E
....................    //lcd_data(tp/10%10+0x30); 
....................    lcd_data(tp%10+0x30);    
28EA:  MOVFF  4B4,4B7
28EE:  MOVLW  0A
28F0:  MOVLB  4
28F2:  MOVWF  xB8
28F4:  MOVLB  0
28F6:  BRA    28A4
28F8:  MOVLW  30
28FA:  ADDWF  00,W
28FC:  MOVLB  4
28FE:  MOVWF  xB7
2900:  MOVWF  xBF
2902:  MOVLB  0
2904:  CALL   08A4
2908:  RETURN 0
.................... }   
....................  
....................  
.................... #include <tv_dht11.c>                                             
.................... //xxxxxxxxxxxxxxxxxxxxxxxxxxxxxxxxxxxxxxxxxxxxxxxxxxxxxxxx 
.................... //NGUYEN DINH PHU SU PHAM KY THUAT TP HCM 
.................... //xxxxxxxxxxxxxxxxxxxxxxxxxxxxxxxxxxxxxxxxxxxxxxxxxxxxxxxx 
....................  
.................... #define dht11_pin_low()    output_drive(dht11); output_low(dht11) 
.................... #define dht11_pin_high()   output_drive(dht11); output_high(dht11) 
.................... #define dht11_pin_float()  output_float(dht11) 
.................... #define dht11_pin_read()   input_state(dht11)   
.................... //xxxxxxxxxxxxxxxxxxxxxxxxxxxxxxxxxxxxxxxxxxxxxxxxxxxxxxx 
.................... //ham bat dau giao tiep dht11 
.................... //xxxxxxxxxxxxxxxxxxxxxxxxxxxxxxxxxxxxxxxxxxxxxxxxxxxxxxx   
.................... void dht11_start()         
.................... {                                 
....................    dht11_pin_low(); 
*
2E30:  BCF    F95.1
2E32:  BCF    F95.1
2E34:  BCF    F8C.1
....................    delay_ms(20);                                        
2E36:  MOVLW  14
2E38:  MOVLB  4
2E3A:  MOVWF  xC3
2E3C:  MOVLB  0
2E3E:  CALL   0484
....................    dht11_pin_high(); 
2E42:  BCF    F95.1
2E44:  BCF    F95.1
2E46:  BSF    F8C.1
....................    dht11_pin_float(); 
2E48:  BSF    F95.1
....................    delay_us(40);    
2E4A:  MOVLW  42
2E4C:  MOVWF  00
2E4E:  DECFSZ 00,F
2E50:  BRA    2E4E
2E52:  NOP   
2E54:  GOTO   2EF8 (RETURN)
.................... }  
.................... //xxxxxxxxxxxxxxxxxxxxxxxxxxxxxxxxxxxxxxxxxxxxxxxxxxxxxxx 
.................... //ham kiem tra dap ung cua DHT11:do thuc te cac thong so 
.................... //xxxxxxxxxxxxxxxxxxxxxxxxxxxxxxxxxxxxxxxxxxxxxxxxxxxxxxx   
.................... int1 dht11_check_response()         
2E58:  MOVLB  4
2E5A:  CLRF   xAE
2E5C:  BSF    xAF.0
2E5E:  BSF    xAF.1
.................... {                                 
....................    unsigned int8 cnt=0;    
....................    int1 tt=1, tt1=1; 
....................    do 
....................    { 
....................       if(dht11_pin_read()==0) cnt++; //       
2E60:  BTFSC  F83.1
2E62:  BRA    2E68
2E64:  INCF   xAE,F
2E66:  BRA    2E6A
....................       else                    tt=0;  //het o muc 0,xung ln 1,        
2E68:  BCF    xAF.0
....................    }while ((cnt<200)&&(tt==1));      //dung: cnt<200 v tt=1; sai  
2E6A:  MOVF   xAE,W
2E6C:  SUBLW  C7
2E6E:  BNC   2E74
2E70:  BTFSC  xAF.0
2E72:  BRA    2E60
....................                                                 
....................    cnt=0; tt1=1; 
2E74:  CLRF   xAE
2E76:  BSF    xAF.1
....................    do 
....................    { 
....................       if(dht11_pin_read()==1) cnt++;        
2E78:  BTFSS  F83.1
2E7A:  BRA    2E80
2E7C:  INCF   xAE,F
2E7E:  BRA    2E82
....................       else                    tt1=0;  //het o muc 1, xung xuong muc 0        
2E80:  BCF    xAF.1
....................    }while ((cnt<200)&&(tt1==1));               
2E82:  MOVF   xAE,W
2E84:  SUBLW  C7
2E86:  BNC   2E8C
2E88:  BTFSC  xAF.1
2E8A:  BRA    2E78
....................    return tt;  
2E8C:  MOVLW  00
2E8E:  BTFSC  xAF.0
2E90:  MOVLW  01
2E92:  MOVWF  01
2E94:  MOVLB  0
2E96:  GOTO   2EFA (RETURN)
.................... }        
.................... //xxxxxxxxxxxxxxxxxxxxxxxxxxxxxxxxxxxxxxxxxxxxxxxxxxxxxxx 
.................... //ham doc 5 byte cua DHT11 
.................... //xxxxxxxxxxxxxxxxxxxxxxxxxxxxxxxxxxxxxxxxxxxxxxxxxxxxxxx   
.................... unsigned int8 dht11_read()         
.................... {                                                                                
....................    unsigned int8 kq,j;     
....................    for(j=0;j<8;j++)                                                
2E9A:  MOVLB  4
2E9C:  CLRF   xAF
2E9E:  MOVF   xAF,W
2EA0:  SUBLW  07
2EA2:  BNC   2ED2
....................    {                                                          
....................       while(!dht11_pin_read());  //doi het muc 0     
2EA4:  BTFSS  F83.1
2EA6:  BRA    2EA4
....................       delay_us(30); 
2EA8:  MOVLW  31
2EAA:  MOVWF  00
2EAC:  DECFSZ 00,F
2EAE:  BRA    2EAC
2EB0:  BRA    2EB2
....................       if(dht11_pin_read()==1)  
2EB2:  BTFSS  F83.1
2EB4:  BRA    2ECA
....................       {              
....................          kq = (kq<<1)+1;     
2EB6:  BCF    FD8.0
2EB8:  RLCF   xAE,W
2EBA:  ADDLW  01
2EBC:  MOVWF  xAE
....................          delay_us(40);           //bit 1 thi them delay 
2EBE:  MOVLW  42
2EC0:  MOVWF  00
2EC2:  DECFSZ 00,F
2EC4:  BRA    2EC2
2EC6:  NOP   
....................       }                           
2EC8:  BRA    2ECE
....................       else kq = kq<<1;   
2ECA:  BCF    FD8.0
2ECC:  RLCF   xAE,F
2ECE:  INCF   xAF,F
2ED0:  BRA    2E9E
....................    }     
....................    return kq;  
2ED2:  MOVFF  4AE,01
2ED6:  MOVLB  0
2ED8:  RETURN 0
.................... }   
.................... //xxxxxxxxxxxxxxxxxxxxxxxxxxxxxxxxxxxxxxxxxxxxxxxxxxxxxxx 
.................... //ham hien thi thong bao tren lcd khong co dht11 
.................... //xxxxxxxxxxxxxxxxxxxxxxxxxxxxxxxxxxxxxxxxxxxxxxxxxxxxxxx   
.................... void hien_thi_no_dht11()  
.................... {  
....................    lcd_goto_xy(0,0);                                                         
2EDA:  MOVLB  4
2EDC:  CLRF   xBF
2EDE:  CLRF   xC0
2EE0:  MOVLB  0
2EE2:  CALL   0A5A
....................    lcd_data("NO DHT11");                                            
2EE6:  MOVLW  E6
2EE8:  MOVWF  FF6
2EEA:  MOVLW  02
2EEC:  MOVWF  FF7
2EEE:  CALL   0A7E
2EF2:  GOTO   2F34 (RETURN)
.................... }               
.................... //xxxxxxxxxxxxxxxxxxxxxxxxxxxxxxxxxxxxxxxxxxxxxxxxxxxxxxx 
.................... //ham hien thi thong bao check sum sai 
.................... //xxxxxxxxxxxxxxxxxxxxxxxxxxxxxxxxxxxxxxxxxxxxxxxxxxxxxxx   
.................... void hien_thi_sai_dht11()          
.................... {  
....................    lcd_goto_xy(0,0);                                                         
....................    lcd_data("DOC SAI DU LIEU DHT11");  
.................... } 
....................  
.................... #include <tv_08_relay_triac_buzzer_dc.c>   
.................... //xxxxxxxxxxxxxxxxxxxxxxxxxxxxxxxxxxxxxxxxxxxxxxxxxxxxxxxx 
.................... //NGUYEN DINH PHU SU PHAM KY THUAT TP HCM 
.................... //xxxxxxxxxxxxxxxxxxxxxxxxxxxxxxxxxxxxxxxxxxxxxxxxxxxxxxxx 
....................  
.................... //xxxxxxxxxxxxxxxxxxxxxxxxxxxxxxxxxxxxxxxxxxxxxxxxxxxxxxxx 
.................... //ham 801: dk relay,triac, buzzer, dong co, sim 
.................... //xxxxxxxxxxxxxxxxxxxxxxxxxxxxxxxxxxxxxxxxxxxxxxxxxxxxxxxx 
.................... void xuat_buzzer_relay() 
.................... {      
....................    unsigned int8 rbdc1,rbdc2; 
....................    rbdc1=rbdc; rbdc2=rbdc>>8;       
*
0A9E:  MOVFF  04,4AE
0AA2:  MOVFF  05,4AF
....................    xuat_1byte(rbdc2);      xuat_1byte(rbdc1);             
0AA6:  MOVFF  4AF,4C7
0AAA:  RCALL  0334
0AAC:  MOVFF  4AE,4C7
0AB0:  RCALL  0334
....................    output_high(rck_rlb);    
0AB2:  BCF    F95.3
0AB4:  BSF    F8C.3
....................    output_low(rck_rlb); 
0AB6:  BCF    F95.3
0AB8:  BCF    F8C.3
0ABA:  GOTO   0AC2 (RETURN)
.................... }                                    
.................... //xxxxxxxxxxxxxxxxxxxxxxxxxxxxxxxxxxxxxxxxxxxxxxxxxxxxxxxx 
.................... //ham 802: dk buzzer on 
.................... //xxxxxxxxxxxxxxxxxxxxxxxxxxxxxxxxxxxxxxxxxxxxxxxxxxxxxxxx 
.................... void buzzer_on() 
.................... {     
....................    buzzer=1; 
....................    xuat_buzzer_relay();          
.................... } 
.................... //xxxxxxxxxxxxxxxxxxxxxxxxxxxxxxxxxxxxxxxxxxxxxxxxxxxxxxxx 
.................... //ham 803: dk buzzer off 
.................... //xxxxxxxxxxxxxxxxxxxxxxxxxxxxxxxxxxxxxxxxxxxxxxxxxxxxxxxx 
.................... void buzzer_off() 
.................... {      
....................    buzzer=0; 
....................    xuat_buzzer_relay(); 
.................... }   
.................... //xxxxxxxxxxxxxxxxxxxxxxxxxxxxxxxxxxxxxxxxxxxxxxxxxxxxxxxx 
.................... //ham 804: dk buzzer on roi off de tao bip 
.................... //xxxxxxxxxxxxxxxxxxxxxxxxxxxxxxxxxxxxxxxxxxxxxxxxxxxxxxxx 
.................... void buzzer_on_off(usi16 dl) 
.................... {      
....................    buzzer=1; 
....................    xuat_buzzer_relay(); 
....................    delay_ms(dl); 
....................    buzzer=0; 
....................    xuat_buzzer_relay(); 
.................... }   
.................... //xxxxxxxxxxxxxxxxxxxxxxxxxxxxxxxxxxxxxxxxxxxxxxxxxxxxxxxx 
.................... //ham 805: dk Relay 1 on 
.................... //xxxxxxxxxxxxxxxxxxxxxxxxxxxxxxxxxxxxxxxxxxxxxxxxxxxxxxxx 
.................... void relay_1_on() 
.................... {     
....................    relay_1=1; 
....................    xuat_buzzer_relay();          
.................... } 
.................... //xxxxxxxxxxxxxxxxxxxxxxxxxxxxxxxxxxxxxxxxxxxxxxxxxxxxxxxx 
.................... //ham 806: dk Relay 1 off 
.................... //xxxxxxxxxxxxxxxxxxxxxxxxxxxxxxxxxxxxxxxxxxxxxxxxxxxxxxxx 
.................... void relay_1_off() 
.................... {     
....................    relay_1=0; 
....................    xuat_buzzer_relay();          
.................... } 
.................... //xxxxxxxxxxxxxxxxxxxxxxxxxxxxxxxxxxxxxxxxxxxxxxxxxxxxxxxx 
.................... //ham 807: dk Relay 2 on 
.................... //xxxxxxxxxxxxxxxxxxxxxxxxxxxxxxxxxxxxxxxxxxxxxxxxxxxxxxxx 
.................... void relay_2_on() 
.................... {     
....................    relay_2=1; 
....................    xuat_buzzer_relay();          
.................... } 
.................... //xxxxxxxxxxxxxxxxxxxxxxxxxxxxxxxxxxxxxxxxxxxxxxxxxxxxxxxx 
.................... //ham 808: dk Relay 2 off 
.................... //xxxxxxxxxxxxxxxxxxxxxxxxxxxxxxxxxxxxxxxxxxxxxxxxxxxxxxxx 
.................... void relay_2_off() 
.................... {     
....................    relay_2=0; 
....................    xuat_buzzer_relay();          
.................... } 
.................... //xxxxxxxxxxxxxxxxxxxxxxxxxxxxxxxxxxxxxxxxxxxxxxxxxxxxxxxx 
.................... //ham 809: dk 2 Relay ON 
.................... //xxxxxxxxxxxxxxxxxxxxxxxxxxxxxxxxxxxxxxxxxxxxxxxxxxxxxxxx 
.................... void relay_1_relay_2_on() 
.................... {     
....................    relay_1=1;  relay_2=1; 
....................    xuat_buzzer_relay();          
.................... } 
.................... //xxxxxxxxxxxxxxxxxxxxxxxxxxxxxxxxxxxxxxxxxxxxxxxxxxxxxxxx 
.................... //ham 810: dk 2 Relay Off 
.................... //xxxxxxxxxxxxxxxxxxxxxxxxxxxxxxxxxxxxxxxxxxxxxxxxxxxxxxxx 
.................... void relay_1_relay_2_off() 
.................... {     
....................    relay_1=0;  relay_2=0; 
....................    xuat_buzzer_relay();          
.................... } 
.................... //xxxxxxxxxxxxxxxxxxxxxxxxxxxxxxxxxxxxxxxxxxxxxxxxxxxxxxxx 
.................... //ham 811: dk triac 1 on 
.................... //xxxxxxxxxxxxxxxxxxxxxxxxxxxxxxxxxxxxxxxxxxxxxxxxxxxxxxxx 
.................... void triac_1_on() 
.................... {     
....................    triac_1=1; 
....................    xuat_buzzer_relay();          
.................... } 
.................... //xxxxxxxxxxxxxxxxxxxxxxxxxxxxxxxxxxxxxxxxxxxxxxxxxxxxxxxx 
.................... //ham 812: dk triac 1 off 
.................... //xxxxxxxxxxxxxxxxxxxxxxxxxxxxxxxxxxxxxxxxxxxxxxxxxxxxxxxx 
.................... void triac_1_off() 
.................... {     
....................    triac_1=0; 
....................    xuat_buzzer_relay();          
.................... } 
.................... //xxxxxxxxxxxxxxxxxxxxxxxxxxxxxxxxxxxxxxxxxxxxxxxxxxxxxxxx 
.................... //ham 813: dk triac 2 on 
.................... //xxxxxxxxxxxxxxxxxxxxxxxxxxxxxxxxxxxxxxxxxxxxxxxxxxxxxxxx 
.................... void triac_2_on() 
.................... {     
....................    triac_2=1; 
....................    xuat_buzzer_relay();          
.................... } 
.................... //xxxxxxxxxxxxxxxxxxxxxxxxxxxxxxxxxxxxxxxxxxxxxxxxxxxxxxxx 
.................... //ham 814: dk triac 2 off 
.................... //xxxxxxxxxxxxxxxxxxxxxxxxxxxxxxxxxxxxxxxxxxxxxxxxxxxxxxxx 
.................... void triac_2_off()               
.................... {                                                        
....................    triac_2=0; 
....................    xuat_buzzer_relay();          
.................... }        
....................  
.................... #include <tv_07_adc_cb.c>                                           
.................... //xxxxxxxxxxxxxxxxxxxxxxxxxxxxxxxxxxxxxxxxxxxxxxxxxxxxxxxx 
.................... //NGUYEN DINH PHU SU PHAM KY THUAT TP HCM 
.................... //xxxxxxxxxxxxxxxxxxxxxxxxxxxxxxxxxxxxxxxxxxxxxxxxxxxxxxxx 
....................  
.................... //xxxxxxxxxxxxxxxxxxxxxxxxxxxxxxxxxxxxxxxxxxxxxxxxxxxxxxxx 
.................... //xxxxxxxxxxxxxxxxxxxxxxxxxxxxxxxxxxxxxxxxxxxxxxxxxxxxxxxx 
.................... //ham 701: chuyen doi theo kenh va so lan, tra ve T/F  
.................... //xxxxxxxxxxxxxxxxxxxxxxxxxxxxxxxxxxxxxxxxxxxxxxxxxxxxxxxx    
.................... //xxxxxxxxxxxxxxxxxxxxxxxxxxxxxxxxxxxxxxxxxxxxxxxxxxxxxxxx  
.................... //dinh nghia cac kenh ADC noi voi cac cam bien  
.................... #define chan_lm35a   0                         
.................... #define chan_lm35b   1 
.................... #define chan_cbkc    2 
.................... //xxxxxxxxxxxxxxxxxxxxxxxxxxxxxxxxxxxxxxxxxxxxxxxxxxxxxxxx   
.................... float h701_adc_read(usi8 solan,chan_i)                       
.................... { 
....................    float kq_adc; 
....................    set_adc_channel(chan_i);                
*
2AC0:  MOVLB  4
2AC2:  RLCF   xB4,W
2AC4:  MOVWF  00
2AC6:  RLCF   00,F
2AC8:  MOVLW  FC
2ACA:  ANDWF  00,F
2ACC:  MOVF   FC2,W
2ACE:  ANDLW  C3
2AD0:  IORWF  00,W
2AD2:  MOVWF  FC2
....................    delay_us(20);                                           
2AD4:  MOVLW  20
2AD6:  MOVWF  00
2AD8:  DECFSZ 00,F
2ADA:  BRA    2AD8
2ADC:  BRA    2ADE
2ADE:  NOP   
....................    kq_adc = 0;              
2AE0:  CLRF   xB8
2AE2:  CLRF   xB7
2AE4:  CLRF   xB6
2AE6:  CLRF   xB5
....................    for(int8 i=0;i<solan;i++)   
2AE8:  CLRF   xB9
2AEA:  MOVF   xB3,W
2AEC:  SUBWF  xB9,W
2AEE:  BC    2B44
....................    { 
....................       kq_adc = kq_adc + read_adc();                         
2AF0:  BSF    FC2.1
2AF2:  BTFSC  FC2.1
2AF4:  BRA    2AF2
2AF6:  MOVFF  FC4,03
2AFA:  MOVFF  FC3,4EF
2AFE:  MOVFF  FC4,4F0
2B02:  MOVLB  0
2B04:  CALL   16B4
2B08:  BCF    FD8.1
2B0A:  MOVFF  4B8,4F2
2B0E:  MOVFF  4B7,4F1
2B12:  MOVFF  4B6,4F0
2B16:  MOVFF  4B5,4EF
2B1A:  MOVFF  03,4F6
2B1E:  MOVFF  02,4F5
2B22:  MOVFF  01,4F4
2B26:  MOVFF  00,4F3
2B2A:  CALL   16EA
2B2E:  MOVFF  03,4B8
2B32:  MOVFF  02,4B7
2B36:  MOVFF  01,4B6
2B3A:  MOVFF  00,4B5
2B3E:  MOVLB  4
2B40:  INCF   xB9,F
2B42:  BRA    2AEA
....................    } 
....................    kq_adc = kq_adc/solan;      
2B44:  CLRF   xF0
2B46:  MOVFF  4B3,4EF
2B4A:  MOVLB  0
2B4C:  CALL   16B4
2B50:  MOVFF  4B8,4BD
2B54:  MOVFF  4B7,4BC
2B58:  MOVFF  4B6,4BB
2B5C:  MOVFF  4B5,4BA
2B60:  MOVFF  03,4C1
2B64:  MOVFF  02,4C0
2B68:  MOVFF  01,4BF
2B6C:  MOVFF  00,4BE
2B70:  CALL   149E
2B74:  MOVFF  03,4B8
2B78:  MOVFF  02,4B7
2B7C:  MOVFF  01,4B6
2B80:  MOVFF  00,4B5
....................    return kq_adc;  
2B84:  MOVFF  4B5,00
2B88:  MOVFF  4B6,01
2B8C:  MOVFF  4B7,02
2B90:  MOVFF  4B8,03
2B94:  RETURN 0
.................... } 
.................... //xxxxxxxxxxxxxxxxxxxxxxxxxxxxxxxxxxxxxxxxxxxxxxxxxxxxxxxx 
.................... //ham 702: tach so thuc thanh phan nguyen va thap phan 
.................... //xxxxxxxxxxxxxxxxxxxxxxxxxxxxxxxxxxxxxxxxxxxxxxxxxxxxxxxx   
.................... usi16 so_ng,so_tp; 
.................... void float_to_ng_2so_tp(float st)                       
.................... {    
....................    so_ng = st/1;       //nguyen                           
2B96:  MOVFF  4B6,4BD
2B9A:  MOVFF  4B5,4BC
2B9E:  MOVFF  4B4,4BB
2BA2:  MOVFF  4B3,4BA
2BA6:  MOVLB  4
2BA8:  CLRF   xC1
2BAA:  CLRF   xC0
2BAC:  CLRF   xBF
2BAE:  MOVLW  7F
2BB0:  MOVWF  xBE
2BB2:  MOVLB  0
2BB4:  CALL   149E
2BB8:  MOVFF  03,4EE
2BBC:  MOVFF  02,4ED
2BC0:  MOVFF  01,4EC
2BC4:  MOVFF  00,4EB
2BC8:  CALL   1678
2BCC:  MOVFF  02,2C
2BD0:  MOVFF  01,2B
....................    st = st-so_ng;      //tphan 
2BD4:  MOVFF  2C,4F0
2BD8:  MOVFF  2B,4EF
2BDC:  CALL   16B4
2BE0:  BSF    FD8.1
2BE2:  MOVFF  4B6,4F2
2BE6:  MOVFF  4B5,4F1
2BEA:  MOVFF  4B4,4F0
2BEE:  MOVFF  4B3,4EF
2BF2:  MOVFF  03,4F6
2BF6:  MOVFF  02,4F5
2BFA:  MOVFF  01,4F4
2BFE:  MOVFF  00,4F3
2C02:  CALL   16EA
2C06:  MOVFF  03,4B6
2C0A:  MOVFF  02,4B5
2C0E:  MOVFF  01,4B4
2C12:  MOVFF  00,4B3
....................    st = st*100;                                                          
2C16:  MOVFF  4B6,4F2
2C1A:  MOVFF  4B5,4F1
2C1E:  MOVFF  4B4,4F0
2C22:  MOVFF  4B3,4EF
2C26:  MOVLB  4
2C28:  CLRF   xF6
2C2A:  CLRF   xF5
2C2C:  MOVLW  48
2C2E:  MOVWF  xF4
2C30:  MOVLW  85
2C32:  MOVWF  xF3
2C34:  MOVLB  0
2C36:  CALL   13A8
2C3A:  MOVFF  03,4B6
2C3E:  MOVFF  02,4B5
2C42:  MOVFF  01,4B4
2C46:  MOVFF  00,4B3
....................    so_tp = st/1;    
2C4A:  MOVFF  4B6,4BD
2C4E:  MOVFF  4B5,4BC
2C52:  MOVFF  4B4,4BB
2C56:  MOVFF  4B3,4BA
2C5A:  MOVLB  4
2C5C:  CLRF   xC1
2C5E:  CLRF   xC0
2C60:  CLRF   xBF
2C62:  MOVLW  7F
2C64:  MOVWF  xBE
2C66:  MOVLB  0
2C68:  CALL   149E
2C6C:  MOVFF  03,4EE
2C70:  MOVFF  02,4ED
2C74:  MOVFF  01,4EC
2C78:  MOVFF  00,4EB
2C7C:  CALL   1678
2C80:  MOVFF  02,2E
2C84:  MOVFF  01,2D
2C88:  RETURN 0
.................... }  
.................... //xxxxxxxxxxxxxxxxxxxxxxxxxxxxxxxxxxxxxxxxxxxxxxxxxxxxxxxx    
.................... //xxxxxxxxxxxxxxxxxxxxxxxxxxxxxxxxxxxxxxxxxxxxxxxxxxxxxxxx 
.................... //ham 703: do nhiet lm35a, lm35b, dkhien den, bao dong 
.................... //xxxxxxxxxxxxxxxxxxxxxxxxxxxxxxxxxxxxxxxxxxxxxxxxxxxxxxxx    
.................... //xxxxxxxxxxxxxxxxxxxxxxxxxxxxxxxxxxxxxxxxxxxxxxxxxxxxxxxx    
.................... //!#define nd_tren  34                                                       
.................... //!#define nd_duoi  32     
.................... unsigned int16 nd_tren=34, nd_duoi=32; 
.................... int1 ttqn=0,buz_ena=0;              
.................... void so_sanh_1nd_dk_buzzer(usi16 nd1)                         
.................... {                                    
....................    if((nd1>nd_tren)&&(ttqn==0))         
....................    { 
....................       ttqn = 1;                                                               
....................       if(buz_ena)   buzzer_on();                                    
....................       triac_2_off();  
....................    }                                                                            
....................    else if((nd1<nd_tren)&&(ttqn==1)) 
....................    { 
....................       ttqn = 0;  
....................       buzzer_off(); 
....................    } 
....................    else if((nd1<nd_duoi)&&(ttqn==0))   
....................       triac_2_on(); 
.................... }    
....................  
.................... void so_sanh_1nd(usi16 nd1) 
.................... { 
....................    if((nd1>nd_tren)&&(ttqn==0))         
....................    { 
....................       ttqn = 1;                                                               
....................       if(buz_ena)   buzzer_on();                                    
....................       triac_2_off(); //triac 2 dieu khien den gia nhiet 
....................    }                                                                            
....................    else if((nd1<nd_tren)&&(ttqn==1)) 
....................    { 
....................       ttqn = 0;  
....................       if(buz_ena)   buzzer_off();//tat bao dong 
....................    } 
....................    else if((nd1<nd_duoi)&&(ttqn==0))   
....................       triac_2_on(); //mo den gia nhiet 
....................    xuat_32led_don_1dw(0x000ff000); 
.................... } 
....................  
.................... void so_sanh_and_2nd(usi16 nd1, usi16 nd2) 
.................... { 
....................    if((nd1>nd_tren)&&(nd2>nd_tren)&&(ttqn==0))         
....................    { 
....................       ttqn = 1;                                                               
....................       if(buz_ena)   buzzer_on();                                    
....................       triac_2_off(); //triac 2 dieu khien den gia nhiet 
....................    }                                                                            
....................    else if((nd1<nd_tren)&&(nd2<nd_tren)&&(ttqn==1)) 
....................    { 
....................       ttqn = 0;  
....................       if(buz_ena)   buzzer_off();//tat bao dong 
....................    } 
....................    else if((nd1<nd_duoi)&&(nd2<nd_duoi)&&(ttqn==0))   
....................       triac_2_on(); //mo den gia nhiet 
....................    xuat_32led_don_1dw(0x000ff000); 
.................... } 
....................  
.................... void so_sanh_or_2nd(usi16 nd1, usi16 nd2) 
.................... { 
....................    if(((nd1>nd_tren)||(nd2>nd_tren))&&(ttqn==0))         
....................    { 
....................       ttqn = 1;                                                               
....................       if(buz_ena)   buzzer_on();                                    
....................       triac_2_off(); //triac 2 dieu khien den gia nhiet 
....................    }                                                                            
....................    else if(((nd1<nd_tren)&&(nd2<nd_tren))&&(ttqn==1)) 
....................    { 
....................       ttqn = 0;  
....................       if(buz_ena)   buzzer_off();//tat bao dong 
....................    } 
....................    else if(((nd1<nd_duoi)||(nd2<nd_duoi))&&(ttqn==0))   
....................       triac_2_on(); //mo den gia nhiet 
....................    xuat_32led_don_1dw(0x000ff000); 
.................... } 
....................  
.................... //ham so sanh nhiet do dieu khien buzzer, den (nd1,nd2,sel) 
.................... void so_sanh_nd_dk_buzzer(usi16 nd1, usi16 nd2, int8 sel) 
.................... { 
....................    if(sel==1)        so_sanh_1nd(nd1); 
....................    else if(sel==2)   so_sanh_and_2nd(nd1,nd2); 
....................    else if(sel==3)   so_sanh_or_2nd(nd1,nd2); 
.................... } 
....................  
.................... //xxxxxxxxxxxxxxxxxxxxxxxxxxxxxxxxxxxxxxxxxxxxxxxxxxxxxxxx     
.................... //xxxxxxxxxxxxxxxxxxxxxxxxxxxxxxxxxxxxxxxxxxxxxxxxxxxxxxxx 
.................... //bai 711: doc gia tri cua joystick hien thi lcd           
.................... //xxxxxxxxxxxxxxxxxxxxxxxxxxxxxxxxxxxxxxxxxxxxxxxxxxxxxxxx 
.................... //xxxxxxxxxxxxxxxxxxxxxxxxxxxxxxxxxxxxxxxxxxxxxxxxxxxxxxxx    
.................... //!void h711_lcd_hien_thi_joystick(usi8 x,y)                                  
.................... //!{                                              
.................... //!   lcd_goto_xy(0,0);                                                         
.................... //!   lcd_data("JOYSTICK"); 
.................... //!   lcd_goto_xy(1,4);                                                         
.................... //!   lcd_data("VRX:"); 
.................... //!   lcd_goto_xy(3,4);                                                         
.................... //!   lcd_data("VRY:"); 
.................... //!}  
.................... //! 
.................... //xxxxxxxxxxxxxxxxxxxxxxxxxxxxxxxxxxxxxxxxxxxxxxxxxxxxxxxx 
.................... //vrx noi kenh thu 1 AN1, vry noi voi an2 
.................... //cho phep hien thi 2 so thap phan tuy thuoc vao http 
.................... //dung bien nguyen tam de khi bang thi khong can hthi lai 
.................... //xxxxxxxxxxxxxxxxxxxxxxxxxxxxxxxxxxxxxxxxxxxxxxxxxxxxxxxx 
.................... //!usi16 vrx_ng,vrx_ngt; 
.................... //!void h711_adc_js_vrx_doc_xuly(usi8 solan)                                      
.................... //!{                                               
.................... //!   float vrx; 
.................... //!   vrx=h701_adc_read(solan,chan_js_vrx); 
.................... //!   h701_foat_to_ng_2so_tp(vrx);       
.................... //!   vrx_ng = so_ng; 
.................... //!} 
.................... //!//xxxxxxxxxxxxxxxxxxxxxxxxxxxxxxxxxxxxxxxxxxxxxxxxxxxxxxxx 
.................... //!void h711_adc_js_vrx_ht_lcd_7doan(usi8 x,y,z,int1 ht_l7d,ht_lcd)                                      
.................... //!{                                                  
.................... //!   if(vrx_ngt!=vrx_ng) 
.................... //!   { 
.................... //!      vrx_ngt=vrx_ng; 
.................... //!      if(ht_l7d)   
.................... //!      { 
.................... //!         giaima_bin_4so_vitri_vn(vrx_ng,z,cx_vn);  //4 
.................... //!         xuat_8led_7doan();  
.................... //!      } 
.................... //!      if(ht_lcd) lcd_gm_ht_4so_to_xvn(vrx_ng,x,y,kx_vn);//0,8 
.................... //!   }           
.................... //!}   
.................... //!//xxxxxxxxxxxxxxxxxxxxxxxxxxxxxxxxxxxxxxxxxxxxxxxxxxxxxxxx 
.................... //!void h711_adc_js_vrx_all(usi8 solan, x,y,z,int1 ht_l7d,ht_lcd)                                      
.................... //!{                                                  
.................... //!     h711_adc_js_vrx_doc_xuly(solan); 
.................... //!     h711_adc_js_vrx_ht_lcd_7doan(x,y,z,ht_l7d,ht_lcd); 
.................... //!}   
.................... //! 
.................... //!//xxxxxxxxxxxxxxxxxxxxxxxxxxxxxxxxxxxxxxxxxxxxxxxxxxxxxxxx 
.................... //!usi16 vry_ng,vry_ngt; 
.................... //!void h712_adc_js_vry_doc_xuly(usi8 solan)                                      
.................... //!{                                            
.................... //!   float vry;   
.................... //!   vry=h701_adc_read(solan,chan_js_vry); 
.................... //!   h701_foat_to_ng_2so_tp(vry);       
.................... //!   vry_ng = so_ng; 
.................... //!} 
.................... //! 
.................... //!void h712_adc_js_vry_ht_lcd_7doan(usi8 x,y,z,int1 ht_l7d,ht_lcd)                                      
.................... //!{                                              
.................... //!   if(vry_ngt!=vry_ng) 
.................... //!   { 
.................... //!      vry_ngt=vry_ng; 
.................... //!      if(ht_l7d)   
.................... //!      {   
.................... //!         giaima_bin_4so_vitri_vn(vry_ng,z,cx_vn);//0 
.................... //!         xuat_8led_7doan(); 
.................... //!      }                   
.................... //!      if(ht_lcd) lcd_gm_ht_4so_to_xvn(vry_ng,x,y,kx_vn);//2,8 
.................... //!   }                              
.................... //!}   
.................... //!  
.................... //!void h712_adc_js_vry_all(usi8 solan,x,y,z,int1 ht_l7d,ht_lcd )                                      
.................... //!{  
.................... //!   h712_adc_js_vry_doc_xuly(solan); 
.................... //!   h712_adc_js_vry_ht_lcd_7doan(x,y,z,ht_l7d,ht_lcd); 
.................... //!}      
....................  
.................... //xxxxxxxxxxxxxxxxxxxxxxxxxxxxxxxxxxxxxxxxxxxxxxxxxxxxxxxx 
.................... //ham kiem tra phim on                           
.................... //neu co nhan thi dao bit tt_on_off va tra ve co nhan 
.................... //neu khong nhan tra ve tt khong nhan 
.................... //xxxxxxxxxxxxxxxxxxxxxxxxxxxxxxxxxxxxxxxxxxxxxxxxxxxxxxxx      
.................... //!int1 phim_on_off_btn_joy()    
.................... //!{                      
.................... //!   if(phim_bt_joy_c1(c_ktnp,0)==co_nhan)    
.................... //!   { 
.................... //!      tt_on_off = ~tt_on_off; 
.................... //!      return co_nhan;    
.................... //!   }                                     
.................... //!   else   return khong_nhan;                    
.................... //!}   
.................... //!//xxxxxxxxxxxxxxxxxxxxxxxxxxxxxxxxxxxxxxxxxxxxxxxxxxxxxxxx 
.................... //!void h713_32led_on_off_btj()        
.................... //!{                               
.................... //!   tt_1btn = phim_on_off_btn_joy(); 
.................... //!   if(tt_1btn==co_nhan)               
.................... //!      h323_dk_32led_theo_tt_on_off(); 
.................... //!}             
....................  
....................  
.................... //!void b711_adc_joystick(usi8 solan,x,y,z,int1 ht_l7d,ht_lcd)                                      
.................... //!{                                            
.................... //!   h711_adc_js_vrx_all(solan,x,y,z,ht_l7d,ht_lcd);                                                                 
.................... //!   h711_adc_js_vry_all(solan);                       
.................... //!   h711_32led_on_off_btj();              
.................... //!}   
....................  
.................... //xxxxxxxxxxxxxxxxxxxxxxxxxxxxxxxxxxxxxxxxxxxxxxxxxxxxxxxx     
.................... //xxxxxxxxxxxxxxxxxxxxxxxxxxxxxxxxxxxxxxxxxxxxxxxxxxxxxxxx 
.................... //bai 711: doc gia tri cua joystick hien thi lcd           
.................... //xxxxxxxxxxxxxxxxxxxxxxxxxxxxxxxxxxxxxxxxxxxxxxxxxxxxxxxx 
.................... //xxxxxxxxxxxxxxxxxxxxxxxxxxxxxxxxxxxxxxxxxxxxxxxxxxxxxxxx    
....................  
.................... //xxxxxxxxxxxxxxxxxxxxxxxxxxxxxxxxxxxxxxxxxxxxxxxxxxxxxxxx 
.................... //ham kiem tra phim on                           
.................... //neu co nhan thi dao bit tt_on_off va tra ve co nhan 
.................... //neu khong nhan tra ve tt khong nhan 
.................... //xxxxxxxxxxxxxxxxxxxxxxxxxxxxxxxxxxxxxxxxxxxxxxxxxxxxxxxx                                                    
....................                                                                     
.................... //xxxxxxxxxxxxxxxxxxxxxxxxxxxxxxxxxxxxxxxxxxxxxxxxxxxxxxxx     
.................... //xxxxxxxxxxxxxxxxxxxxxxxxxxxxxxxxxxxxxxxxxxxxxxxxxxxxxxxx 
.................... //ham 712: do nhiet lm35a, dkhien den, bao dong           
.................... //xxxxxxxxxxxxxxxxxxxxxxxxxxxxxxxxxxxxxxxxxxxxxxxxxxxxxxxx 
.................... //xxxxxxxxxxxxxxxxxxxxxxxxxxxxxxxxxxxxxxxxxxxxxxxxxxxxxxxx 
.................... //!void b712_adc_lm35a_lm35b_joystick()                                      
.................... //!{ 
.................... //!          
.................... //!}  
.................... //!  
.................... //xxxxxxxxxxxxxxxxxxxxxxxxxxxxxxxxxxxxxxxxxxxxxxxxxxxxxxxx       
.................... //ham 712: do nhiet lm35a, lm35b, dkhien den, bao dong 
.................... //xxxxxxxxxxxxxxxxxxxxxxxxxxxxxxxxxxxxxxxxxxxxxxxxxxxxxxxx    
....................      
.................... //xxxxxxxxxxxxxxxxxxxxxxxxxxxxxxxxxxxxxxxxxxxxxxxxxxxxxxxx   
.................... //xxxxxxxxxxxxxxxxxxxxxxxxxxxxxxxxxxxxxxxxxxxxxxxxxxxxxxxx 
.................... //ham 721: do nhiet lm35a, lm35b, dkhien den, bao dong 
.................... //xxxxxxxxxxxxxxxxxxxxxxxxxxxxxxxxxxxxxxxxxxxxxxxxxxxxxxxx   
.................... //xxxxxxxxxxxxxxxxxxxxxxxxxxxxxxxxxxxxxxxxxxxxxxxxxxxxxxxx  
.................... //!void h721_lcd_ht_text_cbkc_gp2d12()                             
.................... //!{                                              
.................... //!   lcd_goto_xy(0,0);                                                         
.................... //!   lcd_data("Cam bien khoang cach");  
.................... //!   lcd_goto_xy(1,0);                                                         
.................... //!   lcd_data("SHARP GP2D12:10-80cm");     
.................... //!}   
.................... //!//xxxxxxxxxxxxxxxxxxxxxxxxxxxxxxxxxxxxxxxxxxxxxxxxxxxxxxxx  
.................... //!usi16 kc_ng,kc_tp,kc_ngt=0; 
.................... //!void h721_adc_cbkc_gp2d12_doc_xuly(usi8 sl)                                      
.................... //!{                 
.................... //!   float kc;   
.................... //!   kc=h701_adc_read(sl,chan_cbkc); 
.................... //!   kc = pow(4277/kc,1.106);                                     
.................... //!   if(kc>80) kc=80;   
.................... //!   h701_foat_to_ng_2so_tp(kc);       
.................... //!   kc_ng = so_ng;                               
.................... //!   kc_tp = so_tp;  
.................... //!}     
.................... //!//xxxxxxxxxxxxxxxxxxxxxxxxxxxxxxxxxxxxxxxxxxxxxxxxxxxxxxxx 
.................... //!void h721_adc_cbkc_gp2d12_ht_lcd_7doan(usi8 x,y,z,int1 ht_l7d,ht_lcd,ht_tp)                                      
.................... //!{                 
.................... //!   if(kc_ngt!=kc_ng) 
.................... //!   { 
.................... //!      kc_ngt=kc_ng;       
.................... //!      if(ht_l7d)  
.................... //!      { 
.................... //!         giaima_bin_2so_vitri_vn(kc_ng,z,cx_vn);//3 
.................... //!         xuat_8led_7doan(); 
.................... //!      } 
.................... //!      if(ht_lcd) lcd_gm_ht_2so_to_xvn(kc_ng,x,y,kx_vn);//2,0 
.................... //!   } 
.................... //!   if(ht_tp) lcd_hien_thi_2so_tp_nho(kc_tp,x+1,y+6);   
.................... //!} 
.................... //!//xxxxxxxxxxxxxxxxxxxxxxxxxxxxxxxxxxxxxxxxxxxxxxxxxxxxxxxx 
.................... //!void b721_adc_cbkc_gp2d12_all(usi8 solan,x,y,z,int1 ht_l7d,ht_lcd,ht_tp)                                      
.................... //!{ 
.................... //!   h721_adc_cbkc_gp2d12_doc_xuly(solan); 
.................... //!   h721_adc_cbkc_gp2d12_ht_lcd_7doan(x,y,z,ht_l7d,ht_lcd,ht_tp); 
.................... //!}     
.................... //xxxxxxxxxxxxxxxxxxxxxxxxxxxxxxxxxxxxxxxxxxxxxxxxxxxxxxxx   
.................... //xxxxxxxxxxxxxxxxxxxxxxxxxxxxxxxxxxxxxxxxxxxxxxxxxxxxxxxx 
.................... //ham 721: do nhiet lm35a, lm35b, dkhien den, bao dong 
.................... //xxxxxxxxxxxxxxxxxxxxxxxxxxxxxxxxxxxxxxxxxxxxxxxxxxxxxxxx   
.................... //xxxxxxxxxxxxxxxxxxxxxxxxxxxxxxxxxxxxxxxxxxxxxxxxxxxxxxxx   
....................   
.................... //!void b722_adc_lm35a_lm35a_joystick_cbkc()                                      
.................... //!{                                                         
.................... //!      giaima_bin_2so_vitri_vn(lm35b/1,2,kx_vn);                                               
.................... //!      giaima_bin_2so_vitri_vn(lm35a/1,0,kx_vn);                 
.................... //!      xuat_8led_7doan();                                                  
.................... //!      h701_lcd_hien_thi_so_tp(lm35a,1,0,sole_1);   
.................... //!      h701_lcd_hien_thi_so_tp(lm35b,1,7,sole_1);     
.................... //!      h701_lcd_hien_thi_so_tp(vrx,3,0,sole_1);          
.................... //!      h701_lcd_hien_thi_so_tp(vry,3,7,sole_1);           
.................... //!      h701_lcd_hien_thi_so_tp(cb_kc,1,14,sole_1);                           
.................... //!}      
.................... //xxxxxxxxxxxxxxxxxxxxxxxxxxxxxxxxxxxxxxxxxxxxxxxxxxxxxxxx 
.................... //ham 721: do nhiet lm35a, lm35b, dkhien den, bao dong 
.................... //xxxxxxxxxxxxxxxxxxxxxxxxxxxxxxxxxxxxxxxxxxxxxxxxxxxxxxxx   
.................... //!//xxxxxxxxxxxxxxxxxxxxxxxxxxxxxxxxxxxxxxxxxxxxxxxxxxxxxxxx 
.................... //!void h731_lcd_hien_thi_hcsr04(usi8 x,y)                             
.................... //!{                                              
.................... //!   lcd_goto_xy(x,y);                                                         
.................... //!   lcd_data("HCSR04");                                            
.................... //!}               
.................... //!void h731_hcsr04_do_khoangcach()                               
.................... //!{                                                              
.................... //!   output_high(trig);       
.................... //!   delay_us(20);    
.................... //!   output_low(trig);           
.................... //!                                            
.................... //!   set_timer3(0);                                           
.................... //!   while(!(input(echo)));          
.................... //!   setup_timer_3(t3_internal|t3_div_by_8);   
.................... //!                                 
.................... //!   while(input(echo));                                    
.................... //!   setup_timer_3(t3_disabled); 
.................... //!                                                  
.................... //!} 
.................... //! 
.................... //!usi16 gt_t3,kcsa_ng,kcsa_tp,kcsa_ngt=0; 
.................... //!void h731_cbkc_hc04_do_xuly()                                      
.................... //!{                   
.................... //!   float kcsa;   
.................... //!   h731_hcsr04_do_khoangcach(); 
.................... //!   gt_t3 = get_timer3(); 
.................... //!  
.................... //!   kcsa = gt_t3*1.6;                                               
.................... //!   kcsa = (kcsa/58); 
.................... //!    
.................... //!   h701_foat_to_ng_2so_tp(kcsa);       
.................... //!   kcsa_ng = so_ng; 
.................... //!   kcsa_tp = so_tp;  
.................... //!} 
.................... //! 
.................... //!void h731_cbkc_hc04_ht_lcd_7doan(usi8 x,y,z,int1 ht_l7d,ht_lcd)                                      
.................... //!{                     
.................... //!   if(kcsa_ngt!=kcsa_ng) 
.................... //!   { 
.................... //!      kcsa_ngt=kcsa_ng; 
.................... //!      if(ht_l7d)         
.................... //!      {   
.................... //!         giaima_bin_4so_vitri_vn(kcsa_ng,z,cx_vn); //0 
.................... //!         xuat_8led_7doan(); 
.................... //!      } 
.................... //!      if(ht_lcd)lcd_gm_ht_4so_to_xvn(kcsa_ng,x,y,kx_vn);//2,8 
.................... //!   }   
.................... //!} 
.................... //! 
.................... //!void h731_cbkc_hc04_all(usi8 x,y,z,int1 ht_l7d,ht_lcd)                                      
.................... //!{     
.................... //!   h731_cbkc_hc04_do_xuly(); 
.................... //!   h731_cbkc_hc04_ht_lcd_7doan(x,y,z,ht_l7d,ht_lcd); 
.................... //!} 
.................... //!//xxxxxxxxxxxxxxxxxxxxxxxxxxxxxxxxxxxxxxxxxxxxxxxxxxxxxxxx 
.................... //! 
.................... //!//xxxxxxxxxxxxxxxxxxxxxxxxxxxxxxxxxxxxxxxxxxxxxxxxxxxxxxxx 
.................... //!void b761_ket_hop_5_module()                             
.................... //!{                                                                   
.................... //!     //b622_glcd_dem_giay_kim_c1();      
.................... //!     //b536_lcd_dem_xung_timer0_so_to(); 
.................... //!     b424_gpg_3bt(20,10);                  
.................... //!     b351_32led_4yc_tu_dong_if();             
....................      //h761_adc_lm35a_lm35b_joystick_cbkc_hc04();   
.................... //!}                                                  
.................... //!//xxxxxxxxxxxxxxxxxxxxxxxxxxxxxxxxxxxxxxxxxxxxxxxxxxxxxxxx 
.................... //!//bai 643: ham chinh ket hop 32 led, 8 led 7doan, lcd, glcd         
.................... //!//xxxxxxxxxxxxxxxxxxxxxxxxxxxxxxxxxxxxxxxxxxxxxxxxxxxxxxxx   
.................... //!void b742_lcd_dem_xung_timer0_so_to()                                                   
.................... //!{                                                                       
.................... //!   t0 = get_timer0();                                       
.................... //!   if(t0!=t0_tam)               
.................... //!   {                                                          
.................... //!      giaima_bin_3so_vitri_vn(t0,0,cx_vn);            
.................... //!      h536_giai_ma_ht_so_to(t0);  
.................... //!      //h603_glcd_giai_ma_hien_thi(glcd_addr_line1,t0);  
.................... //!      t0_tam = t0;                    
.................... //!   }                                                                                
.................... //!   if (t0>=120)   set_timer0(0);                                                  
.................... //!}  
.................... //!  
.................... //!void b742_ket_hop_5_module()                             
.................... //!{                                                                   
.................... //!     //b622_glcd_dem_giay_kim_c1(); 
.................... //!      
.................... //!     b742_lcd_dem_xung_timer0_so_to(); 
.................... //!     b424_gpg_3bt(20,10);                  
.................... //!     b351_32led_4yc_tu_dong_if();                                               
.................... //!} 
.................... //!  
.................... //!           
....................  
.................... #include <tv_07_ds18b20.c>  
.................... //xxxxxxxxxxxxxxxxxxxxxxxxxxxxxxxxxxxxxxxxxxxxxxxxxxxxxxxx 
.................... //NGUYEN DINH PHU SU PHAM KY THUAT TP HCM 
.................... //xxxxxxxxxxxxxxxxxxxxxxxxxxxxxxxxxxxxxxxxxxxxxxxxxxxxxxxx 
....................  
.................... //xxxxxxxxxxxxxxxxxxxxxxxxxxxxxxxxxxxxxxxxxxxxxxxxxxxxxxxx 
.................... //dinh nghia chan giao tiep, thu vien, cac lenh ds13b20       
.................... //xxxxxxxxxxxxxxxxxxxxxxxxxxxxxxxxxxxxxxxxxxxxxxxxxxxxxxxx  
.................... #define  touch_pin pin_a5   
.................... #include <touch.c>                               
.................... /////////////////////////////////////////////////////////////////////////// 
.................... ////                        Dallas Touch Driver                        //// 
.................... ////                                                                   //// 
.................... ////                                                                   //// 
.................... ////  data = touch_read_bit()     Reads one bit from a touch device    //// 
.................... ////                                                                   //// 
.................... ////  data = touch_read_BYTE()    Reads one byte from a touch device.  //// 
.................... ////                                                                   //// 
.................... ////  ok = touch_write_bit(data)  Writes one bit to a touch device     //// 
.................... ////                              and returns true if all went ok.     //// 
.................... ////                              A false indicates a collision with   //// 
.................... ////                              another device.                      //// 
.................... ////                                                                   //// 
.................... ////  ok = touch_write_byte(data) Writes one byte to a touch device    //// 
.................... ////                              and returns true if all went ok.     //// 
.................... ////                              A false indicates a collision with   //// 
.................... ////                              another device.                      //// 
.................... ////                                                                   //// 
.................... ////  present = touch_present()   Issues a reset and returns true      //// 
.................... ////                              if the touch device is there.        //// 
.................... ////                                                                   //// 
.................... ////  reset_pulse()               Issues a reset and waits for a       //// 
.................... ////                              present pulse.                       //// 
.................... ////                                                                   //// 
.................... /////////////////////////////////////////////////////////////////////////// 
.................... ////        (C) Copyright 1996,2010 Custom Computer Services           //// 
.................... //// This source code may only be used by licensed users of the CCS C  //// 
.................... //// compiler.  This source code may only be distributed to other      //// 
.................... //// licensed users of the CCS C compiler.  No other use, reproduction //// 
.................... //// or distribution is permitted without written permission.          //// 
.................... //// Derivative programs created using this software in object code    //// 
.................... //// form are not restricted in any way.                               //// 
.................... /////////////////////////////////////////////////////////////////////////// 
....................  
.................... #ifndef  TOUCH_C 
.................... #define  TOUCH_C 
....................  
.................... #ifndef TOUCH_PIN 
....................    #define TOUCH_PIN  PIN_B0 
.................... #endif 
....................  
.................... #define TOUCH_PIN_LOW()    output_drive(TOUCH_PIN); output_low(TOUCH_PIN) 
.................... #define TOUCH_PIN_HIGH()    output_drive(TOUCH_PIN); output_high(TOUCH_PIN) 
.................... #define TOUCH_PIN_FLOAT()  output_float(TOUCH_PIN) 
.................... #define TOUCH_PIN_READ()      input_state(TOUCH_PIN) 
....................  
.................... ///////////////////////////// 
.................... ////                     //// 
.................... //// Function Prototypes //// 
.................... ////                     //// 
.................... ///////////////////////////// 
....................  
.................... /* 
.................... int1 touch_read_bit() 
.................... This will read back a bit from the DS1993 
.................... PARAMS: none 
.................... RETURNS: A bit from the DS1993 
.................... */ 
.................... int1 touch_read_bit(); 
....................  
.................... /* 
.................... BYTE touch_read_byte() 
.................... This will read back a byte from the DS1993 
.................... PARAMS: none 
.................... RETURNS: A byte from the DS1993 
.................... */ 
.................... BYTE touch_read_byte(); 
....................  
.................... /* 
.................... BOOLEAN touch_write_bit(int1 data) 
.................... This will write a bit to the DS1993 
.................... PARAMS: The bit to write 
.................... RETURNS: True if completed successfully, false if otherwise 
.................... */ 
.................... BOOLEAN touch_write_bit(int1 data); 
....................  
.................... /* 
.................... BOOLEAN touch_write_byte(BYTE data) 
.................... This will write a byte to the DS1993 
.................... PARAMS: The byte to write 
.................... RETURNS: True if completed successfully, false if otherwise 
.................... */ 
.................... BOOLEAN touch_write_byte(BYTE data); 
....................  
.................... /* 
.................... BOOLEAN touch_present() 
.................... This will evaluate whether or not there is a touch present on the DS1993 
.................... PARAMS: none 
.................... RETURNS: True if a touch is present, false if otherwise 
.................... */ 
.................... BOOLEAN touch_present(); 
....................  
.................... /* 
.................... void reset_pulse() 
.................... This will send the DS1993 a reset pulse 
.................... PARAMS: none 
.................... RETURNS: none 
.................... */ 
.................... void reset_pulse(); 
....................  
.................... ////////////////////////////////// 
.................... ////                          //// 
.................... //// Function Implementations //// 
.................... ////                          //// 
.................... ////////////////////////////////// 
....................  
.................... /* 
.................... int1 touch_read_bit() 
.................... This will read back a bit from the DS1993 
.................... PARAMS: none 
.................... RETURNS: A bit from the DS1993 
.................... */ 
.................... int1 touch_read_bit() 
.................... { 
....................    int1 data; 
....................  
....................    TOUCH_PIN_LOW(); 
*
25E0:  BCF    F92.5
25E2:  BCF    F92.5
25E4:  BCF    F89.5
....................    delay_us(14); 
25E6:  MOVLW  16
25E8:  MOVWF  00
25EA:  DECFSZ 00,F
25EC:  BRA    25EA
25EE:  BRA    25F0
25F0:  NOP   
....................    TOUCH_PIN_FLOAT(); 
25F2:  BSF    F92.5
....................    delay_us(5); 
25F4:  MOVLW  07
25F6:  MOVWF  00
25F8:  DECFSZ 00,F
25FA:  BRA    25F8
25FC:  BRA    25FE
25FE:  NOP   
....................    data = TOUCH_PIN_READ(); 
2600:  MOVLB  4
2602:  BCF    xB5.0
2604:  BTFSC  F80.5
2606:  BSF    xB5.0
....................    delay_us(100); 
2608:  MOVLW  A6
260A:  MOVWF  00
260C:  DECFSZ 00,F
260E:  BRA    260C
2610:  NOP   
....................  
....................    return data; 
2612:  MOVLW  00
2614:  BTFSC  xB5.0
2616:  MOVLW  01
2618:  MOVWF  01
261A:  MOVLB  0
261C:  GOTO   2630 (RETURN)
.................... } 
....................  
.................... /* 
.................... BYTE touch_read_byte() 
.................... This will read back a byte from the DS1993 
.................... PARAMS: none 
.................... RETURNS: A byte from the DS1993 
.................... */ 
.................... BYTE touch_read_byte() 
.................... { 
....................    BYTE i,data; 
....................  
....................    for(i=1; i <= 8; ++i) 
2620:  MOVLW  01
2622:  MOVLB  4
2624:  MOVWF  xB3
2626:  MOVF   xB3,W
2628:  SUBLW  08
262A:  BNC   2642
....................       shift_right(&data, 1, touch_read_bit()); 
262C:  MOVLB  0
262E:  BRA    25E0
2630:  MOVF   01,F
2632:  BNZ   2638
2634:  BCF    FD8.0
2636:  BRA    263A
2638:  BSF    FD8.0
263A:  MOVLB  4
263C:  RRCF   xB4,F
263E:  INCF   xB3,F
2640:  BRA    2626
....................  
....................    return data; 
2642:  MOVFF  4B4,01
2646:  MOVLB  0
2648:  RETURN 0
.................... } 
....................  
.................... /* 
.................... BOOLEAN touch_write_bit(int1 data) 
.................... This will write a bit to the DS1993 
.................... PARAMS: The bit to write 
.................... RETURNS: True if completed successfully, false if otherwise 
.................... */ 
.................... BOOLEAN touch_write_bit(int1 data) 
.................... { 
....................    TOUCH_PIN_LOW(); 
*
0966:  BCF    F92.5
0968:  BCF    F92.5
096A:  BCF    F89.5
....................    delay_us(10); 
096C:  MOVLW  10
096E:  MOVWF  00
0970:  DECFSZ 00,F
0972:  BRA    0970
0974:  NOP   
....................    if(data) 
0976:  MOVLB  4
0978:  MOVF   xB7,F
097A:  BZ    0998
....................    { 
....................       TOUCH_PIN_HIGH(); 
097C:  BCF    F92.5
097E:  BCF    F92.5
0980:  BSF    F89.5
....................       delay_us(10); 
0982:  MOVLW  10
0984:  MOVWF  00
0986:  DECFSZ 00,F
0988:  BRA    0986
098A:  NOP   
....................       if(!TOUCH_PIN_READ()) 
098C:  BTFSC  F80.5
098E:  BRA    0996
....................          return FALSE; 
0990:  MOVLW  00
0992:  MOVWF  01
0994:  BRA    09D4
....................    } 
0996:  BRA    09B2
....................    else 
....................    { 
....................       TOUCH_PIN_LOW(); 
0998:  BCF    F92.5
099A:  BCF    F92.5
099C:  BCF    F89.5
....................       delay_us(10); 
099E:  MOVLW  10
09A0:  MOVWF  00
09A2:  DECFSZ 00,F
09A4:  BRA    09A2
09A6:  NOP   
....................       if(TOUCH_PIN_READ()) 
09A8:  BTFSS  F80.5
09AA:  BRA    09B2
....................          return FALSE; 
09AC:  MOVLW  00
09AE:  MOVWF  01
09B0:  BRA    09D4
....................    } 
....................    delay_us(50); 
09B2:  MOVLW  52
09B4:  MOVWF  00
09B6:  DECFSZ 00,F
09B8:  BRA    09B6
09BA:  BRA    09BC
09BC:  NOP   
....................    TOUCH_PIN_HIGH(); 
09BE:  BCF    F92.5
09C0:  BCF    F92.5
09C2:  BSF    F89.5
....................    delay_us(50); 
09C4:  MOVLW  52
09C6:  MOVWF  00
09C8:  DECFSZ 00,F
09CA:  BRA    09C8
09CC:  BRA    09CE
09CE:  NOP   
....................    return TRUE; 
09D0:  MOVLW  01
09D2:  MOVWF  01
09D4:  MOVLB  0
09D6:  GOTO   09F8 (RETURN)
.................... } 
....................  
.................... /* 
.................... BOOLEAN touch_write_byte(BYTE data) 
.................... This will write a byte to the DS1993 
.................... PARAMS: The byte to write 
.................... RETURNS: True if completed successfully, false if otherwise 
.................... */ 
.................... BOOLEAN touch_write_byte(BYTE data) 
.................... { 
....................    BYTE i; 
....................  
....................    for(i=1; i<=8; ++i) 
09DA:  MOVLW  01
09DC:  MOVLB  4
09DE:  MOVWF  xB5
09E0:  MOVF   xB5,W
09E2:  SUBLW  08
09E4:  BNC   0A08
....................       if(!touch_write_bit(shift_right(&data, 1, 0))) 
09E6:  BCF    FD8.0
09E8:  RRCF   xB4,F
09EA:  MOVLW  00
09EC:  BTFSC  FD8.0
09EE:  MOVLW  01
09F0:  MOVWF  xB6
09F2:  MOVWF  xB7
09F4:  MOVLB  0
09F6:  BRA    0966
09F8:  MOVF   01,F
09FA:  BNZ   0A02
....................          return FALSE; 
09FC:  MOVLW  00
09FE:  MOVWF  01
0A00:  BRA    0A0E
0A02:  MOVLB  4
0A04:  INCF   xB5,F
0A06:  BRA    09E0
....................  
....................    return TRUE; 
0A08:  MOVLW  01
0A0A:  MOVWF  01
0A0C:  MOVLB  0
0A0E:  RETURN 0
.................... } 
....................  
.................... /* 
.................... BOOLEAN touch_present() 
.................... This will evaluate whether or not there is a touch present on the DS1993 
.................... PARAMS: none 
.................... RETURNS: True if a touch is present, false if otherwise 
.................... */ 
.................... BOOLEAN touch_present() 
.................... { 
....................    BOOLEAN present; 
....................    TOUCH_PIN_LOW(); 
*
090C:  BCF    F92.5
090E:  BCF    F92.5
0910:  BCF    F89.5
....................    delay_us(500); 
0912:  MOVLW  02
0914:  MOVLB  4
0916:  MOVWF  xB4
0918:  MOVLW  F9
091A:  MOVWF  xB5
091C:  MOVLB  0
091E:  RCALL  08EC
0920:  MOVLB  4
0922:  DECFSZ xB4,F
0924:  BRA    0918
....................    TOUCH_PIN_FLOAT(); 
0926:  BSF    F92.5
....................    delay_us(5); 
0928:  MOVLW  07
092A:  MOVWF  00
092C:  DECFSZ 00,F
092E:  BRA    092C
0930:  BRA    0932
0932:  NOP   
....................  
....................    if(!TOUCH_PIN_READ()) 
0934:  BTFSC  F80.5
0936:  BRA    093E
....................       return FALSE; 
0938:  MOVLW  00
093A:  MOVWF  01
093C:  BRA    0962
....................  
....................    delay_us(65); 
093E:  MOVLW  6B
0940:  MOVWF  00
0942:  DECFSZ 00,F
0944:  BRA    0942
0946:  BRA    0948
0948:  NOP   
....................    present = !TOUCH_PIN_READ(); 
094A:  BCF    xB3.0
094C:  BTFSS  F80.5
094E:  BSF    xB3.0
....................    delay_us(240); 
0950:  MOVLW  F0
0952:  MOVWF  xB5
0954:  MOVLB  0
0956:  RCALL  08EC
....................    return present; 
0958:  MOVLW  00
095A:  MOVLB  4
095C:  BTFSC  xB3.0
095E:  MOVLW  01
0960:  MOVWF  01
0962:  MOVLB  0
0964:  RETURN 0
.................... } 
....................  
.................... /* 
.................... void reset_pulse() 
.................... This will send the DS1993 a reset pulse 
.................... PARAMS: none 
.................... RETURNS: none 
.................... */ 
.................... void reset_pulse() 
.................... { 
....................    TOUCH_PIN_LOW(); 
....................    delay_us(500); 
....................    TOUCH_PIN_FLOAT(); 
....................    delay_us(5); 
....................    while(!touch_present()); 
.................... } 
....................  
....................  
.................... #endif 
....................  
.................... #define  search_rom       0xf0 
.................... #define  read_rom         0x33 
.................... #define  match_rom        0x55     
.................... #define  skip_rom         0xcc 
.................... #define  alarm_search     0xec 
.................... #define  read_scratchpad  0xbe  
.................... #define  write_scratchpad 0x4e                                
.................... #define  copy_scratchpad  0x48   
.................... #define  convert_t        0x44  
.................... //xxxxxxxxxxxxxxxxxxxxxxxxxxxxxxxxxxxxxxxxxxxxxxxxxxxxxxxx 
.................... //Thong bao khong co ds13b20       
.................... //xxxxxxxxxxxxxxxxxxxxxxxxxxxxxxxxxxxxxxxxxxxxxxxxxxxxxxxx  
.................... void ds18b20_no_ds18b()  
.................... {    
....................    lcd_goto_xy(0,0);        
*
2990:  MOVLB  4
2992:  CLRF   xBF
2994:  CLRF   xC0
2996:  MOVLB  0
2998:  CALL   0A5A
....................    lcd_data("NO DS18B20");  
299C:  MOVLW  06
299E:  MOVWF  FF6
29A0:  MOVLW  03
29A2:  MOVWF  FF7
29A4:  CALL   0A7E
29A8:  RETURN 0
.................... }  
.................... //xxxxxxxxxxxxxxxxxxxxxxxxxxxxxxxxxxxxxxxxxxxxxxxxxxxxxxxx 
.................... //ham khoi tao ds13b20       
.................... //xxxxxxxxxxxxxxxxxxxxxxxxxxxxxxxxxxxxxxxxxxxxxxxxxxxxxxxx  
.................... void ds18b20_khoi_tao() 
.................... {                          
....................    touch_present(); 
*
0A10:  RCALL  090C
....................    touch_write_byte(skip_rom);       
0A12:  MOVLW  CC
0A14:  MOVLB  4
0A16:  MOVWF  xB4
0A18:  MOVLB  0
0A1A:  RCALL  09DA
....................    touch_write_byte(write_scratchpad);                      
0A1C:  MOVLW  4E
0A1E:  MOVLB  4
0A20:  MOVWF  xB4
0A22:  MOVLB  0
0A24:  RCALL  09DA
....................    touch_write_byte(0x0);        
0A26:  MOVLB  4
0A28:  CLRF   xB4
0A2A:  MOVLB  0
0A2C:  RCALL  09DA
....................    touch_write_byte(0x0);     
0A2E:  MOVLB  4
0A30:  CLRF   xB4
0A32:  MOVLB  0
0A34:  RCALL  09DA
....................    touch_write_byte(0x7f); //12 bit 
0A36:  MOVLW  7F
0A38:  MOVLB  4
0A3A:  MOVWF  xB4
0A3C:  MOVLB  0
0A3E:  RCALL  09DA
....................  
....................    touch_present();    
0A40:  RCALL  090C
....................    touch_write_byte(skip_rom); 
0A42:  MOVLW  CC
0A44:  MOVLB  4
0A46:  MOVWF  xB4
0A48:  MOVLB  0
0A4A:  RCALL  09DA
....................    touch_write_byte(convert_t);      
0A4C:  MOVLW  44
0A4E:  MOVLB  4
0A50:  MOVWF  xB4
0A52:  MOVLB  0
0A54:  RCALL  09DA
0A56:  GOTO   34A0 (RETURN)
.................... } 
.................... //xxxxxxxxxxxxxxxxxxxxxxxxxxxxxxxxxxxxxxxxxxxxxxxxxxxxxxxx 
.................... //doc nhiet do tu ds13b20, tra ve nhiet do la 16 bit     
.................... //xxxxxxxxxxxxxxxxxxxxxxxxxxxxxxxxxxxxxxxxxxxxxxxxxxxxxxxx                                                  
.................... unsigned int16 ds18b20_read_temp()                                         
.................... {                                     
....................    unsigned int8  bl,bh;                                                              
....................    unsigned int16 w;  
....................    touch_write_byte(skip_rom); 
....................    touch_write_byte(read_scratchpad);                  
....................    bl = touch_read_byte(); 
....................    bh = touch_read_byte();                              
....................    w  = make16(bh,bl);                                                           
....................                                                          
....................    touch_present();    
....................    touch_write_byte(skip_rom); 
....................    touch_write_byte(convert_t);  
....................    return w; 
.................... }   
.................... //xxxxxxxxxxxxxxxxxxxxxxxxxxxxxxxxxxxxxxxxxxxxxxxxxxxxxxxx 
.................... //ham doc ma ROM cua DS18b20 va hien thi tai hang x, cot y  
.................... //xxxxxxxxxxxxxxxxxxxxxxxxxxxxxxxxxxxxxxxxxxxxxxxxxxxxxxxx     
.................... void ds18b20_doc_rom(usi8 x,y)   
.................... {     
....................    unsigned int8 rom_code[8];        
....................    unsigned int8 xh,xl; 
....................    signed int8 i; 
....................    if(touch_present()) 
....................    { 
....................       touch_write_byte(read_rom);                                                                             
....................       for(i=0;i<8;i++)                  
....................       rom_code[i] = touch_read_byte();                                  
....................       lcd_goto_xy(x,y);      
....................       for(i=7;i>-1;i--)  
....................       { 
....................          xh=rom_code[i]/16;               
....................          if(xh>9) xh=xh+0x37; 
....................          else     xh=xh+0x30;           
....................          xl=rom_code[i]%16;               
....................          if(xl>9) xl=xl+0x37; 
....................          else     xl=xl+0x30; 
....................                         
....................          lcd_data(xh); 
....................          lcd_data(xl);          
....................       }         
....................    } 
....................    else ds18b20_no_ds18b();      
.................... } 
....................  
.................... #include <tv_07_i2c_at24cxx.c>     
.................... //xxxxxxxxxxxxxxxxxxxxxxxxxxxxxxxxxxxxxxxxxxxxxxxxxxxxxxxx 
.................... //NGUYEN DINH PHU SU PHAM KY THUAT TP HCM 
.................... //xxxxxxxxxxxxxxxxxxxxxxxxxxxxxxxxxxxxxxxxxxxxxxxxxxxxxxxx 
....................  
.................... #define at24_addr_wr 0xa0 
.................... #define at24_addr_rd 0xa1 
.................... //xxxxxxxxxxxxxxxxxxxxxxxxxxxxxxxxxxxxxxxxxxxxxxxxxxxxxxxx 
.................... //ham reset  
.................... //xxxxxxxxxxxxxxxxxxxxxxxxxxxxxxxxxxxxxxxxxxxxxxxxxxxxxxxx 
.................... void at24_reset() 
.................... {                 
....................    i2c_start();          
....................    i2c_stop(); 
.................... } 
.................... //xxxxxxxxxxxxxxxxxxxxxxxxxxxxxxxxxxxxxxxxxxxxxxxxxxxxxxxx 
.................... //ham khoi tao ghi 
.................... //xxxxxxxxxxxxxxxxxxxxxxxxxxxxxxxxxxxxxxxxxxxxxxxxxxxxxxxx 
.................... void at24_khoi_tao_ghi(usi16 addr) 
.................... {                  
....................    i2c_start();                        
....................    i2c_write(at24_addr_wr);   
....................    i2c_write(addr>>8);          
....................    i2c_write(addr);          
.................... } 
.................... //xxxxxxxxxxxxxxxxxxxxxxxxxxxxxxxxxxxxxxxxxxxxxxxxxxxxxxxx 
.................... //ham khoi tao doc 
.................... //xxxxxxxxxxxxxxxxxxxxxxxxxxxxxxxxxxxxxxxxxxxxxxxxxxxxxxxx     
.................... void at24_khoi_tao_doc(usi16 addr) 
.................... {    
....................    i2c_start(); 
....................    i2c_write(at24_addr_wr);   
....................    i2c_write(addr>>8);         
....................    i2c_write(addr);            
....................    i2c_start();                 
....................    i2c_write(at24_addr_rd);   
.................... }     
.................... //xxxxxxxxxxxxxxxxxxxxxxxxxxxxxxxxxxxxxxxxxxxxxxxxxxxxxxxx 
.................... //ham ghi 1byte 
.................... //xxxxxxxxxxxxxxxxxxxxxxxxxxxxxxxxxxxxxxxxxxxxxxxxxxxxxxxx 
.................... void at24_ghi_1byte(usi16 addr,usi8 data_1byte) 
.................... {           
....................    i2c_start();                      
....................    i2c_write(at24_addr_wr);   
....................    i2c_write(addr>>8);          
....................    i2c_write(addr);    
....................    i2c_write(data_1byte);    
....................    i2c_stop(); 
.................... } 
.................... //xxxxxxxxxxxxxxxxxxxxxxxxxxxxxxxxxxxxxxxxxxxxxxxxxxxxxxxx 
.................... //ham doc 1 byte 
.................... //xxxxxxxxxxxxxxxxxxxxxxxxxxxxxxxxxxxxxxxxxxxxxxxxxxxxxxxx 
.................... unsigned int8 at24_doc_1byte(usi16 addr) 
.................... {    
....................    unsigned int8 data_1byte; 
....................    i2c_start();            
....................    i2c_write(at24_addr_wr);   
....................    i2c_write(addr>>8);         
....................    i2c_write(addr);            
....................    i2c_start();                 
....................    i2c_write(at24_addr_rd);   
....................    data_1byte = i2c_read(0); 
....................    i2c_stop(); 
....................    return(data_1byte); 
.................... }   
....................  
....................  
.................... //!#include <tv_08_step_motor.c>     
.................... //!#include <tv_08_dc_motor.c>  
.................... #include <tv_09_matran_led_mbi.c> 
.................... //xxxxxxxxxxxxxxxxxxxxxxxxxxxxxxxxxxxxxxxxxxxxxxxxxxxxxxxx 
.................... //NGUYEN DINH PHU SU PHAM KY THUAT TP HCM 
.................... //xxxxxxxxxxxxxxxxxxxxxxxxxxxxxxxxxxxxxxxxxxxxxxxxxxxxxxxx 
....................  
.................... //xxxxxxxxxxxxxxxxxxxxxxxxxxxxxxxxxxxxxxxxxxxxxxxxxxxxxxxx 
.................... //ham xuat 2 byte 
.................... //xxxxxxxxxxxxxxxxxxxxxxxxxxxxxxxxxxxxxxxxxxxxxxxxxxxxxxxx 
.................... void xuat_2byte(unsigned int16 v) 
.................... { 
....................    int8 i; 
....................    #bit msb = v.15 
....................    for(i=0;i<16;i++) 
....................    {                                                  
....................       output_bit(ssdo,msb);     
....................       output_low(ssck);    
....................       output_high(ssck); 
....................       v= v<<1;          
....................    } 
.................... } 
.................... //xxxxxxxxxxxxxxxxxxxxxxxxxxxxxxxxxxxxxxxxxxxxxxxxxxxxxxxx 
.................... //chuong trinh con xuat ra led ma tran 
.................... //xxxxxxxxxxxxxxxxxxxxxxxxxxxxxxxxxxxxxxxxxxxxxxxxxxxxxxxx 
.................... void xuat_matranled( usi16 mahang,usi16 macot1, 
....................                      usi16 macot2,usi16 macot3) 
.................... {       
....................    xuat_2byte(macot3);   
....................    xuat_2byte(macot2); 
....................    xuat_2byte(macot1);   
....................    xuat_2byte(mahang); 
....................        
....................    output_high(rck_mtl);  
....................    output_low(rck_mtl); 
.................... } 
.................... //xxxxxxxxxxxxxxxxxxxxxxxxxxxxxxxxxxxxxxxxxxxx 
.................... //chuong trinh con xuat ra led ma tran 
.................... //xxxxxxxxxxxxxxxxxxxxxxxxxxxxxxxxxxxxxxxxxxxx 
.................... // void tat_matranled() 
.................... // {       
....................    // xuat_2byte(0); xuat_2byte(0); 
....................    // xuat_2byte(0); xuat_2byte(0);            
....................    // output_high(rck_matranled);  
....................    // output_low(rck_matranled); 
.................... // } 
.................... //xxxxxxxxxxxxxxxxxxxxxxxxxxxxxxxxxxxxxxxxxxxxxxxxxxxxxxxx 
.................... //hieu chinh 4bit cao 
.................... //xxxxxxxxxxxxxxxxxxxxxxxxxxxxxxxxxxxxxxxxxxxxxxxxxxxxxxxx 
.................... unsigned  int8 hieu_chinh_4bit_cao(unsigned int8 xzy) 
.................... { 
....................    int1  btg; 
....................    unsigned int8   bx;    
....................    #bit bit4  = bx.4 
....................    #bit bit5  = bx.5 
....................    #bit bit6  = bx.6 
....................    #bit bit7  = bx.7 
....................    bx=xzy; 
....................    btg=bit4;   bit4=bit7;  bit7=btg; 
....................    btg=bit5;   bit5=bit6;  bit6=btg;       
....................    return(bx);   
.................... }    
....................  
....................  
....................  
.................... #include <tv_06_glcd.c> 
.................... //xxxxxxxxxxxxxxxxxxxxxxxxxxxxxxxxxxxxxxxxxxxxxxxxxxxxxxxx 
.................... //NGUYEN DINH PHU SU PHAM KY THUAT TP HCM 
.................... //xxxxxxxxxxxxxxxxxxxxxxxxxxxxxxxxxxxxxxxxxxxxxxxxxxxxxxxx 
....................  
.................... //xxxxxxxxxxxxxxxxxxxxxxxxxxxxxxxxxxxxxxxxxxxxxxxxxxxxxxxx 
.................... //dinh nghia bien dieu khien GLCD va cac bit cua bien       
.................... //xxxxxxxxxxxxxxxxxxxxxxxxxxxxxxxxxxxxxxxxxxxxxxxxxxxxxxxx  
.................... unsigned int8 glcd_ctr;    
.................... #bit glcd_p    = glcd_ctr.5            
.................... #bit glcd_rs   = glcd_ctr.4 
.................... #bit glcd_rw   = glcd_ctr.3 
.................... #bit glcd_e    = glcd_ctr.2 
.................... #bit glcd_nc   = glcd_ctr.1 
.................... #bit glcd_psb  = glcd_ctr.0                              
.................... //xxxxxxxxxxxxxxxxxxxxxxxxxxxxxxxxxxxxxxxxxxxxxxxxxxxxxxxx 
.................... //Dinh nghia cac lenh dieu khien cua GLCD 
.................... //xxxxxxxxxxxxxxxxxxxxxxxxxxxxxxxxxxxxxxxxxxxxxxxxxxxxxxxx  
.................... #define glcd_text_mode      0x30 
.................... #define glcd_graphic_mode   0x36                      
....................  
.................... #define glcd_clear_display  0x01 
.................... #define glcd_cursor_display 0x0c 
.................... #define glcd_entry_mode     0x06 
....................  
.................... #define glcd_addr_line0     0x80 
.................... #define glcd_addr_line1     0x90 
.................... #define glcd_addr_line2     0x88 
.................... #define glcd_addr_line3     0x98 
.................... //xxxxxxxxxxxxxxxxxxxxxxxxxxxxxxxxxxxxxxxxxxxxxxxxxxxxxxxx   
.................... //ham 621: xuat data/lenh ra glcd 
.................... //xxxxxxxxxxxxxxxxxxxxxxxxxxxxxxxxxxxxxxxxxxxxxxxxxxxxxxxx    
.................... void glcd_xuat_db(int8 db) 
.................... { 
....................    glcd_e=1; xuat_glcd(glcd_ctr,db);  
*
0454:  BSF    34.2
0456:  MOVFF  34,4C5
045A:  MOVFF  4C4,4C6
045E:  RCALL  0440
....................    delay_us(20); 
0460:  MOVLW  20
0462:  MOVWF  00
0464:  DECFSZ 00,F
0466:  BRA    0464
0468:  BRA    046A
046A:  NOP   
....................    glcd_e=0; xuat_glcd(glcd_ctr,db);   
046C:  BCF    34.2
046E:  MOVFF  34,4C5
0472:  MOVFF  4C4,4C6
0476:  RCALL  0440
0478:  RETURN 0
.................... }                                  
.................... //xxxxxxxxxxxxxxxxxxxxxxxxxxxxxxxxxxxxxxxxxxxxxxxxxxxxxxxx   
.................... //ham 622: xuat lenh ra glcd     
.................... //xxxxxxxxxxxxxxxxxxxxxxxxxxxxxxxxxxxxxxxxxxxxxxxxxxxxxxxx   
.................... void glcd_command(int8 db)    
.................... { 
....................    glcd_rs = 0; 
047A:  BCF    34.4
....................    glcd_xuat_db(db);       
047C:  MOVFF  4C3,4C4
0480:  RCALL  0454
0482:  RETURN 0
.................... } 
.................... //xxxxxxxxxxxxxxxxxxxxxxxxxxxxxxxxxxxxxxxxxxxxxxxxxxxxxxxx   
.................... //ham 623: xuat data ra glcd 
.................... //xxxxxxxxxxxxxxxxxxxxxxxxxxxxxxxxxxxxxxxxxxxxxxxxxxxxxxxx  
.................... void glcd_data(int8 db)                  
.................... { 
....................    glcd_rs = 1;      
*
30B0:  BSF    34.4
....................    glcd_xuat_db(db);      
30B2:  MOVFF  4B1,4C4
30B6:  CALL   0454
30BA:  RETURN 0
.................... }  
.................... //xxxxxxxxxxxxxxxxxxxxxxxxxxxxxxxxxxxxxxxxxxxxxxxxxxxxxxxx   
.................... //ham 624: khoi tao GLCD  
.................... //xxxxxxxxxxxxxxxxxxxxxxxxxxxxxxxxxxxxxxxxxxxxxxxxxxxxxxxx    
.................... void setup_glcd (int8 glcd_fs_mode) 
.................... {                      
....................    glcd_psb = 1; 
*
04AC:  BSF    34.0
....................    glcd_nc = 1;                              
04AE:  BSF    34.1
....................    glcd_e  = 0; 
04B0:  BCF    34.2
....................    glcd_rw = 0;           
04B2:  BCF    34.3
....................    glcd_p =0;          
04B4:  BCF    34.5
....................    glcd_command(glcd_fs_mode);          
04B6:  MOVFF  4C2,4C3
04BA:  RCALL  047A
....................    delay_us(10); 
04BC:  MOVLW  10
04BE:  MOVWF  00
04C0:  DECFSZ 00,F
04C2:  BRA    04C0
04C4:  NOP   
....................    glcd_command(glcd_cursor_display);        
04C6:  MOVLW  0C
04C8:  MOVLB  4
04CA:  MOVWF  xC3
04CC:  MOVLB  0
04CE:  RCALL  047A
....................    delay_us(10);     
04D0:  MOVLW  10
04D2:  MOVWF  00
04D4:  DECFSZ 00,F
04D6:  BRA    04D4
04D8:  NOP   
....................    glcd_command(glcd_clear_display);       
04DA:  MOVLW  01
04DC:  MOVLB  4
04DE:  MOVWF  xC3
04E0:  MOVLB  0
04E2:  RCALL  047A
....................    delay_ms(10);                                           
04E4:  MOVLW  0A
04E6:  MOVLB  4
04E8:  MOVWF  xC3
04EA:  MOVLB  0
04EC:  RCALL  0484
....................    glcd_command(glcd_entry_mode);       
04EE:  MOVLW  06
04F0:  MOVLB  4
04F2:  MOVWF  xC3
04F4:  MOVLB  0
04F6:  RCALL  047A
....................    delay_us(10);                                                
04F8:  MOVLW  10
04FA:  MOVWF  00
04FC:  DECFSZ 00,F
04FE:  BRA    04FC
0500:  NOP   
0502:  RETURN 0
.................... } 
.................... //xxxxxxxxxxxxxxxxxxxxxxxxxxxxxxxxxxxxxxxxxxxxxxxxxxxxxxxx   
.................... //ham 608: xuat data ra glcd 
.................... //xxxxxxxxxxxxxxxxxxxxxxxxxxxxxxxxxxxxxxxxxxxxxxxxxxxxxxxx  
.................... void glcd_clear()                  
.................... {    
....................    glcd_command(glcd_clear_display);       
....................    delay_ms(10);      
.................... }   
.................... void glcd_text_or_graphic(int8 x)                  
.................... {                                    
....................    glcd_command(x);          
....................    delay_us(10);      
.................... } 
.................... //xxxxxxxxxxxxxxxxxxxxxxxxxxxxxxxxxxxxxxxxxxxxxxxxxxxxxxxx 
.................... //dinh nghia cac hang so kich thuoc hinh anh cua GLCD        
.................... //xxxxxxxxxxxxxxxxxxxxxxxxxxxxxxxxxxxxxxxxxxxxxxxxxxxxxxxx      
.................... #define glcd_ngang  16 //16x16=256 pixel 
.................... #define glcd_doc    32 //32 hang 
.................... #define glcd_width  128 //danh cho thu vien graphic.c 
.................... int8 doc, ngang; 
.................... //xxxxxxxxxxxxxxxxxxxxxxxxxxxxxxxxxxxxxxxxxxxxxxxxxxxxxxxx 
.................... //xay dung loai du lieu dots: dung de xu diem anh 
.................... //dang word va byte de de truy xuat 
.................... //xxxxxxxxxxxxxxxxxxxxxxxxxxxxxxxxxxxxxxxxxxxxxxxxxxxxxxxx                               
.................... typedef union  
.................... {  
....................   unsigned int16 word;  
....................   unsigned int8 nbyte[2];  
.................... } dots;      
....................  
.................... //xxxxxxxxxxxxxxxxxxxxxxxxxxxxxxxxxxxxxxxxxxxxxxxxxxxxxxxx 
.................... //xay dung loai du lieu gd_ram kieu co cau truc "struct"       
.................... //xxxxxxxxxxxxxxxxxxxxxxxxxxxxxxxxxxxxxxxxxxxxxxxxxxxxxxxx      
.................... typedef struct  
.................... {  
....................   int1 refresh;  
....................   dots pixel[glcd_doc][glcd_ngang];     
.................... } gd_ram;       
.................... gd_ram gdram_vdk;  
.................... //xxxxxxxxxxxxxxxxxxxxxxxxxxxxxxxxxxxxxxxxxxxxxxxxxxxxxxxx 
.................... //ham 610: xoa vung nho gdram_vdk cung mau glcd_color   
.................... //nhung chua xuat ra GLCD  
.................... //xxxxxxxxxxxxxxxxxxxxxxxxxxxxxxxxxxxxxxxxxxxxxxxxxxxxxxxx    
.................... void glcd_mau_nen(int1 glcd_color)  
.................... {   
....................   int16 d;  
....................   if(glcd_color)  d=0xffff; else d=0; 
*
0526:  MOVLB  4
0528:  MOVF   xC2,F
052A:  BZ    0532
052C:  SETF   xC4
052E:  SETF   xC3
0530:  BRA    0536
0532:  CLRF   xC4
0534:  CLRF   xC3
....................   for (doc=0; doc<glcd_doc; doc++)  
0536:  CLRF   35
0538:  MOVF   35,W
053A:  SUBLW  1F
053C:  BNC   059A
....................   {  
....................     for (ngang=0; ngang<glcd_ngang; ngang++)  
053E:  CLRF   36
0540:  MOVF   36,W
0542:  SUBLW  0F
0544:  BNC   0596
....................     {  
....................       gdram_vdk.pixel[doc][ngang].word = d;  
0546:  CLRF   xE3
0548:  MOVFF  35,4E2
054C:  CLRF   xE5
054E:  MOVLW  20
0550:  MOVWF  xE4
0552:  MOVLB  0
0554:  RCALL  0504
0556:  MOVFF  02,03
055A:  MOVF   01,W
055C:  ADDLW  01
055E:  MOVLB  4
0560:  MOVWF  xC5
0562:  MOVLW  00
0564:  ADDWFC 02,W
0566:  MOVWF  xC6
0568:  CLRF   03
056A:  MOVFF  36,02
056E:  BCF    FD8.0
0570:  RLCF   02,F
0572:  RLCF   03,F
0574:  MOVF   02,W
0576:  ADDWF  xC5,F
0578:  MOVF   03,W
057A:  ADDWFC xC6,F
057C:  MOVLW  37
057E:  ADDWF  xC5,W
0580:  MOVWF  FE9
0582:  MOVLW  00
0584:  ADDWFC xC6,W
0586:  MOVWF  FEA
0588:  MOVFF  4C4,FEC
058C:  MOVF   FED,F
058E:  MOVFF  4C3,FEF
0592:  INCF   36,F
0594:  BRA    0540
....................     }  
0596:  INCF   35,F
0598:  BRA    0538
....................   }  
....................   gdram_vdk.refresh = true;  
059A:  BSF    37.0
059C:  MOVLB  0
059E:  RETURN 0
.................... }  
.................... //xxxxxxxxxxxxxxxxxxxxxxxxxxxxxxxxxxxxxxxxxxxxxxxxxxxxxxxx 
.................... //ham 610: lam 1 pixel co mau la color nhung chua xuat ra GLCD       
.................... //xxxxxxxxxxxxxxxxxxxxxxxxxxxxxxxxxxxxxxxxxxxxxxxxxxxxxxxx    
.................... void glcd_pixel(int8 x, int8 y, int1 color)                      
.................... {  
....................   int8  b;  
....................   if(y>31){x += 128; y-= 32;};                  
*
0AD2:  MOVLB  4
0AD4:  MOVF   xDF,W
0AD6:  SUBLW  1F
0AD8:  BC    0AE2
0ADA:  MOVLW  80
0ADC:  ADDWF  xDE,F
0ADE:  MOVLW  20
0AE0:  SUBWF  xDF,F
....................   doc = y;  
0AE2:  MOVFF  4DF,35
....................   ngang = x/16;                                          
0AE6:  SWAPF  xDE,W
0AE8:  MOVWF  36
0AEA:  MOVLW  0F
0AEC:  ANDWF  36,F
....................   b = 15 - (x % 16);    
0AEE:  MOVF   xDE,W
0AF0:  ANDLW  0F
0AF2:  XORLW  FF
0AF4:  ADDLW  10
0AF6:  MOVWF  xE1
....................   if(color==1) bit_set(gdram_vdk.pixel[doc][ngang].word,b);  
0AF8:  DECFSZ xE0,W
0AFA:  BRA    0B66
0AFC:  CLRF   xE3
0AFE:  MOVFF  35,4E2
0B02:  CLRF   xE5
0B04:  MOVLW  20
0B06:  MOVWF  xE4
0B08:  MOVLB  0
0B0A:  RCALL  0504
0B0C:  MOVFF  02,03
0B10:  MOVF   01,W
0B12:  ADDLW  01
0B14:  MOVLB  4
0B16:  MOVWF  xE2
0B18:  MOVLW  00
0B1A:  ADDWFC 02,W
0B1C:  MOVWF  xE3
0B1E:  CLRF   03
0B20:  MOVFF  36,02
0B24:  BCF    FD8.0
0B26:  RLCF   02,F
0B28:  RLCF   03,F
0B2A:  MOVF   02,W
0B2C:  ADDWF  xE2,F
0B2E:  MOVF   03,W
0B30:  ADDWFC xE3,F
0B32:  MOVLW  37
0B34:  ADDWF  xE2,W
0B36:  MOVWF  01
0B38:  MOVLW  00
0B3A:  ADDWFC xE3,W
0B3C:  MOVWF  03
0B3E:  MOVFF  01,FE9
0B42:  MOVWF  FEA
0B44:  CLRF   03
0B46:  MOVLW  01
0B48:  MOVWF  02
0B4A:  MOVF   xE1,W
0B4C:  MOVWF  00
0B4E:  BZ    0B5A
0B50:  BCF    FD8.0
0B52:  RLCF   02,F
0B54:  RLCF   03,F
0B56:  DECFSZ 00,F
0B58:  BRA    0B50
0B5A:  MOVF   02,W
0B5C:  IORWF  FEF,F
0B5E:  MOVF   03,W
0B60:  IORWF  FEC,W
0B62:  MOVWF  FEF
0B64:  BRA    0BD8
....................   else         bit_clear(gdram_vdk.pixel[doc][ngang].word,b);  
0B66:  CLRF   xE3
0B68:  MOVFF  35,4E2
0B6C:  CLRF   xE5
0B6E:  MOVLW  20
0B70:  MOVWF  xE4
0B72:  MOVLB  0
0B74:  RCALL  0504
0B76:  MOVFF  02,03
0B7A:  MOVF   01,W
0B7C:  ADDLW  01
0B7E:  MOVLB  4
0B80:  MOVWF  xE2
0B82:  MOVLW  00
0B84:  ADDWFC 02,W
0B86:  MOVWF  xE3
0B88:  CLRF   03
0B8A:  MOVFF  36,02
0B8E:  BCF    FD8.0
0B90:  RLCF   02,F
0B92:  RLCF   03,F
0B94:  MOVF   02,W
0B96:  ADDWF  xE2,F
0B98:  MOVF   03,W
0B9A:  ADDWFC xE3,F
0B9C:  MOVLW  37
0B9E:  ADDWF  xE2,W
0BA0:  MOVWF  01
0BA2:  MOVLW  00
0BA4:  ADDWFC xE3,W
0BA6:  MOVWF  03
0BA8:  MOVFF  01,FE9
0BAC:  MOVWF  FEA
0BAE:  CLRF   03
0BB0:  MOVLW  01
0BB2:  MOVWF  02
0BB4:  MOVF   xE1,W
0BB6:  MOVWF  00
0BB8:  BZ    0BC4
0BBA:  BCF    FD8.0
0BBC:  RLCF   02,F
0BBE:  RLCF   03,F
0BC0:  DECFSZ 00,F
0BC2:  BRA    0BBA
0BC4:  MOVF   02,W
0BC6:  XORLW  FF
0BC8:  MOVWF  00
0BCA:  MOVLW  FF
0BCC:  XORWF  03,F
0BCE:  MOVF   00,W
0BD0:  ANDWF  FEF,F
0BD2:  MOVF   03,W
0BD4:  ANDWF  FEC,W
0BD6:  MOVWF  FEF
....................   gdram_vdk.refresh = true;      
0BD8:  BSF    37.0
0BDA:  MOVLB  0
0BDC:  RETURN 0
.................... }  
.................... //xxxxxxxxxxxxxxxxxxxxxxxxxxxxxxxxxxxxxxxxxxxxxxxxxxxxxxxx 
.................... //ham 610: ham xuat toan bo du lieu 16x32=512word ra GLCD       
.................... //xxxxxxxxxxxxxxxxxxxxxxxxxxxxxxxxxxxxxxxxxxxxxxxxxxxxxxxx    
.................... void gdram_vdk_to_gdram_glcd_all()  
.................... {  
....................   if(gdram_vdk.refresh)  
*
30BC:  BTFSS  37.0
30BE:  BRA    31A6
....................   {  
....................     for(doc=0; doc<glcd_doc; doc++)  
30C0:  CLRF   35
30C2:  MOVF   35,W
30C4:  SUBLW  1F
30C6:  BNC   31A4
....................     {  
....................       glcd_command(0x80+doc);   // set vertical address.  
30C8:  MOVLW  80
30CA:  ADDWF  35,W
30CC:  MOVLB  4
30CE:  MOVWF  xAE
30D0:  MOVWF  xC3
30D2:  MOVLB  0
30D4:  CALL   047A
....................       glcd_command(0x80+0);   // set horizontal address.  
30D8:  MOVLW  80
30DA:  MOVLB  4
30DC:  MOVWF  xC3
30DE:  MOVLB  0
30E0:  CALL   047A
....................  
....................       for(ngang=0; ngang<glcd_ngang; ngang++)  
30E4:  CLRF   36
30E6:  MOVF   36,W
30E8:  SUBLW  0F
30EA:  BNC   31A0
....................       {                                   
....................         glcd_data(gdram_vdk.pixel[doc][ngang].nbyte[1]);     
30EC:  MOVLB  4
30EE:  CLRF   xE3
30F0:  MOVFF  35,4E2
30F4:  CLRF   xE5
30F6:  MOVLW  20
30F8:  MOVWF  xE4
30FA:  MOVLB  0
30FC:  CALL   0504
3100:  MOVFF  02,03
3104:  MOVF   01,W
3106:  ADDLW  01
3108:  MOVLB  4
310A:  MOVWF  xAE
310C:  MOVLW  00
310E:  ADDWFC 02,W
3110:  MOVWF  xAF
3112:  CLRF   03
3114:  MOVFF  36,02
3118:  BCF    FD8.0
311A:  RLCF   02,F
311C:  RLCF   03,F
311E:  MOVF   02,W
3120:  ADDWF  xAE,F
3122:  MOVF   03,W
3124:  ADDWFC xAF,F
3126:  MOVLW  01
3128:  ADDWF  xAE,W
312A:  MOVWF  01
312C:  MOVLW  00
312E:  ADDWFC xAF,W
3130:  MOVWF  03
3132:  MOVF   01,W
3134:  ADDLW  37
3136:  MOVWF  FE9
3138:  MOVLW  00
313A:  ADDWFC 03,W
313C:  MOVWF  FEA
313E:  MOVFF  FEF,4AE
3142:  MOVFF  4AE,4B1
3146:  MOVLB  0
3148:  RCALL  30B0
....................         glcd_data(gdram_vdk.pixel[doc][ngang].nbyte[0]);     
314A:  MOVLB  4
314C:  CLRF   xE3
314E:  MOVFF  35,4E2
3152:  CLRF   xE5
3154:  MOVLW  20
3156:  MOVWF  xE4
3158:  MOVLB  0
315A:  CALL   0504
315E:  MOVFF  02,03
3162:  MOVF   01,W
3164:  ADDLW  01
3166:  MOVLB  4
3168:  MOVWF  xAE
316A:  MOVLW  00
316C:  ADDWFC 02,W
316E:  MOVWF  xAF
3170:  CLRF   03
3172:  MOVFF  36,02
3176:  BCF    FD8.0
3178:  RLCF   02,F
317A:  RLCF   03,F
317C:  MOVF   02,W
317E:  ADDWF  xAE,F
3180:  MOVF   03,W
3182:  ADDWFC xAF,F
3184:  MOVLW  37
3186:  ADDWF  xAE,W
3188:  MOVWF  FE9
318A:  MOVLW  00
318C:  ADDWFC xAF,W
318E:  MOVWF  FEA
3190:  MOVFF  FEF,4B0
3194:  MOVFF  4B0,4B1
3198:  MOVLB  0
319A:  RCALL  30B0
319C:  INCF   36,F
319E:  BRA    30E6
....................       }  
31A0:  INCF   35,F
31A2:  BRA    30C2
....................     }  
....................     gdram_vdk.refresh = false;  
31A4:  BCF    37.0
....................   }  
31A6:  GOTO   371E (RETURN)
.................... }  
.................... //xxxxxxxxxxxxxxxxxxxxxxxxxxxxxxxxxxxxxxxxxxxxxxxxxxxxxxxx 
.................... //ham 610: ham xuat 1 vung du lieu bat dau tai (x,y)  
.................... //va rong va cao ra GLCD 
.................... //xxxxxxxxxxxxxxxxxxxxxxxxxxxxxxxxxxxxxxxxxxxxxxxxxxxxxxxx  
.................... void gdram_vdk_to_gdram_glcd_area(int8 x,int8 y,int8 rong, int8 cao) 
.................... {                                                  
....................   int8 hesox,hesoy;  
....................   if (gdram_vdk.refresh)  
....................   {        
....................       if(((rong+x)/16)!=0) rong=((rong)/16)+1; 
....................       else                 rong=((rong)/16);  
....................       x = x/16; 
....................       for(doc=y;doc<(y+cao);doc++)  
....................       {  
....................          if(doc>31) 
....................             {   
....................                hesoy = doc-32; 
....................                hesox = 8+x; 
....................                } 
....................          else  
....................          { 
....................             hesoy = doc; 
....................             hesox = x; 
....................             } 
....................          glcd_command(0x80+hesoy);    
....................          glcd_command(0x80+hesox);   
....................        
....................          for(ngang=hesox; ngang<(hesox+rong); ngang++)  
....................          {  
....................             glcd_data( gdram_vdk.pixel[hesoy][ngang].nbyte[1]);   // write high byte.  
....................             glcd_data( gdram_vdk.pixel[hesoy][ngang].nbyte[0]);   // write low byte.  
....................          }  
....................        }  
....................     gdram_vdk.refresh = false;  
....................   }       
.................... } 
.................... //xxxxxxxxxxxxxxxxxxxxxxxxxxxxxxxxxxxxxxxxxxxxxxxxxxxxxxxx 
.................... //vung du lieu nhi phan cua anh logo spkt 
.................... //xxxxxxxxxxxxxxxxxxxxxxxxxxxxxxxxxxxxxxxxxxxxxxxxxxxxxxxx    
....................  
.................... /*const unsigned char logo_spk [] = { 
.................... 0x00, 0x00, 0x00, 0x00, 0x00, 0x00, 0x00, 0x00, 0x00, 0x00, 0x00, 0x00, 0x00, 0x00, 0x00, 0x00, 
.................... 0x00, 0x00, 0x00, 0x00, 0x00, 0x00, 0x00, 0x00, 0x00, 0x00, 0x00, 0x01, 0x80, 0x00, 0x00, 0x00, 
.................... 0x00, 0x00, 0x00, 0x01, 0x80, 0x00, 0x00, 0x00, 0x00, 0x00, 0x00, 0x01, 0x80, 0x00, 0x00, 0x00, 
.................... 0x00, 0x00, 0x00, 0x07, 0xe0, 0x00, 0x00, 0x00, 0x00, 0x00, 0x00, 0x07, 0xa0, 0x00, 0x00, 0x00, 
.................... 0x00, 0x00, 0x00, 0x03, 0x20, 0x00, 0x00, 0x00, 0x00, 0x00, 0x00, 0x03, 0x20, 0x00, 0x00, 0x00, 
....................                                                                     
.................... 0x00, 0x00, 0x00, 0x02, 0x20, 0x00, 0x00, 0x00, 0x00, 0x00, 0x00, 0x02, 0x30, 0x00, 0x00, 0x00, 
.................... 0x00, 0x00, 0x00, 0x02, 0x30, 0x00, 0x00, 0x00, 0x00, 0x7f, 0x00, 0x00, 0x30, 0x00, 0x7e, 0x00, 
.................... 0x00, 0xfe, 0x00, 0x07, 0xe0, 0x00, 0x3f, 0x00, 0x01, 0xf8, 0x00, 0x03, 0xe0, 0x00, 0x1f, 0x80, 
.................... 0x03, 0xf0, 0x00, 0x01, 0xc0, 0x00, 0x0f, 0xc0, 0x03, 0xe0, 0x00, 0x01, 0xc0, 0x00, 0x07, 0xe0, 
.................... 0x07, 0xc0, 0x00, 0x03, 0xc0, 0x00, 0x03, 0xf0, 0x0f, 0xc0, 0x00, 0x17, 0xf4, 0x00, 0x01, 0xf0, 
....................  
.................... 0x0f, 0x80, 0x00, 0x1d, 0x98, 0x00, 0x00, 0xf8, 0x1f, 0x00, 0x00, 0x11, 0x8c, 0x00, 0x00, 0xf8, 
.................... 0x1f, 0x01, 0x00, 0x31, 0x84, 0x00, 0x80, 0x7c, 0x3e, 0x06, 0x00, 0x31, 0x86, 0x00, 0x20, 0x7c, 
.................... 0x3e, 0x18, 0x00, 0x71, 0x86, 0x00, 0x1c, 0x3e, 0x3c, 0x43, 0x00, 0x31, 0x84, 0x00, 0xc3, 0x3e, 
.................... 0x7c, 0x0c, 0x00, 0x11, 0x8c, 0x00, 0x38, 0x1e, 0x7c, 0x31, 0x00, 0x1d, 0x98, 0x00, 0x86, 0x1f, 
.................... 0x78, 0xc6, 0x00, 0x1f, 0xfc, 0x00, 0x63, 0x1f, 0x78, 0x18, 0x00, 0x03, 0xc0, 0x00, 0x0c, 0x1f, 
....................  
.................... 0xf8, 0x63, 0x80, 0x01, 0x80, 0x00, 0xc7, 0x0f, 0xf9, 0x8e, 0x00, 0x00, 0x00, 0x00, 0x38, 0x8f, 
.................... 0xf8, 0x38, 0x80, 0x00, 0x00, 0x01, 0x0c, 0x0f, 0xf8, 0xc3, 0x80, 0x00, 0x00, 0x00, 0xe3, 0x8f, 
.................... 0xf9, 0x8e, 0x00, 0x00, 0x00, 0x00, 0x30, 0xcf, 0xf8, 0x38, 0xf8, 0x00, 0x00, 0x1f, 0x9e, 0x0f, 
.................... 0xf8, 0xe3, 0xfe, 0x00, 0x00, 0x7f, 0xe3, 0x8f, 0xf9, 0x9f, 0xff, 0xc0, 0x03, 0xff, 0xf9, 0xcf, 
.................... 0x78, 0xff, 0xff, 0xe0, 0x07, 0xff, 0xff, 0x0f, 0x78, 0x1f, 0xff, 0xe0, 0x07, 0xff, 0xfc, 0x1f, 
....................  
.................... 0x7c, 0x07, 0xff, 0xe0, 0x07, 0xff, 0xe0, 0x1f, 0x7c, 0x00, 0xff, 0xe0, 0x07, 0xff, 0x80, 0x1e, 
.................... 0x7c, 0x00, 0x1f, 0xe0, 0x07, 0xfc, 0x00, 0x3e, 0x3e, 0x01, 0xcf, 0xe0, 0x07, 0xf3, 0x80, 0x3e, 
.................... 0x3e, 0x01, 0xff, 0xe0, 0x03, 0xff, 0x80, 0x7c, 0x1f, 0x01, 0xff, 0xe0, 0x03, 0xff, 0xc0, 0x7c, 
.................... 0x1f, 0x01, 0xff, 0xc0, 0x03, 0xff, 0xc0, 0xf8, 0x0f, 0x83, 0xff, 0xc0, 0x01, 0xff, 0xc0, 0xf8, 
.................... 0x0f, 0x83, 0xff, 0xc0, 0x01, 0xff, 0xc1, 0xf0, 0x07, 0xc3, 0xff, 0x80, 0x01, 0xff, 0xe3, 0xf0, 
....................  
.................... 0x03, 0xe3, 0xff, 0x80, 0x01, 0xff, 0xe7, 0xe0, 0x03, 0xf7, 0xff, 0x80, 0x00, 0xff, 0xef, 0xc0, 
.................... 0x01, 0xff, 0xff, 0x80, 0x00, 0xff, 0xff, 0x80, 0x00, 0xff, 0xff, 0x00, 0x00, 0xff, 0xff, 0x80, 
.................... 0x00, 0x7f, 0xff, 0x00, 0x00, 0xff, 0xff, 0x00, 0x00, 0x3f, 0xff, 0x00, 0x00, 0xff, 0xfe, 0x00, 
.................... 0x00, 0x1f, 0xff, 0x00, 0x00, 0x7f, 0xf8, 0x00, 0x00, 0x0f, 0xfe, 0x00, 0x00, 0x7f, 0xf0, 0x00, 
.................... 0x00, 0x03, 0xff, 0x00, 0x00, 0x7f, 0xe0, 0x00, 0x00, 0x00, 0xff, 0xfc, 0x1f, 0xff, 0x80, 0x00, 
....................  
.................... 0x00, 0x00, 0x7f, 0xff, 0xff, 0xfe, 0x00, 0x00, 0x00, 0x00, 0x0f, 0xff, 0xff, 0xf8, 0x00, 0x00, 
.................... 0x00, 0x00, 0x01, 0xff, 0xff, 0xc0, 0x00, 0x00, 0x00, 0x00, 0x00, 0x0f, 0xf0, 0x00, 0x00, 0x00 
.................... };*/ 
.................... const unsigned char logo_spk [] = { /* 0X00,0X01,0X2A,0X00,0X40,0X00, */ 
.................... 0XFF,0XFF,0XDF,0XFF,0XFF,0XC0,0XFF,0XFF,0X8F,0XFF,0XFF,0XC0,0XFF,0XFF,0X07,0XFF, 
.................... 0XFF,0XC0,0XFF,0XFE,0X03,0XFF,0XFF,0XC0,0XFF,0XFC,0X03,0XFF,0XFF,0XC0,0XFF,0XF8, 
.................... 0X01,0XFF,0XFF,0XC0,0XFF,0XF8,0X00,0XFF,0XFF,0XC0,0XFF,0XFB,0X00,0XFF,0XFF,0XC0, 
.................... 0XFF,0XF1,0XC0,0X7F,0XFF,0XC0,0XFF,0XE0,0X00,0X3F,0XFF,0XC0,0XFF,0XE0,0X00,0X3F, 
.................... 0XFF,0XC0,0XFF,0XC0,0X00,0X1F,0XFF,0XC0,0XFF,0XC0,0X00,0X1F,0XFF,0XC0,0XFF,0XDF, 
.................... 0X00,0X0F,0XF7,0XC0,0XFF,0X8E,0X00,0X0F,0XE0,0X00,0XFF,0X8E,0X00,0X0F,0XF0,0X00, 
.................... 0XFF,0X80,0X00,0X0F,0XFC,0X00,0XFF,0X8F,0X80,0X07,0XFF,0XC0,0XFF,0X3F,0X80,0X07, 
.................... 0XDF,0XC0,0XFF,0XFF,0XFE,0X07,0XFF,0XC0,0X03,0XF7,0XFC,0X0F,0XFF,0XC0,0X01,0XF7, 
.................... 0XE0,0X0F,0XFF,0XC0,0X03,0XF7,0XC1,0X9F,0XFF,0XC0,0X03,0XFB,0XC0,0XCF,0XFF,0XC0, 
.................... 0X03,0XFB,0X82,0X1F,0XFF,0XC0,0X00,0XFF,0X80,0X3F,0XFF,0XC0,0X00,0X7F,0X80,0X3F, 
.................... 0XFF,0XC0,0X80,0X3F,0X00,0X3C,0X01,0XC0,0X80,0X1F,0X00,0X7C,0X00,0X00,0XC0,0X0F, 
.................... 0X81,0X40,0X00,0X00,0XE0,0X07,0X81,0XC0,0X00,0X00,0X18,0X03,0X87,0X80,0X00,0X00, 
.................... 0X00,0X01,0X8F,0X80,0X00,0X00,0X00,0X00,0X0F,0X80,0X00,0X00,0X00,0X00,0X0F,0XF9, 
.................... 0XFF,0XC0,0X00,0X00,0X0F,0XC0,0X17,0XC0,0X08,0X00,0X0F,0X00,0X03,0XC0,0X06,0X00, 
.................... 0X0E,0X00,0X01,0XC0,0X01,0X80,0X00,0X00,0X00,0XC0,0X00,0X60,0X04,0X00,0X00,0XC0, 
.................... 0X00,0X2C,0X00,0X00,0X00,0X40,0X40,0X13,0X00,0X00,0X00,0X00,0X20,0X08,0X80,0X00, 
.................... 0X00,0X00,0X00,0X04,0X00,0X00,0X00,0X00,0X00,0X02,0X00,0X00,0X00,0X00,0X00,0X03, 
.................... 0X00,0X00,0X00,0X00,0X02,0X01,0X00,0X00,0X00,0X00,0X01,0X00,0X80,0X00,0X00,0X00, 
.................... 0X00,0X00,0X00,0X00,0X00,0X00,0X80,0X00,0X00,0X00,0X00,0X00,0X80,0X3C,0X03,0X80, 
.................... 0X00,0X00,0X80,0X38,0X03,0XF8,0X00,0X00,0X80,0X32,0X00,0XF8,0X00,0X00,0XC0,0X27, 
.................... 0X00,0X70,0X00,0X00,0XE0,0X07,0X00,0X7E,0X00,0X00,0X70,0X3E,0X08,0X3F,0XFE,0X00, 
.................... 0X20,0X3C,0X08,0X0F,0XFF,0XC0,0X00,0X1C,0X00,0X07,0XFF,0XC0,0X00,0X1C,0X00,0X07, 
.................... 0XFF,0XC0,0XFF,0X8C,0X00,0X03,0XFF,0XC0,0XFF,0X8E,0X00,0X03,0XFF,0XC0,0XFF,0X9E, 
.................... 0X01,0X81,0XFF,0XC0,0XFF,0X8E,0X01,0X81,0XFF,0XC0,0XFF,0X8F,0X41,0XC1,0X7F,0XC0, 
.................... }; 
....................  
....................  
.................... //xxxxxxxxxxxxxxxxxxxxxxxxxxxxxxxxxxxxxxxxxxxxxxxxxxxxxxxx 
.................... //Ham xuat anh logo spk ra GLCD theo cach truc tiep 
.................... //xxxxxxxxxxxxxxxxxxxxxxxxxxxxxxxxxxxxxxxxxxxxxxxxxxxxxxxx                  
.................... //!void glcd_xuat_anh(int width,int height,int x,int y)  
.................... //!{                                         
.................... //!   unsigned int i=0, j=0, k=0;                                                    
.................... //!   unsigned int16 n=0;                                       
.................... //!   ngang=0;      n=0;                                  
.................... //!   for(j=0;j<height;j++)          //doc                               
.................... //!   {                            
.................... //!      if(j>31) {ngang=8; k=j-32;} 
.................... //!      else k=j;                                               
.................... //!      glcd_command(0x80+(y+k)); //vertical address.  
.................... //!      glcd_command(0x80+((x/16)+ngang));   //horizontal address. 
.................... //!                                                                                 
.................... //!      for(i=0;i<width/16;i++)  
.................... //!      {                                  
.................... //!         glcd_data(logo_spk[n]);    n++;                                                      
.................... //!         glcd_data(logo_spk[n]);    n++;                                    
.................... //!      }                                                         
.................... //!   }                                                           
.................... //!}     
.................... //xxxxxxxxxxxxxxxxxxxxxxxxxxxxxxxxxxxxxxxxxxxxxxxxxxxxxxxx 
.................... //Ham xuat anh logo spk ra GLCD 
.................... //xxxxxxxxxxxxxxxxxxxxxxxxxxxxxxxxxxxxxxxxxxxxxxxxxxxxxxxx                  
.................... //!void glcd_xuat_anh_ok(int width,int height,int x,int y)  
.................... //!{                        
.................... //!   unsigned int i=0, j=0, k=0;                                                    
.................... //!   unsigned int16 n=0;   
.................... //!   ngang=0;                                                  
.................... //!   for(j=0;j<height;j++)  //cot tinh theo pixel                                                                      
.................... //!   {                            
.................... //!      if(j>31) {ngang=8; k=j-32;}     //chuyen vung                        
.................... //!      else k=j;                                                
.................... //!      for(i=0;i<width/16;i++)                                    
.................... //!      {                                  
.................... //!         gdram_vdk.pixel[y+k][x/16+ngang+i].nbyte[1] = logo_spk[n];  
.................... //!         n++;                                                      
.................... //!         gdram_vdk.pixel[y+k][x/16+ngang+i].nbyte[0] = logo_spk[n];  
.................... //!         n++;                                    
.................... //!      }  
.................... //!   }                                                           
.................... //!}                                                                                        
.................... //xxxxxxxxxxxxxxxxxxxxxxxxxxxxxxxxxxxxxxxxxxxxxxxxxxxxxxxx 
.................... //Ham xuat anh logo spkt ra GLCD 
.................... //xxxxxxxxxxxxxxxxxxxxxxxxxxxxxxxxxxxxxxxxxxxxxxxxxxxxxxxx     
.................... void glcd_xuat_anh(int width,int height,int x,int y)  
.................... {                        
....................    unsigned int i=0, j=0, k=0;                                                    
....................    unsigned int16 n=0;  
....................    for(j=0;j<height;j++)                                      
....................    {     
....................       i=0; 
....................       do 
....................       {                                 
....................          for(k=8;k>0;k--) 
....................          {                   
....................             glcd_pixel(x+i,y+j,bit_test(logo_spk[n],(k-1)));  
....................             i++;                       
....................          }                  
....................          n++;            
....................       }while(i<width);   
....................    }  
.................... } 
....................  
.................... void glcd_xuat_anh_c3(int width,int height,int x,int y)  
.................... {                        
....................    unsigned int i=0, j=0, k=0;                                                    
....................    unsigned int16 count=0;  
....................    for(j=0;j<height;j++)                                      
....................    {     
....................       for(;i<width;)  
....................       {  
....................          for(k=8;k>0;k--) 
....................          { 
....................             glcd_pixel(x+i,y+j,bit_test(logo_spk[count],(k-1)));  
....................             i++;                         
....................          }  
....................          count++;            
....................       }                                    
....................       i=0;  
....................    }  
.................... } 
....................         
....................  
....................  
.................... #include <tv_08_dc_motor.c> 
.................... int1 dcmotor_tn = 0, dcmotor_onoff=0; 
.................... //xxxxxxxxxxxxxxxxxxxxxxxxxxxxxxxxxxxxxxxxxxxxxxx 
.................... //cac ham cho dk dong co dc on off 
.................... //xxxxxxxxxxxxxxxxxxxxxxxxxxxxxxxxxxxxxxxxxxxxxxx  
.................... void dc_motor_enable() 
.................... { 
....................    dc_enable=1; 
*
0ABE:  BSF    04.5
....................    xuat_buzzer_relay(); 
0AC0:  BRA    0A9E
0AC2:  GOTO   34D8 (RETURN)
.................... } 
.................... void dc_motor_disable() 
.................... { 
....................    dc_enable=0; 
....................    xuat_buzzer_relay(); 
.................... } 
....................  
.................... void dc_motor_quay_thuan() 
.................... {                          
....................    output_high(pin_c1); 
....................    output_low(pin_c2); 
.................... }                                                                                      
....................  
.................... void dc_motor_quay_nghich() 
.................... { 
....................    output_low(pin_c1);                
....................    output_high(pin_c2); 
.................... } 
....................  
.................... void dc_motor_stop()                                                       
.................... { 
....................    output_low(pin_c1); 
0AC6:  BCF    F94.1
0AC8:  BCF    F8B.1
....................    output_low(pin_c2);   
0ACA:  BCF    F94.2
0ACC:  BCF    F8B.2
0ACE:  GOTO   3524 (RETURN)
.................... }  
....................  
.................... void dc_motor_run() 
.................... { 
....................    if(dcmotor_onoff) 
....................    { 
....................       if(dcmotor_tn) dc_motor_quay_thuan(); 
....................       else           dc_motor_quay_nghich(); 
....................    } 
....................    else              dc_motor_stop();       
.................... }          
.................... //xxxxxxxxxxxxxxxxxxxxxxxxxxxxxxxxxxxxxxxxxxxxxxx 
.................... //cac ham cho dk dong co dc bang pwm 
.................... //xxxxxxxxxxxxxxxxxxxxxxxxxxxxxxxxxxxxxxxxxxxxxxx 
.................... unsigned int16    pwm_duty;  
.................... void dc_motor_ktao_ccp1_thuan() 
.................... {      
....................    setup_ccp2(ccp_off);       
....................    setup_ccp1(ccp_pwm); 
....................    output_low(pin_c1);       
.................... } 
....................  
.................... void dc_motor_ktao_ccp2_nghich() 
.................... {             
....................    setup_ccp1(ccp_off);       
....................    setup_ccp2(ccp_pwm); 
....................    output_low(pin_c2); 
.................... } 
....................  
.................... void dc_motor_ktao_ccpx() 
.................... {          
....................    if(dcmotor_tn) dc_motor_ktao_ccp1_thuan(); 
....................    else           dc_motor_ktao_ccp2_nghich();             
.................... } 
....................  
.................... void dc_motor_set_pwmx_duty() 
.................... {                                      
....................    if(dcmotor_tn) set_pwm1_duty(pwm_duty); 
....................    else           set_pwm2_duty(pwm_duty);      
.................... }                                                        
....................  
.................... void dc_motor_pwm_ccp1_ccp2_stop() 
.................... {          
....................    pwm_duty=0;             
....................    setup_ccp1(ccp_off); 
....................    setup_ccp2(ccp_off); 
....................    dc_motor_ktao_ccpx(); 
....................    dc_motor_set_pwmx_duty(); 
.................... } 
....................  
....................  
.................... #include <graphics.c>//duoi tv_pic_glcd 
.................... ///////////////////////////////////////////////////////////////////////// 
.................... ////                          graphics.c                             //// 
.................... ////                                                                 //// 
.................... ////   This file contains functions to draw lines, rectangles, bars, //// 
.................... ////   circles and text to a display. A function which draws a       //// 
.................... ////   single pixel must be defined before calling the functions in  //// 
.................... ////   this file. Call it glcd_pixel(x, y, color) where x is the     //// 
.................... ////   horizontal coordinate, y is the vertical coordinate, and      //// 
.................... ////   color is 1 bit to turn the pixel on or off.                   //// 
.................... ////                                                                 //// 
.................... ////   * Note: (0, 0) is treated as the upper left corner            //// 
.................... ////                                                                 //// 
.................... ///////////////////////////////////////////////////////////////////////// 
.................... ////                                                                 //// 
.................... ////  glcd_line(x1, y1, x2, y2, color)                               //// 
.................... ////     * Draws a line from the first point to the second point     //// 
.................... ////       with the given color                                      //// 
.................... ////       - color can be ON or OFF                                  //// 
.................... ////                                                                 //// 
.................... ////  glcd_rect(x1, y1, x2, y2, fill, color)                         //// 
.................... ////     * Draws a rectangle with one corner at point (x1,y1) and    //// 
.................... ////       the other corner at point (x2,y2)                         //// 
.................... ////       - fill can be YES or NO                                   //// 
.................... ////       - color can be ON or OFF                                  //// 
.................... ////                                                                 //// 
.................... ////  glcd_bar(x1, y1, x2, y2, width, color)                         //// 
.................... ////     * Draws a bar (wide line) from the first point to the       //// 
.................... ////       second point                                              //// 
.................... ////       - width is the number of pixels wide                      //// 
.................... ////       - color is ON or OFF                                      //// 
.................... ////                                                                 //// 
.................... ////  glcd_circle(x, y, radius, fill, color)                         //// 
.................... ////     * Draws a circle with center at (x,y)                       //// 
.................... ////       - fill can be YES or NO                                   //// 
.................... ////       - color can be ON or OFF                                  //// 
.................... ////                                                                 //// 
.................... ////  glcd_text57(x, y, textptr, size, color)                        //// 
.................... ////     * Write the null terminated text pointed to by textptr with //// 
.................... ////       the upper left coordinate of the first character at (x,y) //// 
.................... ////       Characters are 5 pixels wide and 7 pixels tall            //// 
.................... ////       - size is an integer that scales the size of the text     //// 
.................... ////       - color is ON or OFF                                      //// 
.................... ////     * Note - This function wraps characters to the next line    //// 
.................... ////              use #define GLCD_WIDTH to specify a display width  //// 
.................... ////                                                                 //// 
.................... ///////////////////////////////////////////////////////////////////////// 
.................... ////        (C) Copyright 1996, 2010 Custom Computer Services        //// 
.................... //// This source code may only be used by licensed users of the CCS  //// 
.................... //// C compiler.  This source code may only be distributed to other  //// 
.................... //// licensed users of the CCS C compiler.  No other use,            //// 
.................... //// reproduction or distribution is permitted without written       //// 
.................... //// permission.  Derivative programs created using this software    //// 
.................... //// in object code form are not restricted in any way.              //// 
.................... ///////////////////////////////////////////////////////////////////////// 
....................  
....................  
.................... ///////////////////////////////////////////////////////////////////////// 
.................... #ifndef GRAPHICS_DRAWING_FUNCTIONS 
.................... #define GRAPHICS_DRAWING_FUNCTIONS 
.................... ///////////////////////////////////////////////////////////////////////// 
....................  
....................  
.................... ///////////////////////////////////////////////////////////////////////// 
.................... #ifndef ON 
.................... #define ON  1 
.................... #endif 
....................  
.................... #ifndef OFF 
.................... #define OFF 0 
.................... #endif 
....................  
.................... #ifndef YES 
.................... #define YES 1 
.................... #endif 
....................  
.................... #ifndef NO 
.................... #define NO  0 
.................... #endif 
.................... ///////////////////////////////////////////////////////////////////////// 
....................  
....................  
.................... ///////////////////////////////////////////////////////////////////////// 
.................... //// Defines a 5x7 font 
.................... ///////////////////////////////////////////////////////////////////////// 
.................... const unsigned int8 FONT[51][5] ={0x00, 0x00, 0x00, 0x00, 0x00, // SPACE 
....................                          0x00, 0x00, 0x5F, 0x00, 0x00, // ! 
....................                          0x00, 0x03, 0x00, 0x03, 0x00, // " 
....................                          0x14, 0x3E, 0x14, 0x3E, 0x14, // # 
....................                          0x24, 0x2A, 0x7F, 0x2A, 0x12, // $ 
....................                          0x43, 0x33, 0x08, 0x66, 0x61, // % 
....................                          0x36, 0x49, 0x55, 0x22, 0x50, // & 
....................                          0x00, 0x05, 0x03, 0x00, 0x00, // ' 
....................                          0x00, 0x1C, 0x22, 0x41, 0x00, // ( 
....................                          0x00, 0x41, 0x22, 0x1C, 0x00, // ) 
....................                          0x14, 0x08, 0x3E, 0x08, 0x14, // * 
....................                          0x08, 0x08, 0x3E, 0x08, 0x08, // + 
....................                          0x00, 0x50, 0x30, 0x00, 0x00, // , 
....................                          0x08, 0x08, 0x08, 0x08, 0x08, // - 
....................                          0x00, 0x60, 0x60, 0x00, 0x00, // . 
....................                          0x20, 0x10, 0x08, 0x04, 0x02, // / 
....................                          0x3E, 0x51, 0x49, 0x45, 0x3E, // 0 
....................                          0x00, 0x04, 0x02, 0x7F, 0x00, // 1 
....................                          0x42, 0x61, 0x51, 0x49, 0x46, // 2 
....................                          0x22, 0x41, 0x49, 0x49, 0x36, // 3 
....................                          0x18, 0x14, 0x12, 0x7F, 0x10, // 4 
....................                          0x27, 0x45, 0x45, 0x45, 0x39, // 5 
....................                          0x3E, 0x49, 0x49, 0x49, 0x32, // 6 
....................                          0x01, 0x01, 0x71, 0x09, 0x07, // 7 
....................                          0x36, 0x49, 0x49, 0x49, 0x36, // 8 
....................                          0x26, 0x49, 0x49, 0x49, 0x3E, // 9 
....................                          0x00, 0x36, 0x36, 0x00, 0x00, // : 
....................                          0x00, 0x56, 0x36, 0x00, 0x00, // ; 
....................                          0x08, 0x14, 0x22, 0x41, 0x00, // < 
....................                          0x14, 0x14, 0x14, 0x14, 0x14, // = 
....................                          0x00, 0x41, 0x22, 0x14, 0x08, // > 
....................                          0x02, 0x01, 0x51, 0x09, 0x06, // ? 
....................                          0x3E, 0x41, 0x59, 0x55, 0x5E, // @ 
....................                          0x7E, 0x09, 0x09, 0x09, 0x7E, // A 
....................                          0x7F, 0x49, 0x49, 0x49, 0x36, // B 
....................                          0x3E, 0x41, 0x41, 0x41, 0x22, // C 
....................                          0x7F, 0x41, 0x41, 0x41, 0x3E, // D 
....................                          0x7F, 0x49, 0x49, 0x49, 0x41, // E 
....................                          0x7F, 0x09, 0x09, 0x09, 0x01, // F 
....................                          0x3E, 0x41, 0x41, 0x49, 0x3A, // G 
....................                          0x7F, 0x08, 0x08, 0x08, 0x7F, // H 
....................                          0x00, 0x41, 0x7F, 0x41, 0x00, // I 
....................                          0x30, 0x40, 0x40, 0x40, 0x3F, // J 
....................                          0x7F, 0x08, 0x14, 0x22, 0x41, // K 
....................                          0x7F, 0x40, 0x40, 0x40, 0x40, // L 
....................                          0x7F, 0x02, 0x0C, 0x02, 0x7F, // M 
....................                          0x7F, 0x02, 0x04, 0x08, 0x7F, // N 
....................                          0x3E, 0x41, 0x41, 0x41, 0x3E, // O 
....................                          0x7F, 0x09, 0x09, 0x09, 0x06, // P 
....................                          0x1E, 0x21, 0x21, 0x21, 0x5E, // Q 
....................                          0x7F, 0x09, 0x09, 0x09, 0x76};// R 
....................  
.................... const unsigned int8 FONT2[44][5]={0x26, 0x49, 0x49, 0x49, 0x32, // S 
....................                          0x01, 0x01, 0x7F, 0x01, 0x01, // T 
....................                          0x3F, 0x40, 0x40, 0x40, 0x3F, // U 
....................                          0x1F, 0x20, 0x40, 0x20, 0x1F, // V 
....................                          0x7F, 0x20, 0x10, 0x20, 0x7F, // W 
....................                          0x41, 0x22, 0x1C, 0x22, 0x41, // X 
....................                          0x07, 0x08, 0x70, 0x08, 0x07, // Y 
....................                          0x61, 0x51, 0x49, 0x45, 0x43, // Z 
....................                          0x00, 0x7F, 0x41, 0x00, 0x00, // [ 
....................                          0x02, 0x04, 0x08, 0x10, 0x20, // \ 
....................                          0x00, 0x00, 0x41, 0x7F, 0x00, // ] 
....................                          0x04, 0x02, 0x01, 0x02, 0x04, // ^ 
....................                          0x40, 0x40, 0x40, 0x40, 0x40, // _ 
....................                          0x00, 0x01, 0x02, 0x04, 0x00, // ` 
....................                          0x20, 0x54, 0x54, 0x54, 0x78, // a 
....................                          0x7F, 0x44, 0x44, 0x44, 0x38, // b 
....................                          0x38, 0x44, 0x44, 0x44, 0x44, // c 
....................                          0x38, 0x44, 0x44, 0x44, 0x7F, // d 
....................                          0x38, 0x54, 0x54, 0x54, 0x18, // e 
....................                          0x04, 0x04, 0x7E, 0x05, 0x05, // f 
....................                          0x08, 0x54, 0x54, 0x54, 0x3C, // g 
....................                          0x7F, 0x08, 0x04, 0x04, 0x78, // h 
....................                          0x00, 0x44, 0x7D, 0x40, 0x00, // i 
....................                          0x20, 0x40, 0x44, 0x3D, 0x00, // j 
....................                          0x7F, 0x10, 0x28, 0x44, 0x00, // k 
....................                          0x00, 0x41, 0x7F, 0x40, 0x00, // l 
....................                          0x7C, 0x04, 0x78, 0x04, 0x78, // m 
....................                          0x7C, 0x08, 0x04, 0x04, 0x78, // n 
....................                          0x38, 0x44, 0x44, 0x44, 0x38, // o 
....................                          0x7C, 0x14, 0x14, 0x14, 0x08, // p 
....................                          0x08, 0x14, 0x14, 0x14, 0x7C, // q 
....................                          0x00, 0x7C, 0x08, 0x04, 0x04, // r 
....................                          0x48, 0x54, 0x54, 0x54, 0x20, // s 
....................                          0x04, 0x04, 0x3F, 0x44, 0x44, // t 
....................                          0x3C, 0x40, 0x40, 0x20, 0x7C, // u 
....................                          0x1C, 0x20, 0x40, 0x20, 0x1C, // v 
....................                          0x3C, 0x40, 0x30, 0x40, 0x3C, // w 
....................                          0x44, 0x28, 0x10, 0x28, 0x44, // x 
....................                          0x0C, 0x50, 0x50, 0x50, 0x3C, // y 
....................                          0x44, 0x64, 0x54, 0x4C, 0x44, // z 
....................                          0x00, 0x08, 0x36, 0x41, 0x41, // { 
....................                          0x00, 0x00, 0x7F, 0x00, 0x00, // | 
....................                          0x41, 0x41, 0x36, 0x08, 0x00, // } 
....................                          0x02, 0x01, 0x02, 0x04, 0x02};// ~ 
.................... ///////////////////////////////////////////////////////////////////////// 
....................  
....................  
.................... ///////////////////////////////////////////////////////////////////////// 
.................... // Purpose:       Draw a line on a graphic LCD using Bresenham's 
.................... //                line drawing algorithm 
.................... // Inputs:        (x1, y1) - the start coordinate 
.................... //                (x2, y2) - the end coordinate 
.................... //                color - ON or OFF 
.................... // Dependencies:  glcd_pixel() 
.................... ///////////////////////////////////////////////////////////////////////// 
.................... #ifdef LARGE_LCD 
.................... void glcd_line(unsigned int16 x1, unsigned int16 y1, unsigned int16 x2, iunsigned nt16 y2, int1 color) 
.................... #else 
.................... void glcd_line(unsigned int8 x1, unsigned int8 y1, unsigned int8 x2, unsigned int8 y2, int1 color) 
.................... #endif 
*
0D98:  MOVLW  01
0D9A:  MOVLB  4
0D9C:  MOVWF  xD7
0D9E:  MOVWF  xD8
0DA0:  CLRF   xDD
.................... { 
....................    unsigned int16        dy, dx; 
....................    signed int8  addx=1, addy=1; 
....................    signed int16 P, diff; 
....................  
....................    #ifdef LARGE_LCD 
....................    unsigned int16 i=0; 
....................    dx = abs((signed int16)(x2 - x1)); 
....................    dy = abs((signed int16)(y2 - y1)); 
....................    #else 
....................    unsigned int8 i=0; 
....................    dx = abs((signed int8)(x2 - x1)); 
0DA2:  MOVF   xCE,W
0DA4:  SUBWF  xD0,W
0DA6:  MOVWF  xDE
0DA8:  MOVF   xDE,W
0DAA:  BTFSS  xDE.7
0DAC:  BRA    0DB4
0DAE:  MOVLW  00
0DB0:  BSF    FD8.0
0DB2:  SUBFWB xDE,W
0DB4:  CLRF   03
0DB6:  MOVWF  xD5
0DB8:  MOVFF  03,4D6
....................    dy = abs((signed int8)(y2 - y1)); 
0DBC:  MOVF   xCF,W
0DBE:  SUBWF  xD1,W
0DC0:  MOVWF  xDE
0DC2:  MOVF   xDE,W
0DC4:  BTFSS  xDE.7
0DC6:  BRA    0DCE
0DC8:  MOVLW  00
0DCA:  BSF    FD8.0
0DCC:  SUBFWB xDE,W
0DCE:  CLRF   03
0DD0:  MOVWF  xD3
0DD2:  MOVFF  03,4D4
....................    #endif 
....................  
....................    if(x1 > x2) 
0DD6:  MOVF   xCE,W
0DD8:  SUBWF  xD0,W
0DDA:  BC    0DDE
....................       addx = -1; 
0DDC:  SETF   xD7
....................    if(y1 > y2) 
0DDE:  MOVF   xCF,W
0DE0:  SUBWF  xD1,W
0DE2:  BC    0DE6
....................       addy = -1; 
0DE4:  SETF   xD8
....................  
....................    if(dx >= dy) 
0DE6:  MOVF   xD4,W
0DE8:  SUBWF  xD6,W
0DEA:  BNC   0E60
0DEC:  BNZ   0DF4
0DEE:  MOVF   xD3,W
0DF0:  SUBWF  xD5,W
0DF2:  BNC   0E60
....................    { 
....................       dy *= 2; 
0DF4:  BCF    FD8.0
0DF6:  RLCF   xD3,F
0DF8:  RLCF   xD4,F
....................       P = dy - dx; 
0DFA:  MOVF   xD5,W
0DFC:  SUBWF  xD3,W
0DFE:  MOVWF  00
0E00:  MOVF   xD6,W
0E02:  SUBWFB xD4,W
0E04:  MOVFF  00,4D9
0E08:  MOVWF  xDA
....................       diff = P - dx; 
0E0A:  MOVF   xD5,W
0E0C:  SUBWF  xD9,W
0E0E:  MOVWF  xDB
0E10:  MOVF   xD6,W
0E12:  SUBWFB xDA,W
0E14:  MOVWF  xDC
....................  
....................       for(; i<=dx; ++i) 
0E16:  MOVF   xD6,F
0E18:  BNZ   0E20
0E1A:  MOVF   xDD,W
0E1C:  SUBWF  xD5,W
0E1E:  BNC   0E5E
....................       { 
....................          glcd_pixel(x1, y1, color); 
0E20:  MOVFF  4CE,4DE
0E24:  MOVFF  4CF,4DF
0E28:  MOVFF  4D2,4E0
0E2C:  MOVLB  0
0E2E:  RCALL  0AD2
....................  
....................          if(P < 0) 
0E30:  MOVLB  4
0E32:  BTFSS  xDA.7
0E34:  BRA    0E46
....................          { 
....................             P  += dy; 
0E36:  MOVF   xD3,W
0E38:  ADDWF  xD9,F
0E3A:  MOVF   xD4,W
0E3C:  ADDWFC xDA,F
....................             x1 += addx; 
0E3E:  MOVF   xD7,W
0E40:  ADDWF  xCE,W
0E42:  MOVWF  xCE
....................          } 
0E44:  BRA    0E5A
....................          else 
....................          { 
....................             P  += diff; 
0E46:  MOVF   xDB,W
0E48:  ADDWF  xD9,F
0E4A:  MOVF   xDC,W
0E4C:  ADDWFC xDA,F
....................             x1 += addx; 
0E4E:  MOVF   xD7,W
0E50:  ADDWF  xCE,W
0E52:  MOVWF  xCE
....................             y1 += addy; 
0E54:  MOVF   xD8,W
0E56:  ADDWF  xCF,W
0E58:  MOVWF  xCF
....................          } 
0E5A:  INCF   xDD,F
0E5C:  BRA    0E16
....................       } 
....................    } 
0E5E:  BRA    0ECA
....................    else 
....................    { 
....................       dx *= 2; 
0E60:  BCF    FD8.0
0E62:  RLCF   xD5,F
0E64:  RLCF   xD6,F
....................       P = dx - dy; 
0E66:  MOVF   xD3,W
0E68:  SUBWF  xD5,W
0E6A:  MOVWF  00
0E6C:  MOVF   xD4,W
0E6E:  SUBWFB xD6,W
0E70:  MOVFF  00,4D9
0E74:  MOVWF  xDA
....................       diff = P - dy; 
0E76:  MOVF   xD3,W
0E78:  SUBWF  xD9,W
0E7A:  MOVWF  xDB
0E7C:  MOVF   xD4,W
0E7E:  SUBWFB xDA,W
0E80:  MOVWF  xDC
....................  
....................       for(; i<=dy; ++i) 
0E82:  MOVF   xD4,F
0E84:  BNZ   0E8C
0E86:  MOVF   xDD,W
0E88:  SUBWF  xD3,W
0E8A:  BNC   0ECA
....................       { 
....................          glcd_pixel(x1, y1, color); 
0E8C:  MOVFF  4CE,4DE
0E90:  MOVFF  4CF,4DF
0E94:  MOVFF  4D2,4E0
0E98:  MOVLB  0
0E9A:  RCALL  0AD2
....................  
....................          if(P < 0) 
0E9C:  MOVLB  4
0E9E:  BTFSS  xDA.7
0EA0:  BRA    0EB2
....................          { 
....................             P  += dx; 
0EA2:  MOVF   xD5,W
0EA4:  ADDWF  xD9,F
0EA6:  MOVF   xD6,W
0EA8:  ADDWFC xDA,F
....................             y1 += addy; 
0EAA:  MOVF   xD8,W
0EAC:  ADDWF  xCF,W
0EAE:  MOVWF  xCF
....................          } 
0EB0:  BRA    0EC6
....................          else 
....................          { 
....................             P  += diff; 
0EB2:  MOVF   xDB,W
0EB4:  ADDWF  xD9,F
0EB6:  MOVF   xDC,W
0EB8:  ADDWFC xDA,F
....................             x1 += addx; 
0EBA:  MOVF   xD7,W
0EBC:  ADDWF  xCE,W
0EBE:  MOVWF  xCE
....................             y1 += addy; 
0EC0:  MOVF   xD8,W
0EC2:  ADDWF  xCF,W
0EC4:  MOVWF  xCF
....................          } 
0EC6:  INCF   xDD,F
0EC8:  BRA    0E82
....................       } 
....................    } 
0ECA:  MOVLB  0
0ECC:  RETURN 0
.................... } 
....................  
....................  
.................... ///////////////////////////////////////////////////////////////////////// 
.................... // Purpose:       Draw a rectangle on a graphic LCD 
.................... // Inputs:        (x1, y1) - the start coordinate 
.................... //                (x2, y2) - the end coordinate 
.................... //                fill  - YES or NO 
.................... //                color - ON or OFF 
.................... // Dependencies:  glcd_pixel(), glcd_line() 
.................... ///////////////////////////////////////////////////////////////////////// 
.................... #ifdef LARGE_LCD 
.................... void glcd_rect(unsigned int16 x1, unsigned int16 y1, unsigned int16 x2, unsigned int16 y2, int1 fill, int1 color) 
.................... #else 
.................... void glcd_rect(unsigned int8 x1, unsigned int8 y1, unsigned int8 x2, unsigned int8 y2, int1 fill, int1 color) 
.................... #endif 
.................... { 
....................    if(fill) 
....................    { 
....................       #ifdef LARGE_LCD 
....................       unsigned int16 i, xmin, xmax, ymin, ymax; 
....................       #else 
....................       unsigned int8  i, xmin, xmax, ymin, ymax; 
....................       #endif 
....................  
....................       if(x1 < x2)                            //  Find x min and max 
....................       { 
....................          xmin = x1; 
....................          xmax = x2; 
....................       } 
....................       else 
....................       { 
....................          xmin = x2; 
....................          xmax = x1; 
....................       } 
....................  
....................       if(y1 < y2)                            // Find the y min and max 
....................       { 
....................          ymin = y1; 
....................          ymax = y2; 
....................       } 
....................       else 
....................       { 
....................          ymin = y2; 
....................          ymax = y1; 
....................       } 
....................  
....................       for(; xmin <= xmax; ++xmin) 
....................       { 
....................          for(i=ymin; i<=ymax; ++i) 
....................          { 
....................             glcd_pixel(xmin, i, color); 
....................          } 
....................       } 
....................    } 
....................    else 
....................    { 
....................       glcd_line(x1, y1, x2, y1, color);      // Draw the 4 sides 
....................       glcd_line(x1, y2, x2, y2, color); 
....................       glcd_line(x1, y1, x1, y2, color); 
....................       glcd_line(x2, y1, x2, y2, color); 
....................    } 
.................... } 
....................  
.................... ///////////////////////////////////////////////////////////////////////// 
.................... // Purpose:       Draw a bar (wide line) on a graphic LCD 
.................... // Inputs:        (x1, y1) - the start coordinate 
.................... //                (x2, y2) - the end coordinate 
.................... //                width  - The number of pixels wide 
.................... //                color - ON or OFF 
.................... ///////////////////////////////////////////////////////////////////////// 
.................... #ifdef LARGE_LCD 
.................... void glcd_bar(unsigned int16 x1, unsigned int16 y1, unsigned int16 x2, unsigned int16 y2, unsigned int8 width, int1 color) 
.................... #else 
.................... void glcd_bar(unsigned int8 x1, unsigned int8 y1, unsigned int8 x2, unsigned int8 y2, unsigned int8 width, int1 color) 
.................... #endif 
.................... { 
....................    unsigned int8         half_width; 
....................    signed int16 dy, dx; 
....................    signed int8  addx=1, addy=1, j; 
....................    signed int16 P, diff, c1, c2; 
....................  
....................    #ifdef LARGE_LCD 
....................    unsigned int16 i=0; 
....................    dx = abs((signed int16)(x2 - x1)); 
....................    dy = abs((signed int16)(y2 - y1)); 
....................    #else 
....................    unsigned int8 i=0; 
....................    dx = abs((signed int8)(x2 - x1)); 
....................    dy = abs((signed int8)(y2 - y1)); 
....................    #endif 
....................  
....................    half_width = width/2; 
....................    c1 = -(dx*x1 + dy*y1); 
....................    c2 = -(dx*x2 + dy*y2); 
....................  
....................    if(x1 > x2) 
....................    { 
....................       signed int16 temp; 
....................       temp = c1; 
....................       c1 = c2; 
....................       c2 = temp; 
....................       addx = -1; 
....................    } 
....................    if(y1 > y2) 
....................    { 
....................       signed int16 temp; 
....................       temp = c1; 
....................       c1 = c2; 
....................       c2 = temp; 
....................       addy = -1; 
....................    } 
....................  
....................    if(dx >= dy) 
....................    { 
....................       P = 2*dy - dx; 
....................       diff = P - dx; 
....................  
....................       for(i=0; i<=dx; ++i) 
....................       { 
....................          for(j=-half_width; j<half_width+width%2; ++j) 
....................          { 
....................                glcd_pixel(x1, y1+j, color); 
....................          } 
....................          if(P < 0) 
....................          { 
....................             P  += 2*dy; 
....................             x1 += addx; 
....................          } 
....................          else 
....................          { 
....................             P  += diff; 
....................             x1 += addx; 
....................             y1 += addy; 
....................          } 
....................       } 
....................    } 
....................    else 
....................    { 
....................       P = 2*dx - dy; 
....................       diff = P - dy; 
....................  
....................       for(i=0; i<=dy; ++i) 
....................       { 
....................          if(P < 0) 
....................          { 
....................             P  += 2*dx; 
....................             y1 += addy; 
....................          } 
....................          else 
....................          { 
....................             P  += diff; 
....................             x1 += addx; 
....................             y1 += addy; 
....................          } 
....................          for(j=-half_width; j<half_width+width%2; ++j) 
....................          { 
....................                glcd_pixel(x1+j, y1, color); 
....................          } 
....................       } 
....................    } 
.................... } 
....................  
....................  
.................... ///////////////////////////////////////////////////////////////////////// 
.................... // Purpose:       Draw a circle on a graphic LCD 
.................... // Inputs:        (x,y) - the center of the circle 
.................... //                radius - the radius of the circle 
.................... //                fill - YES or NO 
.................... //                color - ON or OFF 
.................... ///////////////////////////////////////////////////////////////////////// 
.................... #ifdef LARGE_LCD 
.................... void glcd_circle(unsigned int16 x, unsigned int16 y, unsigned int16 radius, int1 fill, int1 color) 
.................... #else 
.................... void glcd_circle(unsigned int8 x, unsigned int8 y, unsigned int8 radius, int1 fill, int1 color) 
.................... #endif 
.................... { 
....................    #ifdef LARGE_LCD 
....................    signed int16 a, b, P; 
....................    #else 
....................    signed int8  a, b, P; 
....................    #endif 
....................  
....................    a = 0; 
*
0F1C:  MOVLB  4
0F1E:  CLRF   xC7
....................    b = radius; 
0F20:  MOVFF  4C4,4C8
....................    P = 1 - radius; 
0F24:  MOVLW  01
0F26:  BSF    FD8.0
0F28:  SUBFWB xC4,W
0F2A:  MOVWF  xC9
....................  
....................    do 
....................    { 
....................       if(fill) 
0F2C:  MOVF   xC5,F
0F2E:  BZ    0FF2
....................       { 
....................          glcd_line(x-a, y+b, x+a, y+b, color); 
0F30:  MOVF   xC7,W
0F32:  SUBWF  xC2,W
0F34:  MOVWF  xCA
0F36:  MOVF   xC8,W
0F38:  ADDWF  xC3,W
0F3A:  MOVWF  xCB
0F3C:  MOVF   xC7,W
0F3E:  ADDWF  xC2,W
0F40:  MOVWF  xCC
0F42:  MOVF   xC8,W
0F44:  ADDWF  xC3,W
0F46:  MOVWF  xCD
0F48:  MOVFF  4CA,4CE
0F4C:  MOVFF  4CB,4CF
0F50:  MOVFF  4CC,4D0
0F54:  MOVWF  xD1
0F56:  MOVFF  4C6,4D2
0F5A:  MOVLB  0
0F5C:  RCALL  0D98
....................          glcd_line(x-a, y-b, x+a, y-b, color); 
0F5E:  MOVLB  4
0F60:  MOVF   xC7,W
0F62:  SUBWF  xC2,W
0F64:  MOVWF  xCA
0F66:  MOVF   xC8,W
0F68:  SUBWF  xC3,W
0F6A:  MOVWF  xCB
0F6C:  MOVF   xC7,W
0F6E:  ADDWF  xC2,W
0F70:  MOVWF  xCC
0F72:  MOVF   xC8,W
0F74:  SUBWF  xC3,W
0F76:  MOVWF  xCD
0F78:  MOVFF  4CA,4CE
0F7C:  MOVFF  4CB,4CF
0F80:  MOVFF  4CC,4D0
0F84:  MOVWF  xD1
0F86:  MOVFF  4C6,4D2
0F8A:  MOVLB  0
0F8C:  RCALL  0D98
....................          glcd_line(x-b, y+a, x+b, y+a, color); 
0F8E:  MOVLB  4
0F90:  MOVF   xC8,W
0F92:  SUBWF  xC2,W
0F94:  MOVWF  xCA
0F96:  MOVF   xC7,W
0F98:  ADDWF  xC3,W
0F9A:  MOVWF  xCB
0F9C:  MOVF   xC8,W
0F9E:  ADDWF  xC2,W
0FA0:  MOVWF  xCC
0FA2:  MOVF   xC7,W
0FA4:  ADDWF  xC3,W
0FA6:  MOVWF  xCD
0FA8:  MOVFF  4CA,4CE
0FAC:  MOVFF  4CB,4CF
0FB0:  MOVFF  4CC,4D0
0FB4:  MOVWF  xD1
0FB6:  MOVFF  4C6,4D2
0FBA:  MOVLB  0
0FBC:  RCALL  0D98
....................          glcd_line(x-b, y-a, x+b, y-a, color); 
0FBE:  MOVLB  4
0FC0:  MOVF   xC8,W
0FC2:  SUBWF  xC2,W
0FC4:  MOVWF  xCA
0FC6:  MOVF   xC7,W
0FC8:  SUBWF  xC3,W
0FCA:  MOVWF  xCB
0FCC:  MOVF   xC8,W
0FCE:  ADDWF  xC2,W
0FD0:  MOVWF  xCC
0FD2:  MOVF   xC7,W
0FD4:  SUBWF  xC3,W
0FD6:  MOVWF  xCD
0FD8:  MOVFF  4CA,4CE
0FDC:  MOVFF  4CB,4CF
0FE0:  MOVFF  4CC,4D0
0FE4:  MOVWF  xD1
0FE6:  MOVFF  4C6,4D2
0FEA:  MOVLB  0
0FEC:  RCALL  0D98
....................       } 
0FEE:  BRA    10D0
0FF0:  MOVLB  4
....................       else 
....................       { 
....................          glcd_pixel(a+x, b+y, color); 
0FF2:  MOVF   xC2,W
0FF4:  ADDWF  xC7,W
0FF6:  MOVWF  xCA
0FF8:  MOVF   xC3,W
0FFA:  ADDWF  xC8,W
0FFC:  MOVWF  xCB
0FFE:  MOVFF  4CA,4DE
1002:  MOVWF  xDF
1004:  MOVFF  4C6,4E0
1008:  MOVLB  0
100A:  RCALL  0AD2
....................          glcd_pixel(b+x, a+y, color); 
100C:  MOVLB  4
100E:  MOVF   xC2,W
1010:  ADDWF  xC8,W
1012:  MOVWF  xCA
1014:  MOVF   xC3,W
1016:  ADDWF  xC7,W
1018:  MOVWF  xCB
101A:  MOVFF  4CA,4DE
101E:  MOVWF  xDF
1020:  MOVFF  4C6,4E0
1024:  MOVLB  0
1026:  RCALL  0AD2
....................          glcd_pixel(x-a, b+y, color); 
1028:  MOVLB  4
102A:  MOVF   xC7,W
102C:  SUBWF  xC2,W
102E:  MOVWF  xCA
1030:  MOVF   xC3,W
1032:  ADDWF  xC8,W
1034:  MOVWF  xCB
1036:  MOVFF  4CA,4DE
103A:  MOVWF  xDF
103C:  MOVFF  4C6,4E0
1040:  MOVLB  0
1042:  RCALL  0AD2
....................          glcd_pixel(x-b, a+y, color); 
1044:  MOVLB  4
1046:  MOVF   xC8,W
1048:  SUBWF  xC2,W
104A:  MOVWF  xCA
104C:  MOVF   xC3,W
104E:  ADDWF  xC7,W
1050:  MOVWF  xCB
1052:  MOVFF  4CA,4DE
1056:  MOVWF  xDF
1058:  MOVFF  4C6,4E0
105C:  MOVLB  0
105E:  RCALL  0AD2
....................          glcd_pixel(b+x, y-a, color); 
1060:  MOVLB  4
1062:  MOVF   xC2,W
1064:  ADDWF  xC8,W
1066:  MOVWF  xCA
1068:  MOVF   xC7,W
106A:  SUBWF  xC3,W
106C:  MOVWF  xCB
106E:  MOVFF  4CA,4DE
1072:  MOVWF  xDF
1074:  MOVFF  4C6,4E0
1078:  MOVLB  0
107A:  RCALL  0AD2
....................          glcd_pixel(a+x, y-b, color); 
107C:  MOVLB  4
107E:  MOVF   xC2,W
1080:  ADDWF  xC7,W
1082:  MOVWF  xCA
1084:  MOVF   xC8,W
1086:  SUBWF  xC3,W
1088:  MOVWF  xCB
108A:  MOVFF  4CA,4DE
108E:  MOVWF  xDF
1090:  MOVFF  4C6,4E0
1094:  MOVLB  0
1096:  RCALL  0AD2
....................          glcd_pixel(x-a, y-b, color); 
1098:  MOVLB  4
109A:  MOVF   xC7,W
109C:  SUBWF  xC2,W
109E:  MOVWF  xCA
10A0:  MOVF   xC8,W
10A2:  SUBWF  xC3,W
10A4:  MOVWF  xCB
10A6:  MOVFF  4CA,4DE
10AA:  MOVWF  xDF
10AC:  MOVFF  4C6,4E0
10B0:  MOVLB  0
10B2:  RCALL  0AD2
....................          glcd_pixel(x-b, y-a, color); 
10B4:  MOVLB  4
10B6:  MOVF   xC8,W
10B8:  SUBWF  xC2,W
10BA:  MOVWF  xCA
10BC:  MOVF   xC7,W
10BE:  SUBWF  xC3,W
10C0:  MOVWF  xCB
10C2:  MOVFF  4CA,4DE
10C6:  MOVWF  xDF
10C8:  MOVFF  4C6,4E0
10CC:  MOVLB  0
10CE:  RCALL  0AD2
....................       } 
....................  
....................       if(P < 0) 
10D0:  MOVLB  4
10D2:  BTFSS  xC9.7
10D4:  BRA    10F2
....................          P += 3 + 2 * a++; 
10D6:  MOVF   xC7,W
10D8:  INCF   xC7,F
10DA:  MOVWF  xCA
10DC:  MOVLW  02
10DE:  MOVWF  xCB
10E0:  MOVFF  4CA,4CC
10E4:  MOVLB  0
10E6:  RCALL  0ECE
10E8:  MOVF   01,W
10EA:  ADDLW  03
10EC:  MOVLB  4
10EE:  ADDWF  xC9,F
10F0:  BRA    1114
....................       else 
....................          P += 5 + 2 * (a++ - b--); 
10F2:  MOVF   xC7,W
10F4:  INCF   xC7,F
10F6:  MOVWF  xCA
10F8:  MOVF   xC8,W
10FA:  DECF   xC8,F
10FC:  SUBWF  xCA,W
10FE:  MOVWF  xCA
1100:  MOVLW  02
1102:  MOVWF  xCB
1104:  MOVFF  4CA,4CC
1108:  MOVLB  0
110A:  RCALL  0ECE
110C:  MOVF   01,W
110E:  ADDLW  05
1110:  MOVLB  4
1112:  ADDWF  xC9,F
....................     } while(a <= b); 
1114:  MOVF   xC7,W
1116:  XORLW  80
1118:  MOVWF  00
111A:  MOVF   xC8,W
111C:  XORLW  80
111E:  SUBWF  00,W
1120:  BTFSC  FD8.2
1122:  BRA    0F2C
1124:  BTFSS  FD8.0
1126:  BRA    0F2C
1128:  MOVLB  0
112A:  RETURN 0
.................... } 
....................  
....................  
.................... ///////////////////////////////////////////////////////////////////////// 
.................... // Purpose:       Write text on a graphic LCD 
.................... // Inputs:        (x,y) - The upper left coordinate of the first letter 
.................... //                textptr - A pointer to an array of text to display 
.................... //                size - The size of the text: 1 = 5x7, 2 = 10x14, ... 
.................... //                color - ON or OFF 
.................... ///////////////////////////////////////////////////////////////////////// 
.................... #ifdef LARGE_LCD 
.................... void glcd_text57(unsigned int16 x, unsigned int16 y, char* textptr, unsigned int8 size, int1 color) 
.................... #else 
.................... void glcd_text57(unsigned int8 x, unsigned int8 y, char* textptr, unsigned int8 size, int1 color) 
.................... #endif 
.................... { 
....................    unsigned int8 j, k, l, m;                       // Loop counters 
....................    unsigned int8 pixelData[5];                     // Stores character data 
....................  
....................    for(; *textptr != '\0'; ++textptr, ++x)// Loop through the passed string 
*
0BDE:  MOVFF  4C5,03
0BE2:  MOVLB  4
0BE4:  MOVFF  4C4,FE9
0BE8:  MOVFF  4C5,FEA
0BEC:  MOVF   FEF,F
0BEE:  BTFSC  FD8.2
0BF0:  BRA    0D94
....................    { 
....................       if(*textptr < 'S') // Checks if the letter is in the first font array 
0BF2:  MOVFF  4C5,03
0BF6:  MOVFF  4C4,FE9
0BFA:  MOVFF  4C5,FEA
0BFE:  MOVF   FEF,W
0C00:  SUBLW  52
0C02:  BNC   0C52
....................          memcpy(pixelData, FONT[*textptr - ' '], 5); 
0C04:  MOVFF  4C5,03
0C08:  MOVFF  4C4,FE9
0C0C:  MOVFF  4C5,FEA
0C10:  MOVLW  20
0C12:  SUBWF  FEF,W
0C14:  MULLW  05
0C16:  MOVF   FF3,W
0C18:  CLRF   03
0C1A:  MOVWF  xD1
0C1C:  MOVLW  04
0C1E:  MOVWF  FEA
0C20:  MOVLW  CC
0C22:  MOVWF  FE9
0C24:  CLRF   xD5
0C26:  MOVFF  4D1,4D4
0C2A:  MOVFF  FF2,4D2
0C2E:  BCF    FF2.7
0C30:  MOVLW  05
0C32:  MOVWF  01
0C34:  CLRF   FF7
0C36:  MOVF   xD1,W
0C38:  MOVLB  0
0C3A:  CALL   00C8
0C3E:  TBLRD*-
0C40:  TBLRD*+
0C42:  MOVFF  FF5,FEE
0C46:  DECFSZ 01,F
0C48:  BRA    0C40
0C4A:  MOVLB  4
0C4C:  BTFSC  xD2.7
0C4E:  BSF    FF2.7
0C50:  BRA    0CBC
....................       else if(*textptr <= '~') // Check if the letter is in the second font array 
0C52:  MOVFF  4C5,03
0C56:  MOVFF  4C4,FE9
0C5A:  MOVFF  4C5,FEA
0C5E:  MOVF   FEF,W
0C60:  SUBLW  7E
0C62:  BNC   0CB2
....................          memcpy(pixelData, FONT2[*textptr - 'S'], 5); 
0C64:  MOVFF  4C5,03
0C68:  MOVFF  4C4,FE9
0C6C:  MOVFF  4C5,FEA
0C70:  MOVLW  53
0C72:  SUBWF  FEF,W
0C74:  MULLW  05
0C76:  MOVF   FF3,W
0C78:  CLRF   03
0C7A:  MOVWF  xD1
0C7C:  MOVLW  04
0C7E:  MOVWF  FEA
0C80:  MOVLW  CC
0C82:  MOVWF  FE9
0C84:  CLRF   xD5
0C86:  MOVFF  4D1,4D4
0C8A:  MOVFF  FF2,4D2
0C8E:  BCF    FF2.7
0C90:  MOVLW  05
0C92:  MOVWF  01
0C94:  CLRF   FF7
0C96:  MOVF   xD1,W
0C98:  MOVLB  0
0C9A:  CALL   01D8
0C9E:  TBLRD*-
0CA0:  TBLRD*+
0CA2:  MOVFF  FF5,FEE
0CA6:  DECFSZ 01,F
0CA8:  BRA    0CA0
0CAA:  MOVLB  4
0CAC:  BTFSC  xD2.7
0CAE:  BSF    FF2.7
0CB0:  BRA    0CBC
....................       else 
....................          memcpy(pixelData, FONT[0], 5);   // Default to space 
0CB2:  CLRF   xCC
0CB4:  CLRF   xCD
0CB6:  CLRF   xCE
0CB8:  CLRF   xCF
0CBA:  CLRF   xD0
....................  
....................       // Handles newline and carriage returns 
....................       switch(*textptr) 
0CBC:  MOVFF  4C5,03
0CC0:  MOVF   xC4,W
0CC2:  MOVWF  FE9
0CC4:  MOVFF  03,FEA
0CC8:  MOVF   FEF,W
0CCA:  XORLW  0A
0CCC:  MOVLB  0
0CCE:  BZ    0CD6
0CD0:  XORLW  07
0CD2:  BZ    0CE6
0CD4:  BRA    0CEE
....................       { 
....................          case '\n': 
....................             y += 7*size + 1; 
0CD6:  MOVLB  4
0CD8:  MOVF   xC6,W
0CDA:  MULLW  07
0CDC:  MOVF   FF3,W
0CDE:  ADDLW  01
0CE0:  ADDWF  xC3,F
....................             continue; 
0CE2:  BRA    0D86
0CE4:  MOVLB  0
....................          case '\r': 
....................             x = 0; 
0CE6:  MOVLB  4
0CE8:  CLRF   xC2
....................             continue; 
0CEA:  BRA    0D86
0CEC:  MOVLB  0
....................       } 
....................  
....................       if(x+5*size >= GLCD_WIDTH)          // Performs character wrapping 
0CEE:  MOVLB  4
0CF0:  MOVF   xC6,W
0CF2:  MULLW  05
0CF4:  MOVF   FF3,W
0CF6:  ADDWF  xC2,W
0CF8:  SUBLW  7F
0CFA:  BC    0D08
....................       { 
....................          x = 0;                           // Set x at far left position 
0CFC:  CLRF   xC2
....................          y += 7*size + 1;                 // Set y at next position down 
0CFE:  MOVF   xC6,W
0D00:  MULLW  07
0D02:  MOVF   FF3,W
0D04:  ADDLW  01
0D06:  ADDWF  xC3,F
....................       } 
....................       for(j=0; j<5; ++j, x+=size)         // Loop through character byte data 
0D08:  CLRF   xC8
0D0A:  MOVF   xC8,W
0D0C:  SUBLW  04
0D0E:  BNC   0D86
....................       { 
....................          for(k=0; k < 7; ++k)             // Loop through the vertical pixels 
0D10:  CLRF   xC9
0D12:  MOVF   xC9,W
0D14:  SUBLW  06
0D16:  BNC   0D7E
....................          { 
....................             if(bit_test(pixelData[j], k)) // Check if the pixel should be set 
0D18:  CLRF   03
0D1A:  MOVF   xC8,W
0D1C:  ADDLW  CC
0D1E:  MOVWF  FE9
0D20:  MOVLW  04
0D22:  ADDWFC 03,W
0D24:  MOVWF  FEA
0D26:  MOVFF  FEF,4D1
0D2A:  MOVFF  4D1,00
0D2E:  MOVF   xC9,W
0D30:  MOVWF  01
0D32:  BZ    0D3C
0D34:  BCF    FD8.0
0D36:  RRCF   00,F
0D38:  DECFSZ 01,F
0D3A:  BRA    0D34
0D3C:  BTFSS  00.0
0D3E:  BRA    0D7A
....................             { 
....................                for(l=0; l < size; ++l)    // These two loops change the 
0D40:  CLRF   xCA
0D42:  MOVF   xC6,W
0D44:  SUBWF  xCA,W
0D46:  BC    0D7A
....................                {                          // character's size 
....................                   for(m=0; m < size; ++m) 
0D48:  CLRF   xCB
0D4A:  MOVF   xC6,W
0D4C:  SUBWF  xCB,W
0D4E:  BC    0D76
....................                   { 
....................                      glcd_pixel(x+m, y+k*size+l, color); // Draws the pixel 
0D50:  MOVF   xCB,W
0D52:  ADDWF  xC2,W
0D54:  MOVWF  xD1
0D56:  MOVF   xC9,W
0D58:  MULWF  xC6
0D5A:  MOVF   FF3,W
0D5C:  ADDWF  xC3,W
0D5E:  ADDWF  xCA,W
0D60:  MOVWF  xD2
0D62:  MOVFF  4D1,4DE
0D66:  MOVWF  xDF
0D68:  MOVFF  4C7,4E0
0D6C:  MOVLB  0
0D6E:  RCALL  0AD2
0D70:  MOVLB  4
0D72:  INCF   xCB,F
0D74:  BRA    0D4A
....................                   } 
0D76:  INCF   xCA,F
0D78:  BRA    0D42
....................                } 
....................             } 
0D7A:  INCF   xC9,F
0D7C:  BRA    0D12
....................          } 
0D7E:  INCF   xC8,F
0D80:  MOVF   xC6,W
0D82:  ADDWF  xC2,F
0D84:  BRA    0D0A
....................       } 
0D86:  INCF   xC4,F
0D88:  BTFSC  FD8.2
0D8A:  INCF   xC5,F
0D8C:  INCF   xC2,F
0D8E:  MOVLB  0
0D90:  BRA    0BDE
0D92:  MOVLB  4
....................    } 
0D94:  MOVLB  0
0D96:  RETURN 0
.................... } 
....................  
.................... #endif 
....................  
.................... #include <bai_633_glcd_kim_gio_phut_giay_tv.c> 
.................... #define xt 96 
.................... #define yt 32 
.................... #define bks 20 
.................... #define bkm 17 
.................... #define bkh 13 
....................  
.................... signed int16 xm_ve, ym_ve, tgm45; 
.................... float xm_tinh, ym_tinh,goc_m; 
....................  
.................... signed int16 xs_ve,ys_ve,tgs45; 
.................... float xs_tinh,ys_tinh,goc_s; 
....................  
.................... signed int16 xh_ve,yh_ve,tgh9; 
.................... float xh_tinh,yh_tinh,goc_h; 
....................  
.................... void glcd_ve_cac_vong_tron_so() 
.................... { 
....................     unsigned char glcd_text1[]={"Clock: UTE"}, glcd_12[]="12"; 
*
112C:  MOVLW  43
112E:  MOVLB  4
1130:  MOVWF  xAE
1132:  MOVLW  6C
1134:  MOVWF  xAF
1136:  MOVLW  6F
1138:  MOVWF  xB0
113A:  MOVLW  63
113C:  MOVWF  xB1
113E:  MOVLW  6B
1140:  MOVWF  xB2
1142:  MOVLW  3A
1144:  MOVWF  xB3
1146:  MOVLW  20
1148:  MOVWF  xB4
114A:  MOVLW  55
114C:  MOVWF  xB5
114E:  MOVLW  54
1150:  MOVWF  xB6
1152:  MOVLW  45
1154:  MOVWF  xB7
1156:  CLRF   xB8
1158:  MOVLW  31
115A:  MOVWF  xB9
115C:  MOVLW  32
115E:  MOVWF  xBA
1160:  CLRF   xBB
....................     unsigned char glcd_3[]="3",glcd_6[]="6",glcd_9[]="9"; 
1162:  MOVLW  33
1164:  MOVWF  xBC
1166:  CLRF   xBD
1168:  MOVLW  36
116A:  MOVWF  xBE
116C:  CLRF   xBF
116E:  MOVLW  39
1170:  MOVWF  xC0
1172:  CLRF   xC1
....................     
....................     setup_glcd(glcd_graphic_mode); 
1174:  MOVLW  36
1176:  MOVWF  xC2
1178:  MOVLB  0
117A:  CALL   04AC
....................     glcd_mau_nen(0) ; 
117E:  MOVLB  4
1180:  CLRF   xC2
1182:  MOVLB  0
1184:  CALL   0526
....................     glcd_text57(0,0,glcd_text1, 1, 1); 
1188:  MOVLB  4
118A:  CLRF   xC2
118C:  CLRF   xC3
118E:  MOVLW  04
1190:  MOVWF  xC5
1192:  MOVLW  AE
1194:  MOVWF  xC4
1196:  MOVLW  01
1198:  MOVWF  xC6
119A:  MOVWF  xC7
119C:  MOVLB  0
119E:  RCALL  0BDE
....................      
....................     glcd_text57(xt-5,yt-29,glcd_12, 1,1); 
11A0:  MOVLW  5B
11A2:  MOVLB  4
11A4:  MOVWF  xC2
11A6:  MOVLW  03
11A8:  MOVWF  xC3
11AA:  MOVLW  04
11AC:  MOVWF  xC5
11AE:  MOVLW  B9
11B0:  MOVWF  xC4
11B2:  MOVLW  01
11B4:  MOVWF  xC6
11B6:  MOVWF  xC7
11B8:  MOVLB  0
11BA:  RCALL  0BDE
....................     glcd_text57(xt-3,yt+23,glcd_6, 1,1); 
11BC:  MOVLW  5D
11BE:  MOVLB  4
11C0:  MOVWF  xC2
11C2:  MOVLW  37
11C4:  MOVWF  xC3
11C6:  MOVLW  04
11C8:  MOVWF  xC5
11CA:  MOVLW  BE
11CC:  MOVWF  xC4
11CE:  MOVLW  01
11D0:  MOVWF  xC6
11D2:  MOVWF  xC7
11D4:  MOVLB  0
11D6:  RCALL  0BDE
....................     glcd_text57(xt-28,yt-3,glcd_9, 1,1); 
11D8:  MOVLW  44
11DA:  MOVLB  4
11DC:  MOVWF  xC2
11DE:  MOVLW  1D
11E0:  MOVWF  xC3
11E2:  MOVLW  04
11E4:  MOVWF  xC5
11E6:  MOVLW  C0
11E8:  MOVWF  xC4
11EA:  MOVLW  01
11EC:  MOVWF  xC6
11EE:  MOVWF  xC7
11F0:  MOVLB  0
11F2:  RCALL  0BDE
....................     glcd_text57(xt+24,yt-3,glcd_3, 1,1); 
11F4:  MOVLW  78
11F6:  MOVLB  4
11F8:  MOVWF  xC2
11FA:  MOVLW  1D
11FC:  MOVWF  xC3
11FE:  MOVLW  04
1200:  MOVWF  xC5
1202:  MOVLW  BC
1204:  MOVWF  xC4
1206:  MOVLW  01
1208:  MOVWF  xC6
120A:  MOVWF  xC7
120C:  MOVLB  0
120E:  RCALL  0BDE
....................      
....................     glcd_circle(xt,yt,bks+11,no_fill,sang); 
1210:  MOVLW  60
1212:  MOVLB  4
1214:  MOVWF  xC2
1216:  MOVLW  20
1218:  MOVWF  xC3
121A:  MOVLW  1F
121C:  MOVWF  xC4
121E:  CLRF   xC5
1220:  MOVLW  01
1222:  MOVWF  xC6
1224:  MOVLB  0
1226:  RCALL  0F1C
....................     glcd_circle(xt,yt,bks+2,no_fill,sang); 
1228:  MOVLW  60
122A:  MOVLB  4
122C:  MOVWF  xC2
122E:  MOVLW  20
1230:  MOVWF  xC3
1232:  MOVLW  16
1234:  MOVWF  xC4
1236:  CLRF   xC5
1238:  MOVLW  01
123A:  MOVWF  xC6
123C:  MOVLB  0
123E:  RCALL  0F1C
....................      
....................     glcd_circle(xt+12,yt-23,+2,co_fill,sang); 
1240:  MOVLW  6C
1242:  MOVLB  4
1244:  MOVWF  xC2
1246:  MOVLW  09
1248:  MOVWF  xC3
124A:  MOVLW  02
124C:  MOVWF  xC4
124E:  MOVLW  01
1250:  MOVWF  xC5
1252:  MOVWF  xC6
1254:  MOVLB  0
1256:  RCALL  0F1C
....................     glcd_circle(xt+23,yt-12,+2,co_fill,sang); 
1258:  MOVLW  77
125A:  MOVLB  4
125C:  MOVWF  xC2
125E:  MOVLW  14
1260:  MOVWF  xC3
1262:  MOVLW  02
1264:  MOVWF  xC4
1266:  MOVLW  01
1268:  MOVWF  xC5
126A:  MOVWF  xC6
126C:  MOVLB  0
126E:  RCALL  0F1C
....................     glcd_circle(xt+12,yt+23,+2,co_fill,sang); 
1270:  MOVLW  6C
1272:  MOVLB  4
1274:  MOVWF  xC2
1276:  MOVLW  37
1278:  MOVWF  xC3
127A:  MOVLW  02
127C:  MOVWF  xC4
127E:  MOVLW  01
1280:  MOVWF  xC5
1282:  MOVWF  xC6
1284:  MOVLB  0
1286:  RCALL  0F1C
....................     glcd_circle(xt+23,yt+12,+2,co_fill,sang); 
1288:  MOVLW  77
128A:  MOVLB  4
128C:  MOVWF  xC2
128E:  MOVLW  2C
1290:  MOVWF  xC3
1292:  MOVLW  02
1294:  MOVWF  xC4
1296:  MOVLW  01
1298:  MOVWF  xC5
129A:  MOVWF  xC6
129C:  MOVLB  0
129E:  RCALL  0F1C
....................     glcd_circle(xt-12,yt-23,+2,co_fill,sang); 
12A0:  MOVLW  54
12A2:  MOVLB  4
12A4:  MOVWF  xC2
12A6:  MOVLW  09
12A8:  MOVWF  xC3
12AA:  MOVLW  02
12AC:  MOVWF  xC4
12AE:  MOVLW  01
12B0:  MOVWF  xC5
12B2:  MOVWF  xC6
12B4:  MOVLB  0
12B6:  RCALL  0F1C
....................     glcd_circle(xt-23,yt-12,+2,co_fill,sang); 
12B8:  MOVLW  49
12BA:  MOVLB  4
12BC:  MOVWF  xC2
12BE:  MOVLW  14
12C0:  MOVWF  xC3
12C2:  MOVLW  02
12C4:  MOVWF  xC4
12C6:  MOVLW  01
12C8:  MOVWF  xC5
12CA:  MOVWF  xC6
12CC:  MOVLB  0
12CE:  RCALL  0F1C
....................     glcd_circle(xt-12,yt+23,+2,co_fill,sang); 
12D0:  MOVLW  54
12D2:  MOVLB  4
12D4:  MOVWF  xC2
12D6:  MOVLW  37
12D8:  MOVWF  xC3
12DA:  MOVLW  02
12DC:  MOVWF  xC4
12DE:  MOVLW  01
12E0:  MOVWF  xC5
12E2:  MOVWF  xC6
12E4:  MOVLB  0
12E6:  RCALL  0F1C
....................     glcd_circle(xt-23,yt+12,+2,co_fill,sang);   
12E8:  MOVLW  49
12EA:  MOVLB  4
12EC:  MOVWF  xC2
12EE:  MOVLW  2C
12F0:  MOVWF  xC3
12F2:  MOVLW  02
12F4:  MOVWF  xC4
12F6:  MOVLW  01
12F8:  MOVWF  xC5
12FA:  MOVWF  xC6
12FC:  MOVLB  0
12FE:  RCALL  0F1C
1300:  GOTO   3528 (RETURN)
.................... } 
.................... void tinh_vi_tri_kim_gio(usi8 bk, usi16 tg) 
.................... { 
....................    tgh9 = tg+9; 
*
22D0:  MOVLW  09
22D2:  MOVLB  4
22D4:  ADDWF  xB3,W
22D6:  MOVWF  01
22D8:  MOVLW  00
22DA:  ADDWFC xB4,W
22DC:  MOVFF  01,462
22E0:  MOVWF  x63
....................    if(tgh9>12)  tgh9=tgh9-12; 
22E2:  BTFSC  x63.7
22E4:  BRA    22F8
22E6:  MOVF   x63,F
22E8:  BNZ   22F0
22EA:  MOVF   x62,W
22EC:  SUBLW  0C
22EE:  BC    22F8
22F0:  MOVLW  0C
22F2:  SUBWF  x62,F
22F4:  MOVLW  00
22F6:  SUBWFB x63,F
....................    goc_h = tgh9*30; 
22F8:  MOVFF  463,4B6
22FC:  MOVFF  462,4B5
2300:  CLRF   xB8
2302:  MOVLW  1E
2304:  MOVWF  xB7
2306:  MOVLB  0
2308:  CALL   1304
230C:  MOVFF  02,4B6
2310:  MOVFF  01,4B5
2314:  MOVLB  0
2316:  CALL   1358
231A:  MOVFF  03,46F
231E:  MOVFF  02,46E
2322:  MOVFF  01,46D
2326:  MOVFF  00,46C
....................    xh_tinh = bk*cos((goc_h*3.14)/180); 
232A:  MOVFF  46F,4F2
232E:  MOVFF  46E,4F1
2332:  MOVFF  46D,4F0
2336:  MOVFF  46C,4EF
233A:  MOVLW  C3
233C:  MOVLB  4
233E:  MOVWF  xF6
2340:  MOVLW  F5
2342:  MOVWF  xF5
2344:  MOVLW  48
2346:  MOVWF  xF4
2348:  MOVLW  80
234A:  MOVWF  xF3
234C:  MOVLB  0
234E:  CALL   13A8
2352:  MOVFF  03,4B8
2356:  MOVFF  02,4B7
235A:  MOVFF  01,4B6
235E:  MOVFF  00,4B5
2362:  MOVFF  03,4BD
2366:  MOVFF  02,4BC
236A:  MOVFF  01,4BB
236E:  MOVFF  00,4BA
2372:  MOVLB  4
2374:  CLRF   xC1
2376:  CLRF   xC0
2378:  MOVLW  34
237A:  MOVWF  xBF
237C:  MOVLW  86
237E:  MOVWF  xBE
2380:  MOVLB  0
2382:  CALL   149E
2386:  MOVFF  03,4B8
238A:  MOVFF  02,4B7
238E:  MOVFF  01,4B6
2392:  MOVFF  00,4B5
2396:  MOVFF  03,4C4
239A:  MOVFF  02,4C3
239E:  MOVFF  01,4C2
23A2:  MOVFF  00,4C1
23A6:  CALL   1962
23AA:  MOVFF  03,4B8
23AE:  MOVFF  02,4B7
23B2:  MOVFF  01,4B6
23B6:  MOVFF  00,4B5
23BA:  MOVLB  4
23BC:  CLRF   xF0
23BE:  MOVFF  4B2,4EF
23C2:  MOVLB  0
23C4:  CALL   16B4
23C8:  MOVFF  03,4F2
23CC:  MOVFF  02,4F1
23D0:  MOVFF  01,4F0
23D4:  MOVFF  00,4EF
23D8:  MOVFF  4B8,4F6
23DC:  MOVFF  4B7,4F5
23E0:  MOVFF  4B6,4F4
23E4:  MOVFF  4B5,4F3
23E8:  CALL   13A8
23EC:  MOVFF  03,467
23F0:  MOVFF  02,466
23F4:  MOVFF  01,465
23F8:  MOVFF  00,464
....................    yh_tinh = bk*sin((goc_h*3.14)/180); 
23FC:  MOVFF  46F,4F2
2400:  MOVFF  46E,4F1
2404:  MOVFF  46D,4F0
2408:  MOVFF  46C,4EF
240C:  MOVLW  C3
240E:  MOVLB  4
2410:  MOVWF  xF6
2412:  MOVLW  F5
2414:  MOVWF  xF5
2416:  MOVLW  48
2418:  MOVWF  xF4
241A:  MOVLW  80
241C:  MOVWF  xF3
241E:  MOVLB  0
2420:  CALL   13A8
2424:  MOVFF  03,4B8
2428:  MOVFF  02,4B7
242C:  MOVFF  01,4B6
2430:  MOVFF  00,4B5
2434:  MOVFF  03,4BD
2438:  MOVFF  02,4BC
243C:  MOVFF  01,4BB
2440:  MOVFF  00,4BA
2444:  MOVLB  4
2446:  CLRF   xC1
2448:  CLRF   xC0
244A:  MOVLW  34
244C:  MOVWF  xBF
244E:  MOVLW  86
2450:  MOVWF  xBE
2452:  MOVLB  0
2454:  CALL   149E
2458:  MOVFF  03,4B8
245C:  MOVFF  02,4B7
2460:  MOVFF  01,4B6
2464:  MOVFF  00,4B5
2468:  MOVFF  03,4BC
246C:  MOVFF  02,4BB
2470:  MOVFF  01,4BA
2474:  MOVFF  00,4B9
2478:  RCALL  1CEA
247A:  MOVFF  03,4B8
247E:  MOVFF  02,4B7
2482:  MOVFF  01,4B6
2486:  MOVFF  00,4B5
248A:  MOVLB  4
248C:  CLRF   xF0
248E:  MOVFF  4B2,4EF
2492:  MOVLB  0
2494:  CALL   16B4
2498:  MOVFF  03,4F2
249C:  MOVFF  02,4F1
24A0:  MOVFF  01,4F0
24A4:  MOVFF  00,4EF
24A8:  MOVFF  4B8,4F6
24AC:  MOVFF  4B7,4F5
24B0:  MOVFF  4B6,4F4
24B4:  MOVFF  4B5,4F3
24B8:  CALL   13A8
24BC:  MOVFF  03,46B
24C0:  MOVFF  02,46A
24C4:  MOVFF  01,469
24C8:  MOVFF  00,468
....................    xh_ve = xt + (signed int16)(xh_tinh); 
24CC:  MOVFF  467,4EE
24D0:  MOVFF  466,4ED
24D4:  MOVFF  465,4EC
24D8:  MOVFF  464,4EB
24DC:  CALL   1678
24E0:  MOVF   01,W
24E2:  ADDLW  60
24E4:  MOVLB  4
24E6:  MOVWF  x5E
24E8:  MOVLW  00
24EA:  ADDWFC 02,W
24EC:  MOVWF  x5F
....................    yh_ve = yt + (signed int16)(yh_tinh); 
24EE:  MOVFF  46B,4EE
24F2:  MOVFF  46A,4ED
24F6:  MOVFF  469,4EC
24FA:  MOVFF  468,4EB
24FE:  MOVLB  0
2500:  CALL   1678
2504:  MOVF   01,W
2506:  ADDLW  20
2508:  MOVLB  4
250A:  MOVWF  x60
250C:  MOVLW  00
250E:  ADDWFC 02,W
2510:  MOVWF  x61
2512:  MOVLB  0
2514:  GOTO   2548 (RETURN)
.................... } 
....................  
.................... void glcd_ve_kim_gio(usi8 bk,usi16 tg,int1 tt) 
.................... { 
....................    if(tt) glcd_line(xt,yt,xh_ve,yh_ve,tat);   // xoa gio 
2518:  MOVLB  4
251A:  MOVF   xB1,F
251C:  BZ    2538
251E:  MOVLW  60
2520:  MOVWF  xCE
2522:  MOVLW  20
2524:  MOVWF  xCF
2526:  MOVFF  45E,4D0
252A:  MOVFF  460,4D1
252E:  CLRF   xD2
2530:  MOVLB  0
2532:  CALL   0D98
2536:  MOVLB  4
....................    tinh_vi_tri_kim_gio(bk,tg);                // gio moi 
2538:  MOVFF  4AE,4B2
253C:  MOVFF  4B0,4B4
2540:  MOVFF  4AF,4B3
2544:  MOVLB  0
2546:  BRA    22D0
2548:  RETURN 0
.................... } 
....................  
.................... void tinh_vi_tri_kim_phut(usi8 bk, usi16 tg) 
.................... { 
....................    tgm45 = tg+45; 
*
203E:  MOVLW  2D
2040:  MOVLB  4
2042:  ADDWF  xB3,W
2044:  MOVWF  01
2046:  MOVLW  00
2048:  ADDWFC xB4,W
204A:  MOVFF  01,43E
204E:  MOVWF  x3F
....................    if(tgm45>60)  tgm45=tgm45-60; 
2050:  BTFSC  x3F.7
2052:  BRA    2066
2054:  MOVF   x3F,F
2056:  BNZ   205E
2058:  MOVF   x3E,W
205A:  SUBLW  3C
205C:  BC    2066
205E:  MOVLW  3C
2060:  SUBWF  x3E,F
2062:  MOVLW  00
2064:  SUBWFB x3F,F
....................    goc_m = tgm45*6; 
2066:  MOVFF  43F,4B6
206A:  MOVFF  43E,4B5
206E:  CLRF   xB8
2070:  MOVLW  06
2072:  MOVWF  xB7
2074:  MOVLB  0
2076:  CALL   1304
207A:  MOVFF  02,4B6
207E:  MOVFF  01,4B5
2082:  MOVLB  0
2084:  CALL   1358
2088:  MOVFF  03,44B
208C:  MOVFF  02,44A
2090:  MOVFF  01,449
2094:  MOVFF  00,448
....................    xm_tinh = bk*cos((goc_m*3.14)/180); 
2098:  MOVFF  44B,4F2
209C:  MOVFF  44A,4F1
20A0:  MOVFF  449,4F0
20A4:  MOVFF  448,4EF
20A8:  MOVLW  C3
20AA:  MOVLB  4
20AC:  MOVWF  xF6
20AE:  MOVLW  F5
20B0:  MOVWF  xF5
20B2:  MOVLW  48
20B4:  MOVWF  xF4
20B6:  MOVLW  80
20B8:  MOVWF  xF3
20BA:  MOVLB  0
20BC:  CALL   13A8
20C0:  MOVFF  03,4B8
20C4:  MOVFF  02,4B7
20C8:  MOVFF  01,4B6
20CC:  MOVFF  00,4B5
20D0:  MOVFF  03,4BD
20D4:  MOVFF  02,4BC
20D8:  MOVFF  01,4BB
20DC:  MOVFF  00,4BA
20E0:  MOVLB  4
20E2:  CLRF   xC1
20E4:  CLRF   xC0
20E6:  MOVLW  34
20E8:  MOVWF  xBF
20EA:  MOVLW  86
20EC:  MOVWF  xBE
20EE:  MOVLB  0
20F0:  CALL   149E
20F4:  MOVFF  03,4B8
20F8:  MOVFF  02,4B7
20FC:  MOVFF  01,4B6
2100:  MOVFF  00,4B5
2104:  MOVFF  03,4C4
2108:  MOVFF  02,4C3
210C:  MOVFF  01,4C2
2110:  MOVFF  00,4C1
2114:  RCALL  1962
2116:  MOVFF  03,4B8
211A:  MOVFF  02,4B7
211E:  MOVFF  01,4B6
2122:  MOVFF  00,4B5
2126:  MOVLB  4
2128:  CLRF   xF0
212A:  MOVFF  4B2,4EF
212E:  MOVLB  0
2130:  CALL   16B4
2134:  MOVFF  03,4F2
2138:  MOVFF  02,4F1
213C:  MOVFF  01,4F0
2140:  MOVFF  00,4EF
2144:  MOVFF  4B8,4F6
2148:  MOVFF  4B7,4F5
214C:  MOVFF  4B6,4F4
2150:  MOVFF  4B5,4F3
2154:  CALL   13A8
2158:  MOVFF  03,443
215C:  MOVFF  02,442
2160:  MOVFF  01,441
2164:  MOVFF  00,440
....................    ym_tinh = bk*sin((goc_m*3.14)/180); 
2168:  MOVFF  44B,4F2
216C:  MOVFF  44A,4F1
2170:  MOVFF  449,4F0
2174:  MOVFF  448,4EF
2178:  MOVLW  C3
217A:  MOVLB  4
217C:  MOVWF  xF6
217E:  MOVLW  F5
2180:  MOVWF  xF5
2182:  MOVLW  48
2184:  MOVWF  xF4
2186:  MOVLW  80
2188:  MOVWF  xF3
218A:  MOVLB  0
218C:  CALL   13A8
2190:  MOVFF  03,4B8
2194:  MOVFF  02,4B7
2198:  MOVFF  01,4B6
219C:  MOVFF  00,4B5
21A0:  MOVFF  03,4BD
21A4:  MOVFF  02,4BC
21A8:  MOVFF  01,4BB
21AC:  MOVFF  00,4BA
21B0:  MOVLB  4
21B2:  CLRF   xC1
21B4:  CLRF   xC0
21B6:  MOVLW  34
21B8:  MOVWF  xBF
21BA:  MOVLW  86
21BC:  MOVWF  xBE
21BE:  MOVLB  0
21C0:  CALL   149E
21C4:  MOVFF  03,4B8
21C8:  MOVFF  02,4B7
21CC:  MOVFF  01,4B6
21D0:  MOVFF  00,4B5
21D4:  MOVFF  03,4BC
21D8:  MOVFF  02,4BB
21DC:  MOVFF  01,4BA
21E0:  MOVFF  00,4B9
21E4:  RCALL  1CEA
21E6:  MOVFF  03,4B8
21EA:  MOVFF  02,4B7
21EE:  MOVFF  01,4B6
21F2:  MOVFF  00,4B5
21F6:  MOVLB  4
21F8:  CLRF   xF0
21FA:  MOVFF  4B2,4EF
21FE:  MOVLB  0
2200:  CALL   16B4
2204:  MOVFF  03,4F2
2208:  MOVFF  02,4F1
220C:  MOVFF  01,4F0
2210:  MOVFF  00,4EF
2214:  MOVFF  4B8,4F6
2218:  MOVFF  4B7,4F5
221C:  MOVFF  4B6,4F4
2220:  MOVFF  4B5,4F3
2224:  CALL   13A8
2228:  MOVFF  03,447
222C:  MOVFF  02,446
2230:  MOVFF  01,445
2234:  MOVFF  00,444
....................    xm_ve = xt + (signed int16)(xm_tinh); 
2238:  MOVFF  443,4EE
223C:  MOVFF  442,4ED
2240:  MOVFF  441,4EC
2244:  MOVFF  440,4EB
2248:  CALL   1678
224C:  MOVF   01,W
224E:  ADDLW  60
2250:  MOVLB  4
2252:  MOVWF  x3A
2254:  MOVLW  00
2256:  ADDWFC 02,W
2258:  MOVWF  x3B
....................    ym_ve = yt + (signed int16)(ym_tinh); 
225A:  MOVFF  447,4EE
225E:  MOVFF  446,4ED
2262:  MOVFF  445,4EC
2266:  MOVFF  444,4EB
226A:  MOVLB  0
226C:  CALL   1678
2270:  MOVF   01,W
2272:  ADDLW  20
2274:  MOVLB  4
2276:  MOVWF  x3C
2278:  MOVLW  00
227A:  ADDWFC 02,W
227C:  MOVWF  x3D
227E:  MOVLB  0
2280:  GOTO   22B4 (RETURN)
.................... } 
.................... void glcd_ve_kim_phut(usi8 bk,usi16 tg, int1 tt) 
.................... { 
....................    if(tt)  glcd_line(xt,yt,xm_ve,ym_ve,tat);  // xoa phut 
2284:  MOVLB  4
2286:  MOVF   xB1,F
2288:  BZ    22A4
228A:  MOVLW  60
228C:  MOVWF  xCE
228E:  MOVLW  20
2290:  MOVWF  xCF
2292:  MOVFF  43A,4D0
2296:  MOVFF  43C,4D1
229A:  CLRF   xD2
229C:  MOVLB  0
229E:  CALL   0D98
22A2:  MOVLB  4
....................    tinh_vi_tri_kim_phut(bk,tg);               // tinh phut moi 
22A4:  MOVFF  4AE,4B2
22A8:  MOVFF  4B0,4B4
22AC:  MOVFF  4AF,4B3
22B0:  MOVLB  0
22B2:  BRA    203E
....................    glcd_line(xt,yt,xs_ve,ys_ve,tat);          // xoa giay 59   
22B4:  MOVLW  60
22B6:  MOVLB  4
22B8:  MOVWF  xCE
22BA:  MOVLW  20
22BC:  MOVWF  xCF
22BE:  MOVFF  44C,4D0
22C2:  MOVFF  44E,4D1
22C6:  CLRF   xD2
22C8:  MOVLB  0
22CA:  CALL   0D98
22CE:  RETURN 0
.................... } 
....................  
.................... void tinh_vi_tri_kim_giay(usi8 bk, usi16 tg) 
.................... { 
....................    tgs45 = tg+45; 
*
1D36:  MOVLW  2D
1D38:  MOVLB  4
1D3A:  ADDWF  xB3,W
1D3C:  MOVWF  01
1D3E:  MOVLW  00
1D40:  ADDWFC xB4,W
1D42:  MOVFF  01,450
1D46:  MOVWF  x51
....................    if(tgs45>60)  tgs45=tgs45-60; 
1D48:  BTFSC  x51.7
1D4A:  BRA    1D5E
1D4C:  MOVF   x51,F
1D4E:  BNZ   1D56
1D50:  MOVF   x50,W
1D52:  SUBLW  3C
1D54:  BC    1D5E
1D56:  MOVLW  3C
1D58:  SUBWF  x50,F
1D5A:  MOVLW  00
1D5C:  SUBWFB x51,F
....................    goc_s = tgs45*6; 
1D5E:  MOVFF  451,4B6
1D62:  MOVFF  450,4B5
1D66:  CLRF   xB8
1D68:  MOVLW  06
1D6A:  MOVWF  xB7
1D6C:  MOVLB  0
1D6E:  CALL   1304
1D72:  MOVFF  02,4B6
1D76:  MOVFF  01,4B5
1D7A:  MOVLB  0
1D7C:  CALL   1358
1D80:  MOVFF  03,45D
1D84:  MOVFF  02,45C
1D88:  MOVFF  01,45B
1D8C:  MOVFF  00,45A
....................    xs_tinh = bk*cos((goc_s*3.14)/180); 
1D90:  MOVFF  45D,4F2
1D94:  MOVFF  45C,4F1
1D98:  MOVFF  45B,4F0
1D9C:  MOVFF  45A,4EF
1DA0:  MOVLW  C3
1DA2:  MOVLB  4
1DA4:  MOVWF  xF6
1DA6:  MOVLW  F5
1DA8:  MOVWF  xF5
1DAA:  MOVLW  48
1DAC:  MOVWF  xF4
1DAE:  MOVLW  80
1DB0:  MOVWF  xF3
1DB2:  MOVLB  0
1DB4:  CALL   13A8
1DB8:  MOVFF  03,4B8
1DBC:  MOVFF  02,4B7
1DC0:  MOVFF  01,4B6
1DC4:  MOVFF  00,4B5
1DC8:  MOVFF  03,4BD
1DCC:  MOVFF  02,4BC
1DD0:  MOVFF  01,4BB
1DD4:  MOVFF  00,4BA
1DD8:  MOVLB  4
1DDA:  CLRF   xC1
1DDC:  CLRF   xC0
1DDE:  MOVLW  34
1DE0:  MOVWF  xBF
1DE2:  MOVLW  86
1DE4:  MOVWF  xBE
1DE6:  MOVLB  0
1DE8:  CALL   149E
1DEC:  MOVFF  03,4B8
1DF0:  MOVFF  02,4B7
1DF4:  MOVFF  01,4B6
1DF8:  MOVFF  00,4B5
1DFC:  MOVFF  03,4C4
1E00:  MOVFF  02,4C3
1E04:  MOVFF  01,4C2
1E08:  MOVFF  00,4C1
1E0C:  RCALL  1962
1E0E:  MOVFF  03,4B8
1E12:  MOVFF  02,4B7
1E16:  MOVFF  01,4B6
1E1A:  MOVFF  00,4B5
1E1E:  MOVLB  4
1E20:  CLRF   xF0
1E22:  MOVFF  4B2,4EF
1E26:  MOVLB  0
1E28:  RCALL  16B4
1E2A:  MOVFF  03,4F2
1E2E:  MOVFF  02,4F1
1E32:  MOVFF  01,4F0
1E36:  MOVFF  00,4EF
1E3A:  MOVFF  4B8,4F6
1E3E:  MOVFF  4B7,4F5
1E42:  MOVFF  4B6,4F4
1E46:  MOVFF  4B5,4F3
1E4A:  CALL   13A8
1E4E:  MOVFF  03,455
1E52:  MOVFF  02,454
1E56:  MOVFF  01,453
1E5A:  MOVFF  00,452
....................    ys_tinh = bk*sin((goc_s*3.14)/180); 
1E5E:  MOVFF  45D,4F2
1E62:  MOVFF  45C,4F1
1E66:  MOVFF  45B,4F0
1E6A:  MOVFF  45A,4EF
1E6E:  MOVLW  C3
1E70:  MOVLB  4
1E72:  MOVWF  xF6
1E74:  MOVLW  F5
1E76:  MOVWF  xF5
1E78:  MOVLW  48
1E7A:  MOVWF  xF4
1E7C:  MOVLW  80
1E7E:  MOVWF  xF3
1E80:  MOVLB  0
1E82:  CALL   13A8
1E86:  MOVFF  03,4B8
1E8A:  MOVFF  02,4B7
1E8E:  MOVFF  01,4B6
1E92:  MOVFF  00,4B5
1E96:  MOVFF  03,4BD
1E9A:  MOVFF  02,4BC
1E9E:  MOVFF  01,4BB
1EA2:  MOVFF  00,4BA
1EA6:  MOVLB  4
1EA8:  CLRF   xC1
1EAA:  CLRF   xC0
1EAC:  MOVLW  34
1EAE:  MOVWF  xBF
1EB0:  MOVLW  86
1EB2:  MOVWF  xBE
1EB4:  MOVLB  0
1EB6:  CALL   149E
1EBA:  MOVFF  03,4B8
1EBE:  MOVFF  02,4B7
1EC2:  MOVFF  01,4B6
1EC6:  MOVFF  00,4B5
1ECA:  MOVFF  03,4BC
1ECE:  MOVFF  02,4BB
1ED2:  MOVFF  01,4BA
1ED6:  MOVFF  00,4B9
1EDA:  RCALL  1CEA
1EDC:  MOVFF  03,4B8
1EE0:  MOVFF  02,4B7
1EE4:  MOVFF  01,4B6
1EE8:  MOVFF  00,4B5
1EEC:  MOVLB  4
1EEE:  CLRF   xF0
1EF0:  MOVFF  4B2,4EF
1EF4:  MOVLB  0
1EF6:  CALL   16B4
1EFA:  MOVFF  03,4F2
1EFE:  MOVFF  02,4F1
1F02:  MOVFF  01,4F0
1F06:  MOVFF  00,4EF
1F0A:  MOVFF  4B8,4F6
1F0E:  MOVFF  4B7,4F5
1F12:  MOVFF  4B6,4F4
1F16:  MOVFF  4B5,4F3
1F1A:  CALL   13A8
1F1E:  MOVFF  03,459
1F22:  MOVFF  02,458
1F26:  MOVFF  01,457
1F2A:  MOVFF  00,456
....................    xs_ve = xt + (signed int16)(xs_tinh); 
1F2E:  MOVFF  455,4EE
1F32:  MOVFF  454,4ED
1F36:  MOVFF  453,4EC
1F3A:  MOVFF  452,4EB
1F3E:  CALL   1678
1F42:  MOVF   01,W
1F44:  ADDLW  60
1F46:  MOVLB  4
1F48:  MOVWF  x4C
1F4A:  MOVLW  00
1F4C:  ADDWFC 02,W
1F4E:  MOVWF  x4D
....................    ys_ve = yt + (signed int16)(ys_tinh);   
1F50:  MOVFF  459,4EE
1F54:  MOVFF  458,4ED
1F58:  MOVFF  457,4EC
1F5C:  MOVFF  456,4EB
1F60:  MOVLB  0
1F62:  CALL   1678
1F66:  MOVF   01,W
1F68:  ADDLW  20
1F6A:  MOVLB  4
1F6C:  MOVWF  x4E
1F6E:  MOVLW  00
1F70:  ADDWFC 02,W
1F72:  MOVWF  x4F
1F74:  MOVLB  0
1F76:  GOTO   1FB6 (RETURN)
.................... } 
....................  
.................... void glcd_ve_kim_giay(usi8 bk, usi16 tg, int1 tt) 
.................... { 
....................    glcd_command(glcd_graphic_mode); 
1F7A:  MOVLW  36
1F7C:  MOVLB  4
1F7E:  MOVWF  xC3
1F80:  MOVLB  0
1F82:  CALL   047A
....................    if(tt) glcd_line(xt,yt,xs_ve,ys_ve,tat);  // xoa kim giay 
1F86:  MOVLB  4
1F88:  MOVF   xB1,F
1F8A:  BZ    1FA6
1F8C:  MOVLW  60
1F8E:  MOVWF  xCE
1F90:  MOVLW  20
1F92:  MOVWF  xCF
1F94:  MOVFF  44C,4D0
1F98:  MOVFF  44E,4D1
1F9C:  CLRF   xD2
1F9E:  MOVLB  0
1FA0:  CALL   0D98
1FA4:  MOVLB  4
....................    tinh_vi_tri_kim_giay(bk,tg); 
1FA6:  MOVFF  4AE,4B2
1FAA:  MOVFF  4B0,4B4
1FAE:  MOVFF  4AF,4B3
1FB2:  MOVLB  0
1FB4:  BRA    1D36
....................    glcd_line(xt,yt,xs_ve,ys_ve,sang);   // ve giay 
1FB6:  MOVLW  60
1FB8:  MOVLB  4
1FBA:  MOVWF  xCE
1FBC:  MOVLW  20
1FBE:  MOVWF  xCF
1FC0:  MOVFF  44C,4D0
1FC4:  MOVFF  44E,4D1
1FC8:  MOVLW  01
1FCA:  MOVWF  xD2
1FCC:  MOVLB  0
1FCE:  CALL   0D98
....................     
....................    glcd_line(xt,yt,xm_ve,ym_ve,sang);   //  ve phut 
1FD2:  MOVLW  60
1FD4:  MOVLB  4
1FD6:  MOVWF  xCE
1FD8:  MOVLW  20
1FDA:  MOVWF  xCF
1FDC:  MOVFF  43A,4D0
1FE0:  MOVFF  43C,4D1
1FE4:  MOVLW  01
1FE6:  MOVWF  xD2
1FE8:  MOVLB  0
1FEA:  CALL   0D98
....................    glcd_line(xt,yt,xh_ve,yh_ve,sang);   //  ve gio 
1FEE:  MOVLW  60
1FF0:  MOVLB  4
1FF2:  MOVWF  xCE
1FF4:  MOVLW  20
1FF6:  MOVWF  xCF
1FF8:  MOVFF  45E,4D0
1FFC:  MOVFF  460,4D1
2000:  MOVLW  01
2002:  MOVWF  xD2
2004:  MOVLB  0
2006:  CALL   0D98
....................    glcd_circle(xt,yt,4,co_fill,sang); 
200A:  MOVLW  60
200C:  MOVLB  4
200E:  MOVWF  xC2
2010:  MOVLW  20
2012:  MOVWF  xC3
2014:  MOVLW  04
2016:  MOVWF  xC4
2018:  MOVLW  01
201A:  MOVWF  xC5
201C:  MOVWF  xC6
201E:  MOVLB  0
2020:  CALL   0F1C
....................    glcd_circle(xt,yt,2,no_fill,tat);   
2024:  MOVLW  60
2026:  MOVLB  4
2028:  MOVWF  xC2
202A:  MOVLW  20
202C:  MOVWF  xC3
202E:  MOVLW  02
2030:  MOVWF  xC4
2032:  CLRF   xC5
2034:  CLRF   xC6
2036:  MOVLB  0
2038:  CALL   0F1C
203C:  RETURN 0
.................... } 
....................  
.................... void glcd_dong_ho_so() 
.................... { 
....................     const signed int8 maglcd[]={"0123456789"}; 
....................     glcd_command(glcd_text_mode); 
*
31AA:  MOVLW  30
31AC:  MOVLB  4
31AE:  MOVWF  xC3
31B0:  MOVLB  0
31B2:  CALL   047A
....................     glcd_command(glcd_addr_line1); 
31B6:  MOVLW  90
31B8:  MOVLB  4
31BA:  MOVWF  xC3
31BC:  MOVLB  0
31BE:  CALL   047A
....................      
....................     glcd_data(maglcd[gio_ds/16]); 
31C2:  SWAPF  1F,W
31C4:  MOVWF  00
31C6:  MOVLW  0F
31C8:  ANDWF  00,F
31CA:  MOVF   00,W
31CC:  CLRF   03
31CE:  MOVFF  FF2,4AE
31D2:  BCF    FF2.7
31D4:  CALL   02C4
31D8:  MOVLB  4
31DA:  BTFSC  xAE.7
31DC:  BSF    FF2.7
31DE:  MOVWF  xAE
31E0:  MOVWF  xB1
31E2:  MOVLB  0
31E4:  RCALL  30B0
....................     glcd_data(maglcd[gio_ds%16]); 
31E6:  MOVF   1F,W
31E8:  ANDLW  0F
31EA:  CLRF   03
31EC:  MOVFF  FF2,4AE
31F0:  BCF    FF2.7
31F2:  CALL   02C4
31F6:  MOVLB  4
31F8:  BTFSC  xAE.7
31FA:  BSF    FF2.7
31FC:  MOVWF  xAE
31FE:  MOVWF  xB1
3200:  MOVLB  0
3202:  RCALL  30B0
....................     glcd_data(' '); 
3204:  MOVLW  20
3206:  MOVLB  4
3208:  MOVWF  xB1
320A:  MOVLB  0
320C:  RCALL  30B0
....................     glcd_data(maglcd[phut_ds/16]); 
320E:  SWAPF  1E,W
3210:  MOVWF  00
3212:  MOVLW  0F
3214:  ANDWF  00,F
3216:  MOVF   00,W
3218:  CLRF   03
321A:  MOVFF  FF2,4AE
321E:  BCF    FF2.7
3220:  CALL   02C4
3224:  MOVLB  4
3226:  BTFSC  xAE.7
3228:  BSF    FF2.7
322A:  MOVWF  xAE
322C:  MOVWF  xB1
322E:  MOVLB  0
3230:  RCALL  30B0
....................     glcd_data(maglcd[phut_ds%16]); 
3232:  MOVF   1E,W
3234:  ANDLW  0F
3236:  CLRF   03
3238:  MOVFF  FF2,4AE
323C:  BCF    FF2.7
323E:  CALL   02C4
3242:  MOVLB  4
3244:  BTFSC  xAE.7
3246:  BSF    FF2.7
3248:  MOVWF  xAE
324A:  MOVWF  xB1
324C:  MOVLB  0
324E:  RCALL  30B0
....................     glcd_data(' '); 
3250:  MOVLW  20
3252:  MOVLB  4
3254:  MOVWF  xB1
3256:  MOVLB  0
3258:  RCALL  30B0
....................     glcd_data(maglcd[giay_ds/16]); 
325A:  SWAPF  1D,W
325C:  MOVWF  00
325E:  MOVLW  0F
3260:  ANDWF  00,F
3262:  MOVF   00,W
3264:  CLRF   03
3266:  MOVFF  FF2,4AE
326A:  BCF    FF2.7
326C:  CALL   02C4
3270:  MOVLB  4
3272:  BTFSC  xAE.7
3274:  BSF    FF2.7
3276:  MOVWF  xAE
3278:  MOVWF  xB1
327A:  MOVLB  0
327C:  RCALL  30B0
....................     glcd_data(maglcd[giay_ds%16]); 
327E:  MOVF   1D,W
3280:  ANDLW  0F
3282:  CLRF   03
3284:  MOVFF  FF2,4AE
3288:  BCF    FF2.7
328A:  CALL   02C4
328E:  MOVLB  4
3290:  BTFSC  xAE.7
3292:  BSF    FF2.7
3294:  MOVWF  xAE
3296:  MOVWF  xB1
3298:  MOVLB  0
329A:  RCALL  30B0
....................      
....................     glcd_command(glcd_addr_line2); 
329C:  MOVLW  88
329E:  MOVLB  4
32A0:  MOVWF  xC3
32A2:  MOVLB  0
32A4:  CALL   047A
....................     glcd_data(maglcd[ngay_ds/16]); 
32A8:  SWAPF  21,W
32AA:  MOVWF  00
32AC:  MOVLW  0F
32AE:  ANDWF  00,F
32B0:  MOVF   00,W
32B2:  CLRF   03
32B4:  MOVFF  FF2,4AE
32B8:  BCF    FF2.7
32BA:  CALL   02C4
32BE:  MOVLB  4
32C0:  BTFSC  xAE.7
32C2:  BSF    FF2.7
32C4:  MOVWF  xAE
32C6:  MOVWF  xB1
32C8:  MOVLB  0
32CA:  RCALL  30B0
....................     glcd_data(maglcd[ngay_ds%16]); 
32CC:  MOVF   21,W
32CE:  ANDLW  0F
32D0:  CLRF   03
32D2:  MOVFF  FF2,4AE
32D6:  BCF    FF2.7
32D8:  CALL   02C4
32DC:  MOVLB  4
32DE:  BTFSC  xAE.7
32E0:  BSF    FF2.7
32E2:  MOVWF  xAE
32E4:  MOVWF  xB1
32E6:  MOVLB  0
32E8:  RCALL  30B0
....................     glcd_data(' '); 
32EA:  MOVLW  20
32EC:  MOVLB  4
32EE:  MOVWF  xB1
32F0:  MOVLB  0
32F2:  RCALL  30B0
....................     glcd_data(maglcd[thang_ds/16]); 
32F4:  SWAPF  22,W
32F6:  MOVWF  00
32F8:  MOVLW  0F
32FA:  ANDWF  00,F
32FC:  MOVF   00,W
32FE:  CLRF   03
3300:  MOVFF  FF2,4AE
3304:  BCF    FF2.7
3306:  CALL   02C4
330A:  MOVLB  4
330C:  BTFSC  xAE.7
330E:  BSF    FF2.7
3310:  MOVWF  xAE
3312:  MOVWF  xB1
3314:  MOVLB  0
3316:  RCALL  30B0
....................     glcd_data(maglcd[thang_ds%16]); 
3318:  MOVF   22,W
331A:  ANDLW  0F
331C:  CLRF   03
331E:  MOVFF  FF2,4AE
3322:  BCF    FF2.7
3324:  CALL   02C4
3328:  MOVLB  4
332A:  BTFSC  xAE.7
332C:  BSF    FF2.7
332E:  MOVWF  xAE
3330:  MOVWF  xB1
3332:  MOVLB  0
3334:  RCALL  30B0
....................     glcd_data(' '); 
3336:  MOVLW  20
3338:  MOVLB  4
333A:  MOVWF  xB1
333C:  MOVLB  0
333E:  RCALL  30B0
....................     glcd_data(maglcd[nam_ds/16]); 
3340:  SWAPF  23,W
3342:  MOVWF  00
3344:  MOVLW  0F
3346:  ANDWF  00,F
3348:  MOVF   00,W
334A:  CLRF   03
334C:  MOVFF  FF2,4AE
3350:  BCF    FF2.7
3352:  CALL   02C4
3356:  MOVLB  4
3358:  BTFSC  xAE.7
335A:  BSF    FF2.7
335C:  MOVWF  xAE
335E:  MOVWF  xB1
3360:  MOVLB  0
3362:  RCALL  30B0
....................     glcd_data(maglcd[nam_ds%16]); 
3364:  MOVF   23,W
3366:  ANDLW  0F
3368:  CLRF   03
336A:  MOVFF  FF2,4AE
336E:  BCF    FF2.7
3370:  CALL   02C4
3374:  MOVLB  4
3376:  BTFSC  xAE.7
3378:  BSF    FF2.7
337A:  MOVWF  xAE
337C:  MOVWF  xB1
337E:  MOVLB  0
3380:  RCALL  30B0
3382:  GOTO   3720 (RETURN)
.................... } 
....................  
.................... //!usi8 ds_b[8]={0x8E,0X00,0X00,0X00,0XB8,0XC5,0X30,0X28}; 
.................... //!usi8 ds_a[8]={0x16,0X00,0X00,0X00,0XB8,0XC5,0X40,0X28}; 
.................... usi8 ds_a[8]={0xF5,0X00,0X00,0X05,0X1E,0XA9,0X27,0X28}; 
.................... usi8 ds_b[8]={0xCA,0X00,0X00,0X05,0X23,0X29,0X8B,0X28}; 
.................... //!usi8 ds_a[8]={0XB2,0X00,0X00,0X05,0X22,0X53,0X12,0X28}; 
.................... //!usi8 ds_b[8]={0XD7,0X00,0X00,0X05,0X1F,0X42,0X97,0X28}; 
.................... si8 i; 
.................... unsigned int8 solan=50; 
.................... #include <bai_tong_hop_tv.c> 
.................... unsigned int8 ds18a_ng,ds18a_ngt=0; 
.................... unsigned int16 ds18a_w,ds18a_tp,ds18a_tpt=50; 
.................... unsigned int8 ds18b_ng,ds18b_ngt=0; 
.................... unsigned int16 ds18b_w,ds18b_tp,ds18b_tpt=50; 
....................  
.................... unsigned INT16 lm35a_ng,lm35a_tp,lm35a_ngt=0; 
.................... unsigned INT16 lm35b_ng,lm35b_tp,lm35b_ngt=0; 
....................  
.................... usi8 hum_bl,hum_bh,tem_bl,tem_bh,sum, sum_ss; //hum: do am; tem: nhiet do byte thap. byte cao 
.................... usi8 hum_bht=0, tem_bht=0; 
.................... int1 presence; 
....................  
.................... #define hstd 20 
.................... unsigned int16 pwm_tdo = 0; 
.................... //signed int8 i; 
.................... int1 tt_onoff=0; 
....................  
.................... void ds18b20_a_ht_lcd() 
.................... { 
....................     if(ds18a_ngt!=ds18a_ng) 
*
290A:  MOVLB  4
290C:  MOVF   x82,W
290E:  SUBWF  x83,W
2910:  BZ    2928
....................     { 
....................        ds18a_ngt=ds18a_ng; 
2912:  MOVFF  482,483
....................        lcd_gm_ht_2so_to_xvn(ds18a_ng,0,0,kx_vn); 
2916:  CLRF   xB3
2918:  MOVFF  482,4B2
291C:  CLRF   xB4
291E:  CLRF   xB5
2920:  CLRF   xB6
2922:  MOVLB  0
2924:  RCALL  2808
2926:  MOVLB  4
....................        //lcd_data("."); 
....................     } 
....................     if(ds18a_tpt!=ds18a_tp) 
2928:  MOVF   x86,W
292A:  SUBWF  x88,W
292C:  BNZ   2934
292E:  MOVF   x87,W
2930:  SUBWF  x89,W
2932:  BZ    298A
....................     { 
....................        ds18a_tpt=ds18a_tp; 
2934:  MOVFF  487,489
2938:  MOVFF  486,488
....................        //lcd_goto_xy(1,6); 
....................        //lcd_data((ds18a_tp*625)/1000+0x30); 
....................        //lcd_gm_ht_2so_nho_xvn((ds18a_tp*625)/10,2,0,kx_vn); 
....................        lcd_hien_thi_1so_tp_nho((ds18a_tp*625)/10, 1, 6); 
293C:  MOVFF  487,4E3
2940:  MOVFF  486,4E2
2944:  MOVLW  02
2946:  MOVWF  xE5
2948:  MOVLW  71
294A:  MOVWF  xE4
294C:  MOVLB  0
294E:  CALL   0504
2952:  MOVFF  02,4AF
2956:  MOVFF  01,4AE
295A:  MOVFF  02,4BC
295E:  MOVFF  01,4BB
2962:  MOVLB  4
2964:  CLRF   xBE
2966:  MOVLW  0A
2968:  MOVWF  xBD
296A:  MOVLB  0
296C:  RCALL  2702
296E:  MOVFF  02,4AF
2972:  MOVFF  01,4AE
2976:  MOVFF  01,4B4
297A:  MOVLW  01
297C:  MOVLB  4
297E:  MOVWF  xB5
2980:  MOVLW  06
2982:  MOVWF  xB6
2984:  MOVLB  0
2986:  RCALL  28D2
2988:  MOVLB  4
....................     } 
298A:  MOVLB  0
298C:  GOTO   29E8 (RETURN)
.................... } 
....................  
.................... void ds18b20_b_ht_lcd() 
.................... { 
....................     if(ds18b_ngt!=ds18b_ng) 
*
29F0:  MOVLB  4
29F2:  MOVF   x8A,W
29F4:  SUBWF  x8B,W
29F6:  BZ    2A10
....................     { 
....................        ds18b_ngt=ds18b_ng; 
29F8:  MOVFF  48A,48B
....................        lcd_gm_ht_2so_to_xvn(ds18b_ng,0,12,kx_vn); 
29FC:  CLRF   xB3
29FE:  MOVFF  48A,4B2
2A02:  CLRF   xB4
2A04:  MOVLW  0C
2A06:  MOVWF  xB5
2A08:  CLRF   xB6
2A0A:  MOVLB  0
2A0C:  RCALL  2808
2A0E:  MOVLB  4
....................        //lcd_data("."); 
....................     } 
....................     if(ds18b_tpt!=ds18b_tp) 
2A10:  MOVF   x8E,W
2A12:  SUBWF  x90,W
2A14:  BNZ   2A1C
2A16:  MOVF   x8F,W
2A18:  SUBWF  x91,W
2A1A:  BZ    2A72
....................     { 
....................        ds18b_tpt=ds18b_tp; 
2A1C:  MOVFF  48F,491
2A20:  MOVFF  48E,490
....................        //lcd_goto_xy(1,19); 
....................        //lcd_data((ds18b_tp*625)/1000+0x30); 
....................        //lcd_gm_ht_2so_nho_xvn((ds18b_tp*625)/10,2,0,kx_vn); 
....................        lcd_hien_thi_1so_tp_nho((ds18a_tp*625)/10, 1, 18); 
2A24:  MOVFF  487,4E3
2A28:  MOVFF  486,4E2
2A2C:  MOVLW  02
2A2E:  MOVWF  xE5
2A30:  MOVLW  71
2A32:  MOVWF  xE4
2A34:  MOVLB  0
2A36:  CALL   0504
2A3A:  MOVFF  02,4AF
2A3E:  MOVFF  01,4AE
2A42:  MOVFF  02,4BC
2A46:  MOVFF  01,4BB
2A4A:  MOVLB  4
2A4C:  CLRF   xBE
2A4E:  MOVLW  0A
2A50:  MOVWF  xBD
2A52:  MOVLB  0
2A54:  RCALL  2702
2A56:  MOVFF  02,4AF
2A5A:  MOVFF  01,4AE
2A5E:  MOVFF  01,4B4
2A62:  MOVLW  01
2A64:  MOVLB  4
2A66:  MOVWF  xB5
2A68:  MOVLW  12
2A6A:  MOVWF  xB6
2A6C:  MOVLB  0
2A6E:  RCALL  28D2
2A70:  MOVLB  4
....................     } 
2A72:  MOVLB  0
2A74:  GOTO   2AB8 (RETURN)
.................... } 
....................  
.................... unsigned int16 ds18b20_read_temp_mr(int1 sel) 
.................... { 
....................    unsigned int8 bl,bh; 
....................    unsigned int16 w; 
....................    touch_write_byte(match_rom); //goi byte ma lenh match_rom ra 2 vi mach Ds 
*
264A:  MOVLW  55
264C:  MOVLB  4
264E:  MOVWF  xB4
2650:  MOVLB  0
2652:  CALL   09DA
....................    if(!sel)  
2656:  MOVLB  4
2658:  MOVF   xAE,F
265A:  BNZ   268C
....................    { 
....................       for(i=7;i>-1;i--) 
265C:  MOVLW  07
265E:  MOVWF  x80
2660:  MOVF   x80,W
2662:  XORLW  80
2664:  SUBLW  7F
2666:  BC    268A
....................          touch_write_byte(ds_a[i]); 
2668:  CLRF   03
266A:  MOVF   x80,W
266C:  ADDLW  70
266E:  MOVWF  FE9
2670:  MOVLW  04
2672:  ADDWFC 03,W
2674:  MOVWF  FEA
2676:  MOVFF  FEF,4B3
267A:  MOVFF  4B3,4B4
267E:  MOVLB  0
2680:  CALL   09DA
2684:  MOVLB  4
2686:  DECF   x80,F
2688:  BRA    2660
....................    } 
268A:  BRA    26BA
....................    else 
....................    { 
....................       for(i=7;i>-1;i--) 
268C:  MOVLW  07
268E:  MOVWF  x80
2690:  MOVF   x80,W
2692:  XORLW  80
2694:  SUBLW  7F
2696:  BC    26BA
....................          touch_write_byte(ds_b[i]); 
2698:  CLRF   03
269A:  MOVF   x80,W
269C:  ADDLW  78
269E:  MOVWF  FE9
26A0:  MOVLW  04
26A2:  ADDWFC 03,W
26A4:  MOVWF  FEA
26A6:  MOVFF  FEF,4B3
26AA:  MOVFF  4B3,4B4
26AE:  MOVLB  0
26B0:  CALL   09DA
26B4:  MOVLB  4
26B6:  DECF   x80,F
26B8:  BRA    2690
....................    } 
....................     
....................    touch_write_byte(read_scratchpad); //goi ma lenh read_scrachpad cho vi mach dang con ket noi, vi mach con ket noi nhan ma lenh va goi ve vdk  
26BA:  MOVLW  BE
26BC:  MOVWF  xB4
26BE:  MOVLB  0
26C0:  CALL   09DA
....................    bl = touch_read_byte(); 
26C4:  RCALL  2620
26C6:  MOVFF  01,4AF
....................    bh = touch_read_byte(); 
26CA:  RCALL  2620
26CC:  MOVFF  01,4B0
....................    w = make16(bh,bl); 
26D0:  MOVFF  4B0,4B2
26D4:  MOVFF  4AF,4B1
....................    touch_present(); 
26D8:  CALL   090C
....................    touch_write_byte(skip_rom); 
26DC:  MOVLW  CC
26DE:  MOVLB  4
26E0:  MOVWF  xB4
26E2:  MOVLB  0
26E4:  CALL   09DA
....................    touch_write_byte(convert_t); 
26E8:  MOVLW  44
26EA:  MOVLB  4
26EC:  MOVWF  xB4
26EE:  MOVLB  0
26F0:  CALL   09DA
....................    return w; 
26F4:  MOVLB  4
26F6:  MOVFF  4B1,01
26FA:  MOVFF  4B2,02
26FE:  MOVLB  0
2700:  RETURN 0
.................... } 
....................  
.................... void ds18b20_a_doc_nhiet_do1() 
.................... { 
....................     if(touch_present()) 
*
29AA:  CALL   090C
29AE:  MOVF   01,F
29B0:  BZ    29EA
....................     { 
....................        ds18a_w = ds18b20_read_temp_mr(0); 
29B2:  MOVLB  4
29B4:  CLRF   xAE
29B6:  MOVLB  0
29B8:  RCALL  264A
29BA:  MOVFF  02,485
29BE:  MOVFF  01,484
....................        ds18a_ng = ds18a_w>>4; //dich phai gia tri 4bit de tach phan nguyen 
29C2:  MOVLB  4
29C4:  RRCF   x85,W
29C6:  MOVWF  03
29C8:  RRCF   x84,W
29CA:  MOVWF  02
29CC:  RRCF   03,F
29CE:  RRCF   02,F
29D0:  RRCF   03,F
29D2:  RRCF   02,F
29D4:  RRCF   03,F
29D6:  RRCF   02,F
29D8:  MOVFF  02,482
....................        ds18a_tp = ds18a_w & 0x000f; //tach phan thap phan,giu nguyen 4 bit thap, xoa di cac bit cao 
29DC:  MOVF   x84,W
29DE:  ANDLW  0F
29E0:  MOVWF  x86
29E2:  CLRF   x87
....................        ds18b20_a_ht_lcd(); 
29E4:  MOVLB  0
29E6:  BRA    290A
....................     } 
29E8:  BRA    29EC
....................     else ds18b20_no_ds18b(); 
29EA:  RCALL  2990
29EC:  GOTO   3600 (RETURN)
.................... } 
....................  
.................... void ds18b20_b_doc_nhiet_do1() 
.................... { 
....................     if(touch_present()) 
*
2A78:  CALL   090C
2A7C:  MOVF   01,F
2A7E:  BZ    2ABA
....................     { 
....................        ds18b_w = ds18b20_read_temp_mr(1); 
2A80:  MOVLW  01
2A82:  MOVLB  4
2A84:  MOVWF  xAE
2A86:  MOVLB  0
2A88:  RCALL  264A
2A8A:  MOVFF  02,48D
2A8E:  MOVFF  01,48C
....................        ds18b_ng = ds18b_w>>4; //dich phai gia tri 4bit de tach phan nguyen 
2A92:  MOVLB  4
2A94:  RRCF   x8D,W
2A96:  MOVWF  03
2A98:  RRCF   x8C,W
2A9A:  MOVWF  02
2A9C:  RRCF   03,F
2A9E:  RRCF   02,F
2AA0:  RRCF   03,F
2AA2:  RRCF   02,F
2AA4:  RRCF   03,F
2AA6:  RRCF   02,F
2AA8:  MOVFF  02,48A
....................        ds18b_tp = ds18b_w & 0x000f; //tach phan thap phan,giu nguyen 4 bit thap, xoa di cac bit cao 
2AAC:  MOVF   x8C,W
2AAE:  ANDLW  0F
2AB0:  MOVWF  x8E
2AB2:  CLRF   x8F
....................        ds18b20_b_ht_lcd(); 
2AB4:  MOVLB  0
2AB6:  BRA    29F0
....................     } 
2AB8:  BRA    2ABC
....................     else ds18b20_no_ds18b(); 
2ABA:  RCALL  2990
2ABC:  GOTO   3604 (RETURN)
.................... } 
....................  
.................... void h701_adc_lm35a_doc_xuly(usi8 sl)  
.................... { 
....................    FLOAT lm35a; 
....................    lm35a = h701_adc_read (sl, chan_lm35a) ; 
*
2C8A:  MOVFF  4AE,4B3
2C8E:  MOVLB  4
2C90:  CLRF   xB4
2C92:  MOVLB  0
2C94:  RCALL  2AC0
2C96:  MOVFF  03,4B2
2C9A:  MOVFF  02,4B1
2C9E:  MOVFF  01,4B0
2CA2:  MOVFF  00,4AF
....................    lm35a = lm35a / 2.046; 
2CA6:  MOVFF  4B2,4BD
2CAA:  MOVFF  4B1,4BC
2CAE:  MOVFF  4B0,4BB
2CB2:  MOVFF  4AF,4BA
2CB6:  MOVLW  AA
2CB8:  MOVLB  4
2CBA:  MOVWF  xC1
2CBC:  MOVLW  F1
2CBE:  MOVWF  xC0
2CC0:  MOVLW  02
2CC2:  MOVWF  xBF
2CC4:  MOVLW  80
2CC6:  MOVWF  xBE
2CC8:  MOVLB  0
2CCA:  CALL   149E
2CCE:  MOVFF  03,4B2
2CD2:  MOVFF  02,4B1
2CD6:  MOVFF  01,4B0
2CDA:  MOVFF  00,4AF
....................    FLOAT_to_ng_2so_tp(lm35a); 
2CDE:  MOVFF  4B2,4B6
2CE2:  MOVFF  4B1,4B5
2CE6:  MOVFF  4B0,4B4
2CEA:  MOVFF  4AF,4B3
2CEE:  RCALL  2B96
....................    lm35a_ng = so_ng; 
2CF0:  MOVFF  2C,493
2CF4:  MOVFF  2B,492
....................    lm35a_tp = so_tp; 
2CF8:  MOVFF  2E,495
2CFC:  MOVFF  2D,494
2D00:  GOTO   3614 (RETURN)
.................... } 
....................  
.................... void h701_adc_lm35a_ht_lcd(usi8 x,y,INT1 ht_lcd,ht_tp)  
.................... { 
....................    IF (lm35a_ngt != lm35a_ng) 
2D04:  MOVLB  4
2D06:  MOVF   x92,W
2D08:  SUBWF  x96,W
2D0A:  BNZ   2D12
2D0C:  MOVF   x93,W
2D0E:  SUBWF  x97,W
2D10:  BZ    2D36
....................    { 
....................       lm35a_ngt = lm35a_ng; 
2D12:  MOVFF  493,497
2D16:  MOVFF  492,496
....................       IF (ht_lcd) lcd_gm_ht_2so_to_xvn (lm35a_ng, x, y, kx_vn); 
2D1A:  MOVF   xB0,F
2D1C:  BZ    2D36
2D1E:  MOVFF  493,4B3
2D22:  MOVFF  492,4B2
2D26:  MOVFF  4AE,4B4
2D2A:  MOVFF  4AF,4B5
2D2E:  CLRF   xB6
2D30:  MOVLB  0
2D32:  RCALL  2808
2D34:  MOVLB  4
....................    } 
....................  
....................    IF (ht_tp) lcd_hien_thi_1so_tp_nho (lm35a_tp, x+1, y + 6); 
2D36:  MOVF   xB1,F
2D38:  BZ    2D56
2D3A:  MOVLW  01
2D3C:  ADDWF  xAE,W
2D3E:  MOVWF  xB2
2D40:  MOVLW  06
2D42:  ADDWF  xAF,W
2D44:  MOVWF  xB3
2D46:  MOVFF  494,4B4
2D4A:  MOVFF  4B2,4B5
2D4E:  MOVWF  xB6
2D50:  MOVLB  0
2D52:  RCALL  28D2
2D54:  MOVLB  4
2D56:  MOVLB  0
2D58:  GOTO   3626 (RETURN)
.................... } 
....................  
.................... void h702_adc_lm35b_doc_xuly(usi8 sl)  
.................... { 
....................    FLOAT lm35b; 
....................    lm35b = h701_adc_read (sl, chan_lm35b) ; 
2D5C:  MOVFF  4AE,4B3
2D60:  MOVLW  01
2D62:  MOVLB  4
2D64:  MOVWF  xB4
2D66:  MOVLB  0
2D68:  RCALL  2AC0
2D6A:  MOVFF  03,4B2
2D6E:  MOVFF  02,4B1
2D72:  MOVFF  01,4B0
2D76:  MOVFF  00,4AF
....................    lm35b = lm35b / 2.046; 
2D7A:  MOVFF  4B2,4BD
2D7E:  MOVFF  4B1,4BC
2D82:  MOVFF  4B0,4BB
2D86:  MOVFF  4AF,4BA
2D8A:  MOVLW  AA
2D8C:  MOVLB  4
2D8E:  MOVWF  xC1
2D90:  MOVLW  F1
2D92:  MOVWF  xC0
2D94:  MOVLW  02
2D96:  MOVWF  xBF
2D98:  MOVLW  80
2D9A:  MOVWF  xBE
2D9C:  MOVLB  0
2D9E:  CALL   149E
2DA2:  MOVFF  03,4B2
2DA6:  MOVFF  02,4B1
2DAA:  MOVFF  01,4B0
2DAE:  MOVFF  00,4AF
....................    FLOAT_to_ng_2so_tp(lm35b); 
2DB2:  MOVFF  4B2,4B6
2DB6:  MOVFF  4B1,4B5
2DBA:  MOVFF  4B0,4B4
2DBE:  MOVFF  4AF,4B3
2DC2:  RCALL  2B96
....................    lm35b_ng = so_ng; 
2DC4:  MOVFF  2C,499
2DC8:  MOVFF  2B,498
....................    lm35b_tp = so_tp; 
2DCC:  MOVFF  2E,49B
2DD0:  MOVFF  2D,49A
2DD4:  GOTO   362E (RETURN)
.................... } 
....................  
.................... void h702_adc_lm35b_ht_lcd(usi8 x,y,INT1 ht_lcd,ht_tp)  
.................... { 
....................    IF (lm35b_ngt != lm35b_ng) 
2DD8:  MOVLB  4
2DDA:  MOVF   x98,W
2DDC:  SUBWF  x9C,W
2DDE:  BNZ   2DE6
2DE0:  MOVF   x99,W
2DE2:  SUBWF  x9D,W
2DE4:  BZ    2E0A
....................    { 
....................       lm35b_ngt = lm35b_ng; 
2DE6:  MOVFF  499,49D
2DEA:  MOVFF  498,49C
....................       IF (ht_lcd) lcd_gm_ht_2so_to_xvn (lm35b_ng, x, y, kx_vn); 
2DEE:  MOVF   xB0,F
2DF0:  BZ    2E0A
2DF2:  MOVFF  499,4B3
2DF6:  MOVFF  498,4B2
2DFA:  MOVFF  4AE,4B4
2DFE:  MOVFF  4AF,4B5
2E02:  CLRF   xB6
2E04:  MOVLB  0
2E06:  RCALL  2808
2E08:  MOVLB  4
....................    } 
....................  
....................    IF (ht_tp) lcd_hien_thi_1so_tp_nho (lm35b_tp, x+1, y + 6); 
2E0A:  MOVF   xB1,F
2E0C:  BZ    2E2A
2E0E:  MOVLW  01
2E10:  ADDWF  xAE,W
2E12:  MOVWF  xB2
2E14:  MOVLW  06
2E16:  ADDWF  xAF,W
2E18:  MOVWF  xB3
2E1A:  MOVFF  49A,4B4
2E1E:  MOVFF  4B2,4B5
2E22:  MOVWF  xB6
2E24:  MOVLB  0
2E26:  RCALL  28D2
2E28:  MOVLB  4
2E2A:  MOVLB  0
2E2C:  GOTO   3644 (RETURN)
.................... } 
....................  
.................... void dht11_read_temp_humi() 
.................... { 
....................    dht11_start(); 
*
2EF6:  BRA    2E30
....................    presence = dht11_check_response(); //doc ket qua tra ve 1 bit 
2EF8:  BRA    2E58
2EFA:  BCF    33.4
2EFC:  BTFSC  01.0
2EFE:  BSF    33.4
....................    if(!presence==true) //=0: co DHT11 
2F00:  BTFSC  33.4
2F02:  BRA    2F32
....................    { 
....................       hum_bh = dht11_read(); //doc byte dau tien 
2F04:  RCALL  2E9A
2F06:  MOVFF  01,49F
....................       hum_bl = dht11_read(); //doc byte tiep theo 
2F0A:  RCALL  2E9A
2F0C:  MOVFF  01,49E
....................       tem_bh = dht11_read(); 
2F10:  RCALL  2E9A
2F12:  MOVFF  01,4A1
....................       tem_bl = dht11_read(); 
2F16:  RCALL  2E9A
2F18:  MOVFF  01,4A0
....................       sum    = dht11_read(); 
2F1C:  RCALL  2E9A
2F1E:  MOVFF  01,4A2
....................       sum_ss = hum_bh+hum_bl+tem_bh+tem_bl; //so sanh 
2F22:  MOVLB  4
2F24:  MOVF   x9E,W
2F26:  ADDWF  x9F,W
2F28:  ADDWF  xA1,W
2F2A:  ADDWF  xA0,W
2F2C:  MOVWF  xA3
....................    } 
2F2E:  BRA    2F36
2F30:  MOVLB  0
....................    else  hien_thi_no_dht11(); 
2F32:  BRA    2EDA
2F34:  MOVLB  4
2F36:  MOVLB  0
2F38:  GOTO   364E (RETURN)
.................... } 
....................  
.................... void dht11_hthi_lcd_nd_da(usi8 x,y) //hien thi nhiet do do am 
.................... { 
....................    if(sum==sum_ss) //sum doc ve tu DHT11, sum_ss duoc tinh toan boi vdk , neu chung bang nhau thi qua trinh nhan du lieu dung 
2F3C:  MOVLB  4
2F3E:  MOVF   xA3,W
2F40:  SUBWF  xA2,W
2F42:  BNZ   2F88
....................    { 
....................       if(hum_bht!=hum_bh) //do am byte cao tam 
2F44:  MOVF   x9F,W
2F46:  SUBWF  xA4,W
2F48:  BZ    2F64
....................       { 
....................          hum_bht=hum_bh; 
2F4A:  MOVFF  49F,4A4
....................          lcd_gm_ht_2so_to_xvn(hum_bh,x,y,kx_vn); 
2F4E:  CLRF   xB3
2F50:  MOVFF  49F,4B2
2F54:  MOVFF  4AE,4B4
2F58:  MOVFF  4AF,4B5
2F5C:  CLRF   xB6
2F5E:  MOVLB  0
2F60:  RCALL  2808
2F62:  MOVLB  4
....................       } 
....................       if(tem_bht!=tem_bh) //nhiet do byte cao tam 
2F64:  MOVF   xA1,W
2F66:  SUBWF  xA5,W
2F68:  BZ    2F88
....................       { 
....................          tem_bht=tem_bh; //neu khac nhau thi cap nhat 
2F6A:  MOVFF  4A1,4A5
....................          lcd_gm_ht_2so_to_xvn(tem_bh,x,y+14,kx_vn); 
2F6E:  MOVLW  0E
2F70:  ADDWF  xAF,W
2F72:  MOVWF  xB0
2F74:  CLRF   xB3
2F76:  MOVFF  4A1,4B2
2F7A:  MOVFF  4AE,4B4
2F7E:  MOVWF  xB5
2F80:  CLRF   xB6
2F82:  MOVLB  0
2F84:  RCALL  2808
2F86:  MOVLB  4
....................       } 
....................       //else hien_thi_sai_dht11(); 
....................    } 
2F88:  MOVLB  0
2F8A:  GOTO   365A (RETURN)
.................... } 
....................  
.................... void xoa_man_hinh(si8 x,y) 
.................... { 
....................    //si8 x,y; 
....................    lcd_xoa_so_to(x, y); 
....................    lcd_xoa_so_to(x, y+3); 
....................    lcd_xoa_so_to(x, y+12); 
....................    lcd_xoa_so_to(x, y+15); 
....................    lcd_goto_xy(x,y+6); 
....................    lcd_data("  "); 
....................    lcd_goto_xy(x,y+18); 
....................    lcd_data("  "); 
.................... } 
....................  
.................... void phim_up() 
.................... { 
....................     if((phim_up_c2(10))&&(pwm_tdo<50)) 
....................     { 
....................         pwm_tdo++; 
....................         pwm_duty = pwm_tdo*hstd; 
....................         set_pwm1_duty(pwm_duty); 
....................         tt_onoff = 1;    // cho chay  
....................         delay_ms(200); 
....................     } 
.................... } 
....................  
.................... void phim_dw() 
.................... { 
....................      if((phim_dw_c2(10))&&(pwm_tdo>0)) 
....................      { 
....................         pwm_tdo--; 
....................         pwm_duty = pwm_tdo*hstd; 
....................         set_pwm1_duty(pwm_duty); 
....................         delay_ms(200); 
....................      } 
.................... } 
....................  
.................... void phim_stop() 
.................... { 
....................      if((!input(stop))&&(tt_onoff)) 
....................      { 
....................         tt_onoff = 0; 
....................         pwm_tdo = 0; 
....................         pwm_duty = pwm_tdo*hstd; 
....................         set_pwm1_duty(pwm_duty); 
....................      } 
.................... } 
....................  
.................... //!void phim_up_c3() 
.................... //!{ 
.................... //! if((mp==3)&&(pwm_tdo<50)) 
.................... //! { 
.................... //!  pwm_tdo++; 
.................... //!  pwm_duty = pwm_tdo*hstd; 
.................... //!  set_pwm1_duty(pwm_duty); 
.................... //!  tt_onoff = 1;    // cho chay  
.................... //!   
.................... //! } 
.................... //!} 
.................... //! 
.................... //!void phim_dw_c3() 
.................... //!{ 
.................... //!  if((mp==4)&&(pwm_tdo>0)) 
.................... //!  { 
.................... //!  pwm_tdo--; 
.................... //!  pwm_duty = pwm_tdo*hstd; 
.................... //!  set_pwm1_duty(pwm_duty); 
.................... //!   
.................... //!  } 
.................... //!} 
.................... //! 
.................... //!void phim_stop_c3() 
.................... //!{ 
.................... //!  if((mp==5)&&(tt_onoff)) 
.................... //!  { 
.................... //!  tt_onoff = 0; 
.................... //!  pwm_tdo = 0; 
.................... //!  pwm_duty = pwm_tdo*hstd; 
.................... //!  set_pwm1_duty(pwm_duty); 
.................... //!  } 
.................... //!} 
....................  
....................  
....................  
.................... usi8 giay_tam, giay_bin,phut_bin,gio_bin; 
.................... unsigned int8 mp;  
.................... int1 mode_1=0, mode_2=0, mode_3=0; 
....................  
.................... void phim_up_c3() 
.................... { 
....................     if((mp==0x0c)&&(pwm_tdo<50)) 
2F8E:  MOVLB  4
2F90:  MOVF   xAC,W
2F92:  SUBLW  0C
2F94:  BNZ   2FEC
2F96:  MOVF   xA7,F
2F98:  BNZ   2FEC
2F9A:  MOVF   xA6,W
2F9C:  SUBLW  31
2F9E:  BNC   2FEC
....................     { 
....................         pwm_tdo++; 
2FA0:  INCF   xA6,F
2FA2:  BTFSC  FD8.2
2FA4:  INCF   xA7,F
....................         pwm_duty = pwm_tdo*hstd; 
2FA6:  MOVFF  4A7,4E3
2FAA:  MOVFF  4A6,4E2
2FAE:  CLRF   xE5
2FB0:  MOVLW  14
2FB2:  MOVWF  xE4
2FB4:  MOVLB  0
2FB6:  CALL   0504
2FBA:  MOVFF  02,439
2FBE:  MOVFF  01,438
....................         set_pwm1_duty(pwm_duty); 
2FC2:  MOVFF  439,02
2FC6:  MOVFF  438,01
2FCA:  RRCF   02,F
2FCC:  RRCF   01,F
2FCE:  RRCF   02,F
2FD0:  RRCF   01,F
2FD2:  RRCF   02,F
2FD4:  MOVFF  01,FBE
2FD8:  RRCF   02,F
2FDA:  RRCF   02,W
2FDC:  ANDLW  30
2FDE:  MOVWF  00
2FE0:  MOVF   FBD,W
2FE2:  ANDLW  CF
2FE4:  IORWF  00,W
2FE6:  MOVWF  FBD
....................         tt_onoff = 1;    // cho chay  
2FE8:  BSF    33.5
2FEA:  MOVLB  4
....................     } 
2FEC:  MOVLB  0
2FEE:  GOTO   3660 (RETURN)
.................... } 
....................  
.................... void phim_dw_c3() 
.................... { 
....................   if((mp==0x0d)&&(pwm_tdo>0)) 
2FF2:  MOVLB  4
2FF4:  MOVF   xAC,W
2FF6:  SUBLW  0D
2FF8:  BNZ   304E
2FFA:  MOVF   xA6,F
2FFC:  BNZ   3002
2FFE:  MOVF   xA7,F
3000:  BZ    304E
....................   { 
....................      pwm_tdo--; 
3002:  MOVF   xA6,W
3004:  BTFSC  FD8.2
3006:  DECF   xA7,F
3008:  DECF   xA6,F
....................      pwm_duty = pwm_tdo*hstd; 
300A:  MOVFF  4A7,4E3
300E:  MOVFF  4A6,4E2
3012:  CLRF   xE5
3014:  MOVLW  14
3016:  MOVWF  xE4
3018:  MOVLB  0
301A:  CALL   0504
301E:  MOVFF  02,439
3022:  MOVFF  01,438
....................      set_pwm1_duty(pwm_duty); 
3026:  MOVFF  439,02
302A:  MOVFF  438,01
302E:  RRCF   02,F
3030:  RRCF   01,F
3032:  RRCF   02,F
3034:  RRCF   01,F
3036:  RRCF   02,F
3038:  MOVFF  01,FBE
303C:  RRCF   02,F
303E:  RRCF   02,W
3040:  ANDLW  30
3042:  MOVWF  00
3044:  MOVF   FBD,W
3046:  ANDLW  CF
3048:  IORWF  00,W
304A:  MOVWF  FBD
304C:  MOVLB  4
....................   } 
304E:  MOVLB  0
3050:  GOTO   3662 (RETURN)
.................... } 
....................  
.................... void phim_stop_c3() 
.................... { 
....................   if((mp==0x0e)&&(tt_onoff)) 
3054:  MOVLB  4
3056:  MOVF   xAC,W
3058:  SUBLW  0E
305A:  BNZ   30AA
305C:  BTFSS  33.5
305E:  BRA    30AA
....................   { 
....................      tt_onoff = 0; 
3060:  BCF    33.5
....................      pwm_tdo = 0; 
3062:  CLRF   xA7
3064:  CLRF   xA6
....................      pwm_duty = pwm_tdo*hstd; 
3066:  MOVFF  4A7,4E3
306A:  MOVFF  4A6,4E2
306E:  CLRF   xE5
3070:  MOVLW  14
3072:  MOVWF  xE4
3074:  MOVLB  0
3076:  CALL   0504
307A:  MOVFF  02,439
307E:  MOVFF  01,438
....................      set_pwm1_duty(pwm_duty); 
3082:  MOVFF  439,02
3086:  MOVFF  438,01
308A:  RRCF   02,F
308C:  RRCF   01,F
308E:  RRCF   02,F
3090:  RRCF   01,F
3092:  RRCF   02,F
3094:  MOVFF  01,FBE
3098:  RRCF   02,F
309A:  RRCF   02,W
309C:  ANDLW  30
309E:  MOVWF  00
30A0:  MOVF   FBD,W
30A2:  ANDLW  CF
30A4:  IORWF  00,W
30A6:  MOVWF  FBD
30A8:  MOVLB  4
....................   } 
30AA:  MOVLB  0
30AC:  GOTO   3664 (RETURN)
.................... } 
....................  
.................... void main() 
*
3386:  CLRF   FF8
3388:  BCF    FD0.7
338A:  BSF    FB8.3
338C:  MOVLW  08
338E:  MOVWF  FAF
3390:  MOVLW  02
3392:  MOVWF  FB0
3394:  MOVLW  A6
3396:  MOVWF  FAC
3398:  MOVLW  90
339A:  MOVWF  FAB
339C:  CLRF   07
339E:  CLRF   06
33A0:  SETF   2A
33A2:  CLRF   30
33A4:  MOVLW  22
33A6:  MOVWF  2F
33A8:  CLRF   32
33AA:  MOVLW  20
33AC:  MOVWF  31
33AE:  BCF    33.0
33B0:  BCF    33.1
33B2:  BCF    33.2
33B4:  BCF    33.3
33B6:  MOVLW  32
33B8:  MOVLB  4
33BA:  MOVWF  x81
33BC:  CLRF   x83
33BE:  CLRF   x89
33C0:  MOVWF  x88
33C2:  CLRF   x8B
33C4:  CLRF   x91
33C6:  MOVWF  x90
33C8:  CLRF   x97
33CA:  CLRF   x96
33CC:  CLRF   x9D
33CE:  CLRF   x9C
33D0:  CLRF   xA4
33D2:  CLRF   xA5
33D4:  CLRF   xA7
33D6:  CLRF   xA6
33D8:  BCF    33.5
33DA:  BCF    33.6
33DC:  BCF    33.7
33DE:  BCF    xAD.0
33E0:  MOVF   FC1,W
33E2:  ANDLW  C0
33E4:  IORLW  0F
33E6:  MOVWF  FC1
33E8:  MOVLW  07
33EA:  MOVWF  FB4
33EC:  BRA    341E
33EE:  DATA 0C,40
33F0:  DATA 08,FF
33F2:  DATA 16,80
33F4:  DATA 30,37
33F6:  DATA 08,07
33F8:  DATA 04,06
33FA:  DATA 22,90
33FC:  DATA 95,30
33FE:  DATA 30,10
3400:  DATA 08,20
3402:  DATA 02,20
3404:  DATA 90,96
3406:  DATA 00,00
3408:  DATA 00,00
340A:  DATA 10,04
340C:  DATA 70,F5
340E:  DATA 00,00
3410:  DATA 05,1E
3412:  DATA A9,27
3414:  DATA 28,CA
3416:  DATA 00,00
3418:  DATA 05,23
341A:  DATA 29,8B
341C:  DATA 28,00
341E:  MOVLW  00
3420:  MOVWF  FF8
3422:  MOVLW  33
3424:  MOVWF  FF7
3426:  MOVLW  EE
3428:  MOVWF  FF6
342A:  TBLRD*+
342C:  MOVF   FF5,W
342E:  MOVWF  00
3430:  XORLW  00
3432:  BZ    345A
3434:  TBLRD*+
3436:  MOVF   FF5,W
3438:  MOVWF  01
343A:  BTFSC  FE8.7
343C:  BRA    3448
343E:  ANDLW  0F
3440:  MOVWF  FEA
3442:  TBLRD*+
3444:  MOVFF  FF5,FE9
3448:  BTFSC  01.6
344A:  TBLRD*+
344C:  BTFSS  01.6
344E:  TBLRD*+
3450:  MOVFF  FF5,FEE
3454:  DCFSNZ 00,F
3456:  BRA    342A
3458:  BRA    344C
345A:  CLRF   FF8
.................... { 
....................    set_up_port(); 
345C:  MOVLB  0
345E:  GOTO   03E4
....................    setup_glcd(glcd_text_mode); 
3462:  MOVLW  30
3464:  MOVLB  4
3466:  MOVWF  xC2
3468:  MOVLB  0
346A:  CALL   04AC
....................    delay_ms(10); 
346E:  MOVLW  0A
3470:  MOVLB  4
3472:  MOVWF  xC3
3474:  MOVLB  0
3476:  CALL   0484
....................    setup_glcd(glcd_graphic_mode); 
347A:  MOVLW  36
347C:  MOVLB  4
347E:  MOVWF  xC2
3480:  MOVLB  0
3482:  CALL   04AC
....................    glcd_mau_nen(0); 
3486:  MOVLB  4
3488:  CLRF   xC2
348A:  MOVLB  0
348C:  CALL   0526
....................    ds1307_kiem_tra_ma(); 
3490:  GOTO   07E6
....................     
....................    lcd_setup(); 
3494:  GOTO   0848
....................    lcd_khoi_tao_cgram_so_to(); 
3498:  GOTO   08AE
....................    ds18b20_khoi_tao(); 
349C:  GOTO   0A10
....................     
....................    lcd_goto_xy(1,0); 
34A0:  MOVLW  01
34A2:  MOVLB  4
34A4:  MOVWF  xBF
34A6:  CLRF   xC0
34A8:  MOVLB  0
34AA:  CALL   0A5A
....................    lcd_data("NGUYEN DUC MANH"); 
34AE:  MOVLW  1A
34B0:  MOVWF  FF6
34B2:  MOVLW  03
34B4:  MOVWF  FF7
34B6:  CALL   0A7E
....................    lcd_goto_xy(2,0); 
34BA:  MOVLW  02
34BC:  MOVLB  4
34BE:  MOVWF  xBF
34C0:  CLRF   xC0
34C2:  MOVLB  0
34C4:  CALL   0A5A
....................    lcd_data("19151253"); 
34C8:  MOVLW  2A
34CA:  MOVWF  FF6
34CC:  MOVLW  03
34CE:  MOVWF  FF7
34D0:  CALL   0A7E
....................     
....................    dc_motor_enable(); 
34D4:  GOTO   0ABE
....................    setup_ccp1(ccp_pwm); 
34D8:  BCF    F94.2
34DA:  BCF    F8B.2
34DC:  MOVLW  0C
34DE:  MOVWF  FBD
34E0:  CLRF   FB7
34E2:  CLRF   FB6
....................    setup_timer_2(t2_div_by_16,249,1); 
34E4:  MOVLW  00
34E6:  IORLW  06
34E8:  MOVWF  FCA
34EA:  MOVLW  F9
34EC:  MOVWF  FCB
....................    pwm_duty=0;  pwm_tdo=0; 
34EE:  MOVLB  4
34F0:  CLRF   x39
34F2:  CLRF   x38
34F4:  CLRF   xA7
34F6:  CLRF   xA6
....................    set_pwm1_duty(pwm_duty); 
34F8:  MOVFF  439,02
34FC:  MOVFF  438,01
3500:  RRCF   02,F
3502:  RRCF   01,F
3504:  RRCF   02,F
3506:  RRCF   01,F
3508:  RRCF   02,F
350A:  MOVFF  01,FBE
350E:  RRCF   02,F
3510:  RRCF   02,W
3512:  ANDLW  30
3514:  MOVWF  00
3516:  MOVF   FBD,W
3518:  ANDLW  CF
351A:  IORWF  00,W
351C:  MOVWF  FBD
....................    dc_motor_stop(); 
351E:  MOVLB  0
3520:  GOTO   0AC6
....................     
....................    glcd_ve_cac_vong_tron_so(); 
3524:  GOTO   112C
....................    giay_bin=(giay_ds/16)*10+(giay_ds%16); 
3528:  SWAPF  1D,W
352A:  MOVWF  00
352C:  MOVLW  0F
352E:  ANDWF  00,F
3530:  MOVF   00,W
3532:  MULLW  0A
3534:  MOVFF  FF3,4AE
3538:  MOVLB  4
353A:  MOVF   1D,W
353C:  ANDLW  0F
353E:  ADDWF  xAE,W
3540:  MOVWF  xA9
....................    glcd_ve_kim_giay(bks,giay_bin,0); 
3542:  MOVLW  14
3544:  MOVWF  xAE
3546:  CLRF   xB0
3548:  MOVFF  4A9,4AF
354C:  CLRF   xB1
354E:  MOVLB  0
3550:  CALL   1F7A
....................    giay_tam=0x60; 
3554:  MOVLW  60
3556:  MOVLB  4
3558:  MOVWF  xA8
....................     
....................    phut_bin= (phut_ds/16)*10+(phut_ds%16); 
355A:  SWAPF  1E,W
355C:  MOVWF  00
355E:  MOVLW  0F
3560:  ANDWF  00,F
3562:  MOVF   00,W
3564:  MULLW  0A
3566:  MOVFF  FF3,4AE
356A:  MOVF   1E,W
356C:  ANDLW  0F
356E:  ADDWF  xAE,W
3570:  MOVWF  xAA
....................    glcd_ve_kim_phut(bkm,phut_bin,1); 
3572:  MOVLW  11
3574:  MOVWF  xAE
3576:  CLRF   xB0
3578:  MOVFF  4AA,4AF
357C:  MOVLW  01
357E:  MOVWF  xB1
3580:  MOVLB  0
3582:  CALL   2284
....................     
....................    gio_bin= (gio_ds/16)*10+(gio_ds%16); 
3586:  SWAPF  1F,W
3588:  MOVWF  00
358A:  MOVLW  0F
358C:  ANDWF  00,F
358E:  MOVF   00,W
3590:  MULLW  0A
3592:  MOVFF  FF3,4AE
3596:  MOVLB  4
3598:  MOVF   1F,W
359A:  ANDLW  0F
359C:  ADDWF  xAE,W
359E:  MOVWF  xAB
....................    glcd_ve_kim_gio(bkh,gio_bin,1); 
35A0:  MOVLW  0D
35A2:  MOVWF  xAE
35A4:  CLRF   xB0
35A6:  MOVFF  4AB,4AF
35AA:  MOVLW  01
35AC:  MOVWF  xB1
35AE:  MOVLB  0
35B0:  CALL   2518
....................     
....................    while(true) 
....................    { 
....................        //mp = key_4x4_dw(); //nhan nha chong doi 
....................        mp=key_nhan(); 
35B4:  GOTO   254A
35B8:  MOVFF  01,4AC
....................        if(mp==0)   
35BC:  MOVLB  4
35BE:  MOVF   xAC,F
35C0:  BNZ   35D0
....................        { 
....................          mode_1=1; 
35C2:  BSF    33.6
....................          mode_2=0; 
35C4:  BCF    33.7
....................          mode_3=0; 
35C6:  BCF    xAD.0
....................          lcd_clear(); 
35C8:  MOVLB  0
35CA:  CALL   25C6
35CE:  MOVLB  4
....................        } 
....................        if(mp==1) 
35D0:  DECFSZ xAC,W
35D2:  BRA    35E2
....................        {  
....................          mode_2=1; 
35D4:  BSF    33.7
....................          mode_1=0; 
35D6:  BCF    33.6
....................          mode_3=0; 
35D8:  BCF    xAD.0
....................          lcd_clear(); 
35DA:  MOVLB  0
35DC:  CALL   25C6
35E0:  MOVLB  4
....................        } 
....................        if(mp==2) 
35E2:  MOVF   xAC,W
35E4:  SUBLW  02
35E6:  BNZ   35F6
....................        { 
....................          mode_3=1; 
35E8:  BSF    xAD.0
....................          mode_1=0; 
35EA:  BCF    33.6
....................          mode_2=0; 
35EC:  BCF    33.7
....................          lcd_clear(); 
35EE:  MOVLB  0
35F0:  CALL   25C6
35F4:  MOVLB  4
....................        } 
....................        if(mode_1==1) 
35F6:  BTFSS  33.6
35F8:  BRA    3606
....................        { 
....................            //lcd_clear(); 
....................            ds18b20_a_doc_nhiet_do1(); 
35FA:  MOVLB  0
35FC:  GOTO   29AA
....................            ds18b20_b_doc_nhiet_do1(); 
3600:  GOTO   2A78
3604:  MOVLB  4
....................        } 
....................        if(mode_2==1) 
3606:  BTFSS  33.7
3608:  BRA    3646
....................        { 
....................          //lcd_clear(); 
....................          h701_adc_lm35a_doc_xuly(solan); 
360A:  MOVFF  481,4AE
360E:  MOVLB  0
3610:  GOTO   2C8A
....................          h701_adc_lm35a_ht_lcd(1,0,1,1); 
3614:  MOVLW  01
3616:  MOVLB  4
3618:  MOVWF  xAE
361A:  CLRF   xAF
361C:  MOVWF  xB0
361E:  MOVWF  xB1
3620:  MOVLB  0
3622:  GOTO   2D04
....................              
....................          h702_adc_lm35b_doc_xuly(solan); 
3626:  MOVFF  481,4AE
362A:  GOTO   2D5C
....................          h702_adc_lm35b_ht_lcd(1,12,1,1); 
362E:  MOVLW  01
3630:  MOVLB  4
3632:  MOVWF  xAE
3634:  MOVLW  0C
3636:  MOVWF  xAF
3638:  MOVLW  01
363A:  MOVWF  xB0
363C:  MOVWF  xB1
363E:  MOVLB  0
3640:  GOTO   2DD8
3644:  MOVLB  4
....................          //delay_ms(500); 
....................        } 
....................        if(mode_3==1) 
3646:  BTFSS  xAD.0
3648:  BRA    365C
....................        { 
....................          //lcd_clear(); 
....................          dht11_read_temp_humi(); 
364A:  MOVLB  0
364C:  BRA    2EF6
....................          dht11_hthi_lcd_nd_da(2,0); 
364E:  MOVLW  02
3650:  MOVLB  4
3652:  MOVWF  xAE
3654:  CLRF   xAF
3656:  MOVLB  0
3658:  BRA    2F3C
365A:  MOVLB  4
....................        } 
....................        phim_up_c3(); 
365C:  MOVLB  0
365E:  BRA    2F8E
....................        phim_dw_c3(); 
3660:  BRA    2FF2
....................        phim_stop_c3(); 
3662:  BRA    3054
....................         
....................        //reset cac bien trang thai 
....................       ds18a_ngt=0; 
3664:  MOVLB  4
3666:  CLRF   x83
....................       ds18b_ngt=0; 
3668:  CLRF   x8B
....................       lm35a_ngt=0; 
366A:  CLRF   x97
366C:  CLRF   x96
....................       lm35b_ngt=0; 
366E:  CLRF   x9D
3670:  CLRF   x9C
....................       hum_bht=0; 
3672:  CLRF   xA4
....................       tem_bht=0; 
3674:  CLRF   xA5
....................       
....................       ds1307_doc_time(8); 
3676:  MOVLW  08
3678:  MOVWF  xAE
367A:  MOVLB  0
367C:  CALL   0680
....................       if(giay_tam!=giay_ds) 
3680:  MOVF   1D,W
3682:  MOVLB  4
3684:  SUBWF  xA8,W
3686:  BZ    3720
....................       { 
....................          giay_tam=giay_ds; 
3688:  MOVFF  1D,4A8
....................          giay_bin=(giay_ds/16)*10+(giay_ds%16); 
368C:  SWAPF  1D,W
368E:  MOVWF  00
3690:  MOVLW  0F
3692:  ANDWF  00,F
3694:  MOVF   00,W
3696:  MULLW  0A
3698:  MOVFF  FF3,4AE
369C:  MOVF   1D,W
369E:  ANDLW  0F
36A0:  ADDWF  xAE,W
36A2:  MOVWF  xA9
....................           
....................          if(giay_ds==0) 
36A4:  MOVF   1D,F
36A6:  BNZ   3708
....................          { 
....................             phut_bin=(phut_ds/16)*10+(phut_ds%16); 
36A8:  SWAPF  1E,W
36AA:  MOVWF  00
36AC:  MOVLW  0F
36AE:  ANDWF  00,F
36B0:  MOVF   00,W
36B2:  MULLW  0A
36B4:  MOVFF  FF3,4AE
36B8:  MOVF   1E,W
36BA:  ANDLW  0F
36BC:  ADDWF  xAE,W
36BE:  MOVWF  xAA
....................             glcd_ve_kim_phut(bkm,phut_bin,1); 
36C0:  MOVLW  11
36C2:  MOVWF  xAE
36C4:  CLRF   xB0
36C6:  MOVFF  4AA,4AF
36CA:  MOVLW  01
36CC:  MOVWF  xB1
36CE:  MOVLB  0
36D0:  CALL   2284
....................              
....................             if(phut_ds==0) 
36D4:  MOVF   1E,F
36D6:  BNZ   3706
....................             { 
....................                gio_bin=(gio_ds/16)*10+(gio_ds%16); 
36D8:  SWAPF  1F,W
36DA:  MOVWF  00
36DC:  MOVLW  0F
36DE:  ANDWF  00,F
36E0:  MOVF   00,W
36E2:  MULLW  0A
36E4:  MOVFF  FF3,4AE
36E8:  MOVLB  4
36EA:  MOVF   1F,W
36EC:  ANDLW  0F
36EE:  ADDWF  xAE,W
36F0:  MOVWF  xAB
....................                glcd_ve_kim_gio(bkh,gio_bin,1); 
36F2:  MOVLW  0D
36F4:  MOVWF  xAE
36F6:  CLRF   xB0
36F8:  MOVFF  4AB,4AF
36FC:  MOVLW  01
36FE:  MOVWF  xB1
3700:  MOVLB  0
3702:  CALL   2518
3706:  MOVLB  4
....................             } 
....................          } 
....................          glcd_ve_kim_giay(bks,giay_bin,1); 
3708:  MOVLW  14
370A:  MOVWF  xAE
370C:  CLRF   xB0
370E:  MOVFF  4A9,4AF
3712:  MOVLW  01
3714:  MOVWF  xB1
3716:  MOVLB  0
3718:  CALL   1F7A
....................          gdram_vdk_to_gdram_glcd_all(); 
371C:  BRA    30BC
....................          glcd_dong_ho_so(); 
371E:  BRA    31AA
....................       } 
3720:  MOVLB  0
3722:  BRA    35B4
....................    } 
.................... } 
....................  
3724:  SLEEP 
....................  

Configuration Fuses:
   Word  1: CC07   PLL12 CPUDIV1 NOUSBDIV HS FCMEN IESO
   Word  2: 1E3E   PUT BROWNOUT BORV21 VREGEN NOWDT WDT32768
   Word  3: 8700   CCP2C1 PBADEN LPT1OSC MCLR
   Word  4: 00A1   STVREN NOLVP ICSP2 NOXINST NODEBUG
   Word  5: C00F   NOPROTECT NOCPB NOCPD
   Word  6: E00F   NOWRT NOWRTC NOWRTB NOWRTD
   Word  7: 400F   NOEBTR NOEBTRB
