CCS PCH C Compiler, Version 5.015, 5967               04-Jun-22 18:59

               Filename:   E:\Downloads\TT VXL THAY PHU\tt_vxl_d501_thay_phu\tt_vxl_d501_thay_phu\bai_tong_hop.lst

               ROM used:   13950 bytes (43%)
                           Largest free fragment is 18818
               RAM used:   1188 (58%) at main() level
                           1268 (62%) worst case
               Stack used: 9 locations
               Stack size: 31

*
0000:  GOTO   3352
.................... #include <tv_kit_vdk_pic_all.c> 
.................... //xxxxxxxxxxxxxxxxxxxxxxxxxxxxxxxxxxxxxxxxxxxxxxxxxxxxxxxx 
.................... //NGUYEN DINH PHU SU PHAM KY THUAT TP HCM 
.................... //xxxxxxxxxxxxxxxxxxxxxxxxxxxxxxxxxxxxxxxxxxxxxxxxxxxxxxxx 
.................... #include <tv_00_define_18f4550.c>                                            
.................... //xxxxxxxxxxxxxxxxxxxxxxxxxxxxxxxxxxxxxxxxxxxxxxxxxxxxxxxx 
.................... //NGUYEN DINH PHU SU PHAM KY THUAT TP HCM 
.................... //xxxxxxxxxxxxxxxxxxxxxxxxxxxxxxxxxxxxxxxxxxxxxxxxxxxxxxxx 
....................  
.................... //xxxxxxxxxxxxxxxxxxxxxxxxxxxxxxxxxxxxxxxxxxxxxxxxxxxxxxxx 
.................... //cau hinh vi dieu khien pic        
.................... //xxxxxxxxxxxxxxxxxxxxxxxxxxxxxxxxxxxxxxxxxxxxxxxxxxxxxxxx 
.................... #include <18f4550.h> 
.................... //////////// Standard Header file for the PIC18F4550 device //////////////// 
.................... /////////////////////////////////////////////////////////////////////////// 
.................... ////        (C) Copyright 1996, 2013 Custom Computer Services          //// 
.................... //// This source code may only be used by licensed users of the CCS C  //// 
.................... //// compiler.  This source code may only be distributed to other      //// 
.................... //// licensed users of the CCS C compiler.  No other use, reproduction //// 
.................... //// or distribution is permitted without written permission.          //// 
.................... //// Derivative programs created using this software in object code    //// 
.................... //// form are not restricted in any way.                               //// 
.................... /////////////////////////////////////////////////////////////////////////// 
.................... #device PIC18F4550 
0004:  CLRF   FF7
0006:  ADDLW  14
0008:  MOVWF  FF6
000A:  MOVLW  00
000C:  ADDWFC FF7,F
000E:  TBLRD*+
0010:  MOVF   FF5,W
0012:  RETURN 0
0014:  DATA C0,F9
0016:  DATA A4,B0
0018:  DATA 99,92
001A:  DATA 82,F8
001C:  DATA 80,90
001E:  DATA 88,83
0020:  DATA C6,A1
0022:  DATA 86,8E
0024:  CLRF   FF7
0026:  ADDLW  34
0028:  MOVWF  FF6
002A:  MOVLW  00
002C:  ADDWFC FF7,F
002E:  TBLRD*+
0030:  MOVF   FF5,W
0032:  RETURN 0
0034:  DATA 80,C0
0036:  DATA 94,D4
0038:  CLRF   FF7
003A:  ADDLW  48
003C:  MOVWF  FF6
003E:  MOVLW  00
0040:  ADDWFC FF7,F
0042:  TBLRD*+
0044:  MOVF   FF5,W
0046:  RETURN 0
0048:  DATA 00,01
004A:  DATA 02,04
004C:  DATA 03,05
004E:  DATA 01,02
0050:  DATA 20,03
0052:  DATA 07,03
0054:  DATA 06,06
0056:  DATA 02,04
0058:  DATA 03,03
005A:  DATA 06,06
005C:  DATA 02,03
005E:  DATA 03,05
0060:  DATA 07,03
0062:  DATA 07,20
0064:  DATA 20,07
0066:  DATA 07,06
0068:  DATA 06,03
006A:  DATA 03,05
006C:  DATA 00,06
006E:  DATA 06,04
0070:  DATA 03,05
0072:  DATA 01,01
0074:  DATA 07,20
0076:  DATA 20,07
0078:  DATA 00,06
007A:  DATA 02,04
007C:  DATA 03,05
007E:  DATA 00,06
0080:  DATA 02,03
0082:  DATA 03,05
0084:  CLRF   FF7
0086:  ADDLW  94
0088:  MOVWF  FF6
008A:  MOVLW  00
008C:  ADDWFC FF7,F
008E:  TBLRD*+
0090:  MOVF   FF5,W
0092:  RETURN 0
0094:  DATA 07,0F
0096:  DATA 1F,1F
0098:  DATA 1F,1F
009A:  DATA 1F,1F
009C:  DATA 1F,1F
009E:  DATA 1F,00
00A0:  DATA 00,00
00A2:  DATA 00,00
00A4:  DATA 1C,1E
00A6:  DATA 1F,1F
00A8:  DATA 1F,1F
00AA:  DATA 1F,1F
00AC:  DATA 00,00
00AE:  DATA 00,00
00B0:  DATA 00,1F
00B2:  DATA 1F,1F
00B4:  DATA 1F,1F
00B6:  DATA 1F,1F
00B8:  DATA 1F,1F
00BA:  DATA 0F,07
00BC:  DATA 1F,1F
00BE:  DATA 1F,1F
00C0:  DATA 1F,1F
00C2:  DATA 1E,1C
00C4:  DATA 1F,1F
00C6:  DATA 1F,00
00C8:  DATA 00,00
00CA:  DATA 1F,1F
00CC:  DATA 1F,1F
00CE:  DATA 1F,1F
00D0:  DATA 1F,1F
00D2:  DATA 1F,1F
00D4:  CLRF   FF7
00D6:  ADDLW  E4
00D8:  MOVWF  FF6
00DA:  MOVLW  00
00DC:  ADDWFC FF7,F
00DE:  TBLRD*+
00E0:  MOVF   FF5,W
00E2:  RETURN 0
00E4:  DATA 00,00
00E6:  DATA 00,00
00E8:  DATA 00,00
00EA:  DATA 00,5F
00EC:  DATA 00,00
00EE:  DATA 00,03
00F0:  DATA 00,03
00F2:  DATA 00,14
00F4:  DATA 3E,14
00F6:  DATA 3E,14
00F8:  DATA 24,2A
00FA:  DATA 7F,2A
00FC:  DATA 12,43
00FE:  DATA 33,08
0100:  DATA 66,61
0102:  DATA 36,49
0104:  DATA 55,22
0106:  DATA 50,00
0108:  DATA 05,03
010A:  DATA 00,00
010C:  DATA 00,1C
010E:  DATA 22,41
0110:  DATA 00,00
0112:  DATA 41,22
0114:  DATA 1C,00
0116:  DATA 14,08
0118:  DATA 3E,08
011A:  DATA 14,08
011C:  DATA 08,3E
011E:  DATA 08,08
0120:  DATA 00,50
0122:  DATA 30,00
0124:  DATA 00,08
0126:  DATA 08,08
0128:  DATA 08,08
012A:  DATA 00,60
012C:  DATA 60,00
012E:  DATA 00,20
0130:  DATA 10,08
0132:  DATA 04,02
0134:  DATA 3E,51
0136:  DATA 49,45
0138:  DATA 3E,00
013A:  DATA 04,02
013C:  DATA 7F,00
013E:  DATA 42,61
0140:  DATA 51,49
0142:  DATA 46,22
0144:  DATA 41,49
0146:  DATA 49,36
0148:  DATA 18,14
014A:  DATA 12,7F
014C:  DATA 10,27
014E:  DATA 45,45
0150:  DATA 45,39
0152:  DATA 3E,49
0154:  DATA 49,49
0156:  DATA 32,01
0158:  DATA 01,71
015A:  DATA 09,07
015C:  DATA 36,49
015E:  DATA 49,49
0160:  DATA 36,26
0162:  DATA 49,49
0164:  DATA 49,3E
0166:  DATA 00,36
0168:  DATA 36,00
016A:  DATA 00,00
016C:  DATA 56,36
016E:  DATA 00,00
0170:  DATA 08,14
0172:  DATA 22,41
0174:  DATA 00,14
0176:  DATA 14,14
0178:  DATA 14,14
017A:  DATA 00,41
017C:  DATA 22,14
017E:  DATA 08,02
0180:  DATA 01,51
0182:  DATA 09,06
0184:  DATA 3E,41
0186:  DATA 59,55
0188:  DATA 5E,7E
018A:  DATA 09,09
018C:  DATA 09,7E
018E:  DATA 7F,49
0190:  DATA 49,49
0192:  DATA 36,3E
0194:  DATA 41,41
0196:  DATA 41,22
0198:  DATA 7F,41
019A:  DATA 41,41
019C:  DATA 3E,7F
019E:  DATA 49,49
01A0:  DATA 49,41
01A2:  DATA 7F,09
01A4:  DATA 09,09
01A6:  DATA 01,3E
01A8:  DATA 41,41
01AA:  DATA 49,3A
01AC:  DATA 7F,08
01AE:  DATA 08,08
01B0:  DATA 7F,00
01B2:  DATA 41,7F
01B4:  DATA 41,00
01B6:  DATA 30,40
01B8:  DATA 40,40
01BA:  DATA 3F,7F
01BC:  DATA 08,14
01BE:  DATA 22,41
01C0:  DATA 7F,40
01C2:  DATA 40,40
01C4:  DATA 40,7F
01C6:  DATA 02,0C
01C8:  DATA 02,7F
01CA:  DATA 7F,02
01CC:  DATA 04,08
01CE:  DATA 7F,3E
01D0:  DATA 41,41
01D2:  DATA 41,3E
01D4:  DATA 7F,09
01D6:  DATA 09,09
01D8:  DATA 06,1E
01DA:  DATA 21,21
01DC:  DATA 21,5E
01DE:  DATA 7F,09
01E0:  DATA 09,09
01E2:  DATA 76,00
01E4:  CLRF   FF7
01E6:  ADDLW  F4
01E8:  MOVWF  FF6
01EA:  MOVLW  01
01EC:  ADDWFC FF7,F
01EE:  TBLRD*+
01F0:  MOVF   FF5,W
01F2:  RETURN 0
01F4:  DATA 26,49
01F6:  DATA 49,49
01F8:  DATA 32,01
01FA:  DATA 01,7F
01FC:  DATA 01,01
01FE:  DATA 3F,40
0200:  DATA 40,40
0202:  DATA 3F,1F
0204:  DATA 20,40
0206:  DATA 20,1F
0208:  DATA 7F,20
020A:  DATA 10,20
020C:  DATA 7F,41
020E:  DATA 22,1C
0210:  DATA 22,41
0212:  DATA 07,08
0214:  DATA 70,08
0216:  DATA 07,61
0218:  DATA 51,49
021A:  DATA 45,43
021C:  DATA 00,7F
021E:  DATA 41,00
0220:  DATA 00,02
0222:  DATA 04,08
0224:  DATA 10,20
0226:  DATA 00,00
0228:  DATA 41,7F
022A:  DATA 00,04
022C:  DATA 02,01
022E:  DATA 02,04
0230:  DATA 40,40
0232:  DATA 40,40
0234:  DATA 40,00
0236:  DATA 01,02
0238:  DATA 04,00
023A:  DATA 20,54
023C:  DATA 54,54
023E:  DATA 78,7F
0240:  DATA 44,44
0242:  DATA 44,38
0244:  DATA 38,44
0246:  DATA 44,44
0248:  DATA 44,38
024A:  DATA 44,44
024C:  DATA 44,7F
024E:  DATA 38,54
0250:  DATA 54,54
0252:  DATA 18,04
0254:  DATA 04,7E
0256:  DATA 05,05
0258:  DATA 08,54
025A:  DATA 54,54
025C:  DATA 3C,7F
025E:  DATA 08,04
0260:  DATA 04,78
0262:  DATA 00,44
0264:  DATA 7D,40
0266:  DATA 00,20
0268:  DATA 40,44
026A:  DATA 3D,00
026C:  DATA 7F,10
026E:  DATA 28,44
0270:  DATA 00,00
0272:  DATA 41,7F
0274:  DATA 40,00
0276:  DATA 7C,04
0278:  DATA 78,04
027A:  DATA 78,7C
027C:  DATA 08,04
027E:  DATA 04,78
0280:  DATA 38,44
0282:  DATA 44,44
0284:  DATA 38,7C
0286:  DATA 14,14
0288:  DATA 14,08
028A:  DATA 08,14
028C:  DATA 14,14
028E:  DATA 7C,00
0290:  DATA 7C,08
0292:  DATA 04,04
0294:  DATA 48,54
0296:  DATA 54,54
0298:  DATA 20,04
029A:  DATA 04,3F
029C:  DATA 44,44
029E:  DATA 3C,40
02A0:  DATA 40,20
02A2:  DATA 7C,1C
02A4:  DATA 20,40
02A6:  DATA 20,1C
02A8:  DATA 3C,40
02AA:  DATA 30,40
02AC:  DATA 3C,44
02AE:  DATA 28,10
02B0:  DATA 28,44
02B2:  DATA 0C,50
02B4:  DATA 50,50
02B6:  DATA 3C,44
02B8:  DATA 64,54
02BA:  DATA 4C,44
02BC:  DATA 00,08
02BE:  DATA 36,41
02C0:  DATA 41,00
02C2:  DATA 00,7F
02C4:  DATA 00,00
02C6:  DATA 41,41
02C8:  DATA 36,08
02CA:  DATA 00,02
02CC:  DATA 01,02
02CE:  DATA 04,02
02D0:  CLRF   FF7
02D2:  ADDLW  E0
02D4:  MOVWF  FF6
02D6:  MOVLW  02
02D8:  ADDWFC FF7,F
02DA:  TBLRD*+
02DC:  MOVF   FF5,W
02DE:  RETURN 0
02E0:  DATA 30,31
02E2:  DATA 32,33
02E4:  DATA 34,35
02E6:  DATA 36,37
02E8:  DATA 38,39
02EA:  DATA 00,00
02EC:  DATA 2E,00
02EE:  DATA 2E,00
02F0:  DATA 2E,00
02F2:  DATA 4E,4F
02F4:  DATA 20,44
02F6:  DATA 48,54
02F8:  DATA 31,31
02FA:  DATA 00,00
02FC:  DATA 44,4F
02FE:  DATA 43,20
0300:  DATA 53,41
0302:  DATA 49,20
0304:  DATA 44,55
0306:  DATA 20,4C
0308:  DATA 49,45
030A:  DATA 55,20
030C:  DATA 44,48
030E:  DATA 54,31
0310:  DATA 31,00
0312:  DATA 4E,4F
0314:  DATA 20,44
0316:  DATA 53,31
0318:  DATA 38,42
031A:  DATA 32,30
031C:  DATA 00,00
*
0732:  TBLRD*+
0734:  MOVF   FF5,F
0736:  BZ    0750
0738:  MOVFF  FF6,4B0
073C:  MOVFF  FF7,4B1
0740:  MOVFF  FF5,4B2
0744:  RCALL  04F2
0746:  MOVFF  4B0,FF6
074A:  MOVFF  4B1,FF7
074E:  BRA    0732
0750:  GOTO   0768 (RETURN)
*
0838:  CLRF   01
083A:  CLRF   02
083C:  CLRF   00
083E:  CLRF   03
0840:  MOVLB  4
0842:  MOVF   xAE,W
0844:  BNZ   084A
0846:  MOVF   xAD,W
0848:  BZ    087A
084A:  MOVLW  10
084C:  MOVWF  xAF
084E:  BCF    FD8.0
0850:  RLCF   xAB,F
0852:  RLCF   xAC,F
0854:  RLCF   00,F
0856:  RLCF   03,F
0858:  MOVF   xAE,W
085A:  SUBWF  03,W
085C:  BNZ   0862
085E:  MOVF   xAD,W
0860:  SUBWF  00,W
0862:  BNC   0872
0864:  MOVF   xAD,W
0866:  SUBWF  00,F
0868:  BTFSS  FD8.0
086A:  DECF   03,F
086C:  MOVF   xAE,W
086E:  SUBWF  03,F
0870:  BSF    FD8.0
0872:  RLCF   01,F
0874:  RLCF   02,F
0876:  DECFSZ xAF,F
0878:  BRA    084E
087A:  MOVLB  0
087C:  RETURN 0
*
0B3C:  MOVLB  4
0B3E:  MOVF   xD7,W
0B40:  MULWF  xD9
0B42:  MOVFF  FF3,01
0B46:  MOVFF  FF4,00
0B4A:  MULWF  xDA
0B4C:  MOVF   FF3,W
0B4E:  ADDWF  00,F
0B50:  MOVF   xD8,W
0B52:  MULWF  xD9
0B54:  MOVF   FF3,W
0B56:  ADDWFC 00,W
0B58:  MOVWF  02
0B5A:  MOVLB  0
0B5C:  RETURN 0
*
1238:  CLRF   00
123A:  CLRF   01
123C:  MOVLB  4
123E:  MOVF   xC0,W
1240:  BCF    FD8.0
1242:  BTFSC  xC1.0
1244:  ADDWF  00,F
1246:  RRCF   00,F
1248:  RRCF   01,F
124A:  BTFSC  xC1.1
124C:  ADDWF  00,F
124E:  RRCF   00,F
1250:  RRCF   01,F
1252:  BTFSC  xC1.2
1254:  ADDWF  00,F
1256:  RRCF   00,F
1258:  RRCF   01,F
125A:  BTFSC  xC1.3
125C:  ADDWF  00,F
125E:  RRCF   00,F
1260:  RRCF   01,F
1262:  BTFSC  xC1.4
1264:  ADDWF  00,F
1266:  RRCF   00,F
1268:  RRCF   01,F
126A:  BTFSC  xC1.5
126C:  ADDWF  00,F
126E:  RRCF   00,F
1270:  RRCF   01,F
1272:  BTFSC  xC1.6
1274:  ADDWF  00,F
1276:  RRCF   00,F
1278:  RRCF   01,F
127A:  BTFSC  xC1.7
127C:  ADDWF  00,F
127E:  RRCF   00,F
1280:  RRCF   01,F
1282:  MOVLB  0
1284:  RETURN 0
*
166E:  MOVLB  4
1670:  MOVF   xAB,W
1672:  XORWF  xAD,W
1674:  ANDLW  80
1676:  MOVWF  xAF
1678:  BTFSS  xAB.7
167A:  BRA    1686
167C:  COMF   xAA,F
167E:  COMF   xAB,F
1680:  INCF   xAA,F
1682:  BTFSC  FD8.2
1684:  INCF   xAB,F
1686:  BTFSS  xAD.7
1688:  BRA    1694
168A:  COMF   xAC,F
168C:  COMF   xAD,F
168E:  INCF   xAC,F
1690:  BTFSC  FD8.2
1692:  INCF   xAD,F
1694:  MOVF   xAA,W
1696:  MULWF  xAC
1698:  MOVFF  FF3,01
169C:  MOVFF  FF4,00
16A0:  MULWF  xAD
16A2:  MOVF   FF3,W
16A4:  ADDWF  00,F
16A6:  MOVF   xAB,W
16A8:  MULWF  xAC
16AA:  MOVF   FF3,W
16AC:  ADDWFC 00,W
16AE:  MOVWF  02
16B0:  BTFSS  xAF.7
16B2:  BRA    16BE
16B4:  COMF   01,F
16B6:  COMF   02,F
16B8:  INCF   01,F
16BA:  BTFSC  FD8.2
16BC:  INCF   02,F
16BE:  MOVLB  0
16C0:  RETURN 0
16C2:  MOVLW  8E
16C4:  MOVWF  00
16C6:  MOVFF  4AB,01
16CA:  MOVFF  4AA,02
16CE:  CLRF   03
16D0:  BTFSS  01.7
16D2:  BRA    16DE
16D4:  COMF   01,F
16D6:  COMF   02,F
16D8:  INCF   02,F
16DA:  BNZ   16DE
16DC:  INCF   01,F
16DE:  MOVF   01,F
16E0:  BNZ   16F4
16E2:  MOVFF  02,01
16E6:  CLRF   02
16E8:  MOVLW  08
16EA:  SUBWF  00,F
16EC:  MOVF   01,F
16EE:  BNZ   16F4
16F0:  CLRF   00
16F2:  BRA    1710
16F4:  BCF    FD8.0
16F6:  BTFSC  01.7
16F8:  BRA    1702
16FA:  RLCF   02,F
16FC:  RLCF   01,F
16FE:  DECF   00,F
1700:  BRA    16F4
1702:  MOVLB  4
1704:  BTFSS  xAB.7
1706:  BRA    170C
1708:  MOVLB  0
170A:  BRA    1710
170C:  BCF    01.7
170E:  MOVLB  0
1710:  RETURN 0
1712:  MOVLB  4
1714:  MOVF   xE4,W
1716:  BTFSC  FD8.2
1718:  BRA    17FC
171A:  MOVWF  00
171C:  MOVF   xE8,W
171E:  BTFSC  FD8.2
1720:  BRA    17FC
1722:  ADDWF  00,F
1724:  BNC   172E
1726:  MOVLW  81
1728:  ADDWF  00,F
172A:  BC    17FC
172C:  BRA    1736
172E:  MOVLW  7F
1730:  SUBWF  00,F
1732:  BNC   17FC
1734:  BZ    17FC
1736:  MOVFF  4E5,4EC
173A:  MOVF   xE9,W
173C:  XORWF  xEC,F
173E:  BSF    xE5.7
1740:  BSF    xE9.7
1742:  MOVF   xE7,W
1744:  MULWF  xEB
1746:  MOVFF  FF4,4EE
174A:  MOVF   xE6,W
174C:  MULWF  xEA
174E:  MOVFF  FF4,03
1752:  MOVFF  FF3,4ED
1756:  MULWF  xEB
1758:  MOVF   FF3,W
175A:  ADDWF  xEE,F
175C:  MOVF   FF4,W
175E:  ADDWFC xED,F
1760:  MOVLW  00
1762:  ADDWFC 03,F
1764:  MOVF   xE7,W
1766:  MULWF  xEA
1768:  MOVF   FF3,W
176A:  ADDWF  xEE,F
176C:  MOVF   FF4,W
176E:  ADDWFC xED,F
1770:  MOVLW  00
1772:  CLRF   02
1774:  ADDWFC 03,F
1776:  ADDWFC 02,F
1778:  MOVF   xE5,W
177A:  MULWF  xEB
177C:  MOVF   FF3,W
177E:  ADDWF  xED,F
1780:  MOVF   FF4,W
1782:  ADDWFC 03,F
1784:  MOVLW  00
1786:  ADDWFC 02,F
1788:  MOVF   xE5,W
178A:  MULWF  xEA
178C:  MOVF   FF3,W
178E:  ADDWF  03,F
1790:  MOVF   FF4,W
1792:  ADDWFC 02,F
1794:  MOVLW  00
1796:  CLRF   01
1798:  ADDWFC 01,F
179A:  MOVF   xE7,W
179C:  MULWF  xE9
179E:  MOVF   FF3,W
17A0:  ADDWF  xED,F
17A2:  MOVF   FF4,W
17A4:  ADDWFC 03,F
17A6:  MOVLW  00
17A8:  ADDWFC 02,F
17AA:  ADDWFC 01,F
17AC:  MOVF   xE6,W
17AE:  MULWF  xE9
17B0:  MOVF   FF3,W
17B2:  ADDWF  03,F
17B4:  MOVF   FF4,W
17B6:  ADDWFC 02,F
17B8:  MOVLW  00
17BA:  ADDWFC 01,F
17BC:  MOVF   xE5,W
17BE:  MULWF  xE9
17C0:  MOVF   FF3,W
17C2:  ADDWF  02,F
17C4:  MOVF   FF4,W
17C6:  ADDWFC 01,F
17C8:  INCF   00,F
17CA:  BTFSC  01.7
17CC:  BRA    17D8
17CE:  RLCF   xED,F
17D0:  RLCF   03,F
17D2:  RLCF   02,F
17D4:  RLCF   01,F
17D6:  DECF   00,F
17D8:  MOVLW  00
17DA:  BTFSS  xED.7
17DC:  BRA    17F2
17DE:  INCF   03,F
17E0:  ADDWFC 02,F
17E2:  ADDWFC 01,F
17E4:  MOVF   01,W
17E6:  BNZ   17F2
17E8:  MOVF   02,W
17EA:  BNZ   17F2
17EC:  MOVF   03,W
17EE:  BNZ   17F2
17F0:  INCF   00,F
17F2:  BTFSC  xEC.7
17F4:  BSF    01.7
17F6:  BTFSS  xEC.7
17F8:  BCF    01.7
17FA:  BRA    1804
17FC:  CLRF   00
17FE:  CLRF   01
1800:  CLRF   02
1802:  CLRF   03
1804:  MOVLB  0
1806:  RETURN 0
1808:  MOVLB  4
180A:  MOVF   xAF,W
180C:  BTFSC  FD8.2
180E:  BRA    195A
1810:  MOVWF  xBB
1812:  MOVF   xB3,W
1814:  BTFSC  FD8.2
1816:  BRA    195A
1818:  SUBWF  xBB,F
181A:  BNC   1826
181C:  MOVLW  7F
181E:  ADDWF  xBB,F
1820:  BTFSC  FD8.0
1822:  BRA    195A
1824:  BRA    1832
1826:  MOVLW  81
1828:  SUBWF  xBB,F
182A:  BTFSS  FD8.0
182C:  BRA    195A
182E:  BTFSC  FD8.2
1830:  BRA    195A
1832:  MOVFF  4BB,00
1836:  CLRF   01
1838:  CLRF   02
183A:  CLRF   03
183C:  CLRF   xBA
183E:  MOVFF  4B0,4B9
1842:  BSF    xB9.7
1844:  MOVFF  4B1,4B8
1848:  MOVFF  4B2,4B7
184C:  MOVLW  19
184E:  MOVWF  xBB
1850:  MOVF   xB6,W
1852:  SUBWF  xB7,F
1854:  BC    1870
1856:  MOVLW  01
1858:  SUBWF  xB8,F
185A:  BC    1870
185C:  SUBWF  xB9,F
185E:  BC    1870
1860:  SUBWF  xBA,F
1862:  BC    1870
1864:  INCF   xBA,F
1866:  INCF   xB9,F
1868:  INCF   xB8,F
186A:  MOVF   xB6,W
186C:  ADDWF  xB7,F
186E:  BRA    18C0
1870:  MOVF   xB5,W
1872:  SUBWF  xB8,F
1874:  BC    189A
1876:  MOVLW  01
1878:  SUBWF  xB9,F
187A:  BC    189A
187C:  SUBWF  xBA,F
187E:  BC    189A
1880:  INCF   xBA,F
1882:  INCF   xB9,F
1884:  MOVF   xB5,W
1886:  ADDWF  xB8,F
1888:  MOVF   xB6,W
188A:  ADDWF  xB7,F
188C:  BNC   18C0
188E:  INCF   xB8,F
1890:  BNZ   18C0
1892:  INCF   xB9,F
1894:  BNZ   18C0
1896:  INCF   xBA,F
1898:  BRA    18C0
189A:  MOVF   xB4,W
189C:  IORLW  80
189E:  SUBWF  xB9,F
18A0:  BC    18BE
18A2:  MOVLW  01
18A4:  SUBWF  xBA,F
18A6:  BC    18BE
18A8:  INCF   xBA,F
18AA:  MOVF   xB4,W
18AC:  IORLW  80
18AE:  ADDWF  xB9,F
18B0:  MOVF   xB5,W
18B2:  ADDWF  xB8,F
18B4:  BNC   1888
18B6:  INCF   xB9,F
18B8:  BNZ   1888
18BA:  INCF   xBA,F
18BC:  BRA    1888
18BE:  BSF    03.0
18C0:  DECFSZ xBB,F
18C2:  BRA    18C6
18C4:  BRA    18DC
18C6:  BCF    FD8.0
18C8:  RLCF   xB7,F
18CA:  RLCF   xB8,F
18CC:  RLCF   xB9,F
18CE:  RLCF   xBA,F
18D0:  BCF    FD8.0
18D2:  RLCF   03,F
18D4:  RLCF   02,F
18D6:  RLCF   01,F
18D8:  RLCF   xBC,F
18DA:  BRA    1850
18DC:  BTFSS  xBC.0
18DE:  BRA    18EC
18E0:  BCF    FD8.0
18E2:  RRCF   01,F
18E4:  RRCF   02,F
18E6:  RRCF   03,F
18E8:  RRCF   xBC,F
18EA:  BRA    18F0
18EC:  DECF   00,F
18EE:  BZ    195A
18F0:  BTFSC  xBC.7
18F2:  BRA    1930
18F4:  BCF    FD8.0
18F6:  RLCF   xB7,F
18F8:  RLCF   xB8,F
18FA:  RLCF   xB9,F
18FC:  RLCF   xBA,F
18FE:  MOVF   xB6,W
1900:  SUBWF  xB7,F
1902:  BC    1912
1904:  MOVLW  01
1906:  SUBWF  xB8,F
1908:  BC    1912
190A:  SUBWF  xB9,F
190C:  BC    1912
190E:  SUBWF  xBA,F
1910:  BNC   1946
1912:  MOVF   xB5,W
1914:  SUBWF  xB8,F
1916:  BC    1922
1918:  MOVLW  01
191A:  SUBWF  xB9,F
191C:  BC    1922
191E:  SUBWF  xBA,F
1920:  BNC   1946
1922:  MOVF   xB4,W
1924:  IORLW  80
1926:  SUBWF  xB9,F
1928:  BC    1930
192A:  MOVLW  01
192C:  SUBWF  xBA,F
192E:  BNC   1946
1930:  INCF   03,F
1932:  BNZ   1946
1934:  INCF   02,F
1936:  BNZ   1946
1938:  INCF   01,F
193A:  BNZ   1946
193C:  INCF   00,F
193E:  BZ    195A
1940:  RRCF   01,F
1942:  RRCF   02,F
1944:  RRCF   03,F
1946:  MOVFF  4B0,4BB
194A:  MOVF   xB4,W
194C:  XORWF  xBB,F
194E:  BTFSS  xBB.7
1950:  BRA    1956
1952:  BSF    01.7
1954:  BRA    1962
1956:  BCF    01.7
1958:  BRA    1962
195A:  CLRF   00
195C:  CLRF   01
195E:  CLRF   02
1960:  CLRF   03
1962:  MOVLB  0
1964:  RETURN 0
1966:  MOVFF  4E1,4E8
196A:  MOVLB  4
196C:  MOVF   xE5,W
196E:  XORWF  xE8,F
1970:  BTFSS  xE8.7
1972:  BRA    197E
1974:  BCF    FD8.2
1976:  BCF    FD8.0
1978:  BTFSC  xE1.7
197A:  BSF    FD8.0
197C:  BRA    19DC
197E:  MOVFF  4E1,4E8
1982:  MOVFF  4E4,4E9
1986:  MOVF   xE0,W
1988:  SUBWF  xE9,F
198A:  BZ    1998
198C:  BTFSS  xE8.7
198E:  BRA    19DC
1990:  MOVF   FD8,W
1992:  XORLW  01
1994:  MOVWF  FD8
1996:  BRA    19DC
1998:  MOVFF  4E5,4E9
199C:  MOVF   xE1,W
199E:  SUBWF  xE9,F
19A0:  BZ    19AE
19A2:  BTFSS  xE8.7
19A4:  BRA    19DC
19A6:  MOVF   FD8,W
19A8:  XORLW  01
19AA:  MOVWF  FD8
19AC:  BRA    19DC
19AE:  MOVFF  4E6,4E9
19B2:  MOVF   xE2,W
19B4:  SUBWF  xE9,F
19B6:  BZ    19C4
19B8:  BTFSS  xE8.7
19BA:  BRA    19DC
19BC:  MOVF   FD8,W
19BE:  XORLW  01
19C0:  MOVWF  FD8
19C2:  BRA    19DC
19C4:  MOVFF  4E7,4E9
19C8:  MOVF   xE3,W
19CA:  SUBWF  xE9,F
19CC:  BZ    19DA
19CE:  BTFSS  xE8.7
19D0:  BRA    19DC
19D2:  MOVF   FD8,W
19D4:  XORLW  01
19D6:  MOVWF  FD8
19D8:  BRA    19DC
19DA:  BCF    FD8.0
19DC:  MOVLB  0
19DE:  GOTO   1D40 (RETURN)
19E2:  MOVLW  8E
19E4:  MOVWF  00
19E6:  MOVLB  4
19E8:  MOVF   xE0,W
19EA:  SUBWF  00,F
19EC:  MOVFF  4E1,02
19F0:  MOVFF  4E2,01
19F4:  BSF    02.7
19F6:  MOVF   00,F
19F8:  BZ    1A0C
19FA:  BCF    FD8.0
19FC:  MOVF   02,F
19FE:  BNZ   1A04
1A00:  MOVF   01,F
1A02:  BZ    1A0C
1A04:  RRCF   02,F
1A06:  RRCF   01,F
1A08:  DECFSZ 00,F
1A0A:  BRA    19FA
1A0C:  BTFSS  xE1.7
1A0E:  BRA    1A1A
1A10:  COMF   01,F
1A12:  COMF   02,F
1A14:  INCF   01,F
1A16:  BTFSC  FD8.2
1A18:  INCF   02,F
1A1A:  MOVLB  0
1A1C:  RETURN 0
1A1E:  MOVLW  8E
1A20:  MOVWF  00
1A22:  MOVFF  4E5,01
1A26:  MOVFF  4E4,02
1A2A:  CLRF   03
1A2C:  MOVF   01,F
1A2E:  BNZ   1A42
1A30:  MOVFF  02,01
1A34:  CLRF   02
1A36:  MOVLW  08
1A38:  SUBWF  00,F
1A3A:  MOVF   01,F
1A3C:  BNZ   1A42
1A3E:  CLRF   00
1A40:  BRA    1A52
1A42:  BCF    FD8.0
1A44:  BTFSC  01.7
1A46:  BRA    1A50
1A48:  RLCF   02,F
1A4A:  RLCF   01,F
1A4C:  DECF   00,F
1A4E:  BRA    1A42
1A50:  BCF    01.7
1A52:  RETURN 0
1A54:  MOVLW  80
1A56:  BTFSS  FD8.1
1A58:  BRA    1A5E
1A5A:  MOVLB  4
1A5C:  XORWF  xE9,F
1A5E:  MOVLB  4
1A60:  CLRF   xEE
1A62:  CLRF   xEF
1A64:  MOVFF  4E5,4ED
1A68:  MOVF   xE9,W
1A6A:  XORWF  xED,F
1A6C:  MOVF   xE4,W
1A6E:  BTFSC  FD8.2
1A70:  BRA    1C30
1A72:  MOVWF  xEC
1A74:  MOVWF  00
1A76:  MOVF   xE8,W
1A78:  BTFSC  FD8.2
1A7A:  BRA    1C42
1A7C:  SUBWF  xEC,F
1A7E:  BTFSC  FD8.2
1A80:  BRA    1B88
1A82:  BNC   1B00
1A84:  MOVFF  4E9,4F2
1A88:  BSF    xF2.7
1A8A:  MOVFF  4EA,4F1
1A8E:  MOVFF  4EB,4F0
1A92:  CLRF   xEF
1A94:  BCF    FD8.0
1A96:  RRCF   xF2,F
1A98:  RRCF   xF1,F
1A9A:  RRCF   xF0,F
1A9C:  RRCF   xEF,F
1A9E:  DECFSZ xEC,F
1AA0:  BRA    1A92
1AA2:  BTFSS  xED.7
1AA4:  BRA    1AAC
1AA6:  BSF    xEE.0
1AA8:  BRA    1C6A
1AAA:  BCF    xEE.0
1AAC:  BCF    xEC.0
1AAE:  BSF    xEE.4
1AB0:  MOVLW  04
1AB2:  MOVWF  FEA
1AB4:  MOVLW  E7
1AB6:  MOVWF  FE9
1AB8:  BRA    1C90
1ABA:  BCF    xEE.4
1ABC:  BTFSC  xED.7
1ABE:  BRA    1AD4
1AC0:  BTFSS  xEC.0
1AC2:  BRA    1AEA
1AC4:  RRCF   xF2,F
1AC6:  RRCF   xF1,F
1AC8:  RRCF   xF0,F
1ACA:  RRCF   xEF,F
1ACC:  INCF   00,F
1ACE:  BTFSC  FD8.2
1AD0:  BRA    1C60
1AD2:  BRA    1AEA
1AD4:  BTFSC  xF2.7
1AD6:  BRA    1AF0
1AD8:  BCF    FD8.0
1ADA:  RLCF   xEF,F
1ADC:  RLCF   xF0,F
1ADE:  RLCF   xF1,F
1AE0:  RLCF   xF2,F
1AE2:  DECF   00,F
1AE4:  BTFSC  FD8.2
1AE6:  BRA    1C60
1AE8:  BRA    1AD4
1AEA:  BSF    xEE.6
1AEC:  BRA    1BC8
1AEE:  BCF    xEE.6
1AF0:  MOVFF  4E5,4ED
1AF4:  BTFSS  xE5.7
1AF6:  BRA    1AFC
1AF8:  BSF    xF2.7
1AFA:  BRA    1C52
1AFC:  BCF    xF2.7
1AFE:  BRA    1C52
1B00:  MOVFF  4E8,4EC
1B04:  MOVFF  4E8,00
1B08:  MOVF   xE4,W
1B0A:  SUBWF  xEC,F
1B0C:  MOVFF  4E5,4F2
1B10:  BSF    xF2.7
1B12:  MOVFF  4E6,4F1
1B16:  MOVFF  4E7,4F0
1B1A:  CLRF   xEF
1B1C:  BCF    FD8.0
1B1E:  RRCF   xF2,F
1B20:  RRCF   xF1,F
1B22:  RRCF   xF0,F
1B24:  RRCF   xEF,F
1B26:  DECFSZ xEC,F
1B28:  BRA    1B1A
1B2A:  BTFSS  xED.7
1B2C:  BRA    1B34
1B2E:  BSF    xEE.1
1B30:  BRA    1C6A
1B32:  BCF    xEE.1
1B34:  BCF    xEC.0
1B36:  BSF    xEE.5
1B38:  MOVLW  04
1B3A:  MOVWF  FEA
1B3C:  MOVLW  EB
1B3E:  MOVWF  FE9
1B40:  BRA    1C90
1B42:  BCF    xEE.5
1B44:  BTFSC  xED.7
1B46:  BRA    1B5C
1B48:  BTFSS  xEC.0
1B4A:  BRA    1B72
1B4C:  RRCF   xF2,F
1B4E:  RRCF   xF1,F
1B50:  RRCF   xF0,F
1B52:  RRCF   xEF,F
1B54:  INCF   00,F
1B56:  BTFSC  FD8.2
1B58:  BRA    1C60
1B5A:  BRA    1B72
1B5C:  BTFSC  xF2.7
1B5E:  BRA    1B78
1B60:  BCF    FD8.0
1B62:  RLCF   xEF,F
1B64:  RLCF   xF0,F
1B66:  RLCF   xF1,F
1B68:  RLCF   xF2,F
1B6A:  DECF   00,F
1B6C:  BTFSC  FD8.2
1B6E:  BRA    1C60
1B70:  BRA    1B5C
1B72:  BSF    xEE.7
1B74:  BRA    1BC8
1B76:  BCF    xEE.7
1B78:  MOVFF  4E9,4ED
1B7C:  BTFSS  xE9.7
1B7E:  BRA    1B84
1B80:  BSF    xF2.7
1B82:  BRA    1C52
1B84:  BCF    xF2.7
1B86:  BRA    1C52
1B88:  MOVFF  4E9,4F2
1B8C:  BSF    xF2.7
1B8E:  MOVFF  4EA,4F1
1B92:  MOVFF  4EB,4F0
1B96:  BTFSS  xED.7
1B98:  BRA    1BA2
1B9A:  BCF    xF2.7
1B9C:  BSF    xEE.2
1B9E:  BRA    1C6A
1BA0:  BCF    xEE.2
1BA2:  CLRF   xEF
1BA4:  BCF    xEC.0
1BA6:  MOVLW  04
1BA8:  MOVWF  FEA
1BAA:  MOVLW  E7
1BAC:  MOVWF  FE9
1BAE:  BRA    1C90
1BB0:  BTFSC  xED.7
1BB2:  BRA    1BEC
1BB4:  MOVFF  4E5,4ED
1BB8:  BTFSS  xEC.0
1BBA:  BRA    1BC8
1BBC:  RRCF   xF2,F
1BBE:  RRCF   xF1,F
1BC0:  RRCF   xF0,F
1BC2:  RRCF   xEF,F
1BC4:  INCF   00,F
1BC6:  BZ    1C60
1BC8:  BTFSS  xEF.7
1BCA:  BRA    1BE2
1BCC:  INCF   xF0,F
1BCE:  BNZ   1BE2
1BD0:  INCF   xF1,F
1BD2:  BNZ   1BE2
1BD4:  INCF   xF2,F
1BD6:  BNZ   1BE2
1BD8:  RRCF   xF2,F
1BDA:  RRCF   xF1,F
1BDC:  RRCF   xF0,F
1BDE:  INCF   00,F
1BE0:  BZ    1C60
1BE2:  BTFSC  xEE.6
1BE4:  BRA    1AEE
1BE6:  BTFSC  xEE.7
1BE8:  BRA    1B76
1BEA:  BRA    1C24
1BEC:  MOVLW  80
1BEE:  XORWF  xF2,F
1BF0:  BTFSS  xF2.7
1BF2:  BRA    1BFC
1BF4:  BRA    1C6A
1BF6:  MOVFF  4E9,4ED
1BFA:  BRA    1C10
1BFC:  MOVFF  4E5,4ED
1C00:  MOVF   xF2,F
1C02:  BNZ   1C10
1C04:  MOVF   xF1,F
1C06:  BNZ   1C10
1C08:  MOVF   xF0,F
1C0A:  BNZ   1C10
1C0C:  CLRF   00
1C0E:  BRA    1C52
1C10:  BTFSC  xF2.7
1C12:  BRA    1C24
1C14:  BCF    FD8.0
1C16:  RLCF   xEF,F
1C18:  RLCF   xF0,F
1C1A:  RLCF   xF1,F
1C1C:  RLCF   xF2,F
1C1E:  DECFSZ 00,F
1C20:  BRA    1C10
1C22:  BRA    1C60
1C24:  BTFSS  xED.7
1C26:  BRA    1C2C
1C28:  BSF    xF2.7
1C2A:  BRA    1C52
1C2C:  BCF    xF2.7
1C2E:  BRA    1C52
1C30:  MOVFF  4E8,00
1C34:  MOVFF  4E9,4F2
1C38:  MOVFF  4EA,4F1
1C3C:  MOVFF  4EB,4F0
1C40:  BRA    1C52
1C42:  MOVFF  4E4,00
1C46:  MOVFF  4E5,4F2
1C4A:  MOVFF  4E6,4F1
1C4E:  MOVFF  4E7,4F0
1C52:  MOVFF  4F2,01
1C56:  MOVFF  4F1,02
1C5A:  MOVFF  4F0,03
1C5E:  BRA    1CC8
1C60:  CLRF   00
1C62:  CLRF   01
1C64:  CLRF   02
1C66:  CLRF   03
1C68:  BRA    1CC8
1C6A:  CLRF   xEF
1C6C:  COMF   xF0,F
1C6E:  COMF   xF1,F
1C70:  COMF   xF2,F
1C72:  COMF   xEF,F
1C74:  INCF   xEF,F
1C76:  BNZ   1C82
1C78:  INCF   xF0,F
1C7A:  BNZ   1C82
1C7C:  INCF   xF1,F
1C7E:  BNZ   1C82
1C80:  INCF   xF2,F
1C82:  BTFSC  xEE.0
1C84:  BRA    1AAA
1C86:  BTFSC  xEE.1
1C88:  BRA    1B32
1C8A:  BTFSC  xEE.2
1C8C:  BRA    1BA0
1C8E:  BRA    1BF6
1C90:  MOVF   FEF,W
1C92:  ADDWF  xF0,F
1C94:  BNC   1CA0
1C96:  INCF   xF1,F
1C98:  BNZ   1CA0
1C9A:  INCF   xF2,F
1C9C:  BTFSC  FD8.2
1C9E:  BSF    xEC.0
1CA0:  MOVF   FED,F
1CA2:  MOVF   FEF,W
1CA4:  ADDWF  xF1,F
1CA6:  BNC   1CAE
1CA8:  INCF   xF2,F
1CAA:  BTFSC  FD8.2
1CAC:  BSF    xEC.0
1CAE:  MOVF   FED,F
1CB0:  MOVF   FEF,W
1CB2:  BTFSC  FEF.7
1CB4:  BRA    1CB8
1CB6:  XORLW  80
1CB8:  ADDWF  xF2,F
1CBA:  BTFSC  FD8.0
1CBC:  BSF    xEC.0
1CBE:  BTFSC  xEE.4
1CC0:  BRA    1ABA
1CC2:  BTFSC  xEE.5
1CC4:  BRA    1B42
1CC6:  BRA    1BB0
1CC8:  MOVLB  0
1CCA:  RETURN 0
*
2910:  MOVLB  4
2912:  MOVF   xA4,W
2914:  CLRF   01
2916:  SUBWF  xA3,W
2918:  BC    2920
291A:  MOVFF  4A3,00
291E:  BRA    2938
2920:  CLRF   00
2922:  MOVLW  08
2924:  MOVWF  xA5
2926:  RLCF   xA3,F
2928:  RLCF   00,F
292A:  MOVF   xA4,W
292C:  SUBWF  00,W
292E:  BTFSC  FD8.0
2930:  MOVWF  00
2932:  RLCF   01,F
2934:  DECFSZ xA5,F
2936:  BRA    2926
2938:  MOVLB  0
293A:  RETURN 0
....................  
.................... #list 
....................  
.................... #device  adc=10 
.................... #fuses   nowdt,put,hs,noprotect,nolvp,cpudiv1,NOUSBDIV,     
.................... #use     delay(clock=20000000)                                                       
*
046E:  MOVLW  04
0470:  MOVWF  FEA
0472:  MOVLW  B8
0474:  MOVWF  FE9
0476:  MOVF   FEF,W
0478:  BZ    0494
047A:  MOVLW  06
047C:  MOVWF  01
047E:  CLRF   00
0480:  DECFSZ 00,F
0482:  BRA    0480
0484:  DECFSZ 01,F
0486:  BRA    047E
0488:  MOVLW  7B
048A:  MOVWF  00
048C:  DECFSZ 00,F
048E:  BRA    048C
0490:  DECFSZ FEF,F
0492:  BRA    047A
0494:  RETURN 0
*
0538:  MOVLW  03
053A:  MOVLB  4
053C:  SUBWF  xB2,F
053E:  BNC   0554
0540:  MOVLW  04
0542:  MOVWF  FEA
0544:  MOVLW  B2
0546:  MOVWF  FE9
0548:  MOVF   FEF,W
054A:  BZ    0554
054C:  BRA    0550
054E:  BRA    0550
0550:  DECFSZ FEF,F
0552:  BRA    054E
0554:  MOVLB  0
0556:  RETURN 0
.................... #use     i2c(master,slow,sda=pin_b0,scl=pin_b1)       
*
0BD8:  MOVLW  08
0BDA:  MOVWF  01
0BDC:  MOVLW  05
0BDE:  MOVWF  00
0BE0:  DECFSZ 00,F
0BE2:  BRA    0BE0
0BE4:  BCF    F8A.1
0BE6:  BCF    F93.1
0BE8:  MOVLW  06
0BEA:  MOVWF  00
0BEC:  DECFSZ 00,F
0BEE:  BRA    0BEC
0BF0:  MOVLB  4
0BF2:  RLCF   xA6,F
0BF4:  BCF    F8A.0
0BF6:  BTFSC  FD8.0
0BF8:  BSF    F93.0
0BFA:  BTFSS  FD8.0
0BFC:  BCF    F93.0
0BFE:  BSF    F93.1
0C00:  BTFSS  F81.1
0C02:  BRA    0C00
0C04:  DECFSZ 01,F
0C06:  BRA    0C0A
0C08:  BRA    0C0E
0C0A:  MOVLB  0
0C0C:  BRA    0BDC
0C0E:  MOVLW  05
0C10:  MOVWF  00
0C12:  DECFSZ 00,F
0C14:  BRA    0C12
0C16:  BCF    F8A.1
0C18:  BCF    F93.1
0C1A:  NOP   
0C1C:  BSF    F93.0
0C1E:  MOVLW  06
0C20:  MOVWF  00
0C22:  DECFSZ 00,F
0C24:  BRA    0C22
0C26:  MOVLW  06
0C28:  MOVWF  00
0C2A:  DECFSZ 00,F
0C2C:  BRA    0C2A
0C2E:  BSF    F93.1
0C30:  BTFSS  F81.1
0C32:  BRA    0C30
0C34:  CLRF   01
0C36:  MOVLW  06
0C38:  MOVWF  00
0C3A:  DECFSZ 00,F
0C3C:  BRA    0C3A
0C3E:  BTFSC  F81.0
0C40:  BSF    01.0
0C42:  BCF    F8A.1
0C44:  BCF    F93.1
0C46:  BCF    F8A.0
0C48:  BCF    F93.0
0C4A:  MOVLB  0
0C4C:  RETURN 0
0C4E:  MOVLW  08
0C50:  MOVLB  4
0C52:  MOVWF  xA8
0C54:  MOVFF  00,4A9
0C58:  BSF    F93.0
0C5A:  MOVLW  06
0C5C:  MOVWF  00
0C5E:  DECFSZ 00,F
0C60:  BRA    0C5E
0C62:  BSF    F93.1
0C64:  BTFSS  F81.1
0C66:  BRA    0C64
0C68:  BTFSC  F81.0
0C6A:  BSF    FD8.0
0C6C:  BTFSS  F81.0
0C6E:  BCF    FD8.0
0C70:  RLCF   01,F
0C72:  MOVLW  05
0C74:  MOVWF  00
0C76:  DECFSZ 00,F
0C78:  BRA    0C76
0C7A:  BCF    F93.1
0C7C:  BCF    F8A.1
0C7E:  DECFSZ xA8,F
0C80:  BRA    0C58
0C82:  BSF    F93.0
0C84:  MOVLW  06
0C86:  MOVWF  00
0C88:  DECFSZ 00,F
0C8A:  BRA    0C88
0C8C:  BCF    F8A.0
0C8E:  MOVF   xA9,W
0C90:  BTFSS  FD8.2
0C92:  BCF    F93.0
0C94:  NOP   
0C96:  BSF    F93.1
0C98:  BTFSS  F81.1
0C9A:  BRA    0C98
0C9C:  MOVLW  05
0C9E:  MOVWF  00
0CA0:  DECFSZ 00,F
0CA2:  BRA    0CA0
0CA4:  BCF    F8A.1
0CA6:  BCF    F93.1
0CA8:  MOVLW  06
0CAA:  MOVWF  00
0CAC:  DECFSZ 00,F
0CAE:  BRA    0CAC
0CB0:  BCF    F8A.0
0CB2:  BCF    F93.0
0CB4:  MOVLB  0
0CB6:  RETURN 0
.................... #use     rs232(baud=9600, xmit=pin_c6,rcv=pin_c7)     
.................... //xxxxxxxxxxxxxxxxxxxxxxxxxxxxxxxxxxxxxxxxxxxxxxxxxxxxxxxx    
.................... //dinh nghia lai ten cac kieu du lieu cho gon 
.................... //xxxxxxxxxxxxxxxxxxxxxxxxxxxxxxxxxxxxxxxxxxxxxxxxxxxxxxxx 
.................... #define usi8  unsigned int8      
.................... #define usi16 unsigned int16                           
.................... #define usi32 unsigned int32                                                                     
.................... #define si8   signed   int8                                 
.................... #define si16  signed   int16  
.................... #define si32  signed   int32 
.................... //xxxxxxxxxxxxxxxxxxxxxxxxxxxxxxxxxxxxxxxxxxxxxxxxxxxxxxxx 
.................... //dinh nghia 1 so tu thuong dung 
.................... //xxxxxxxxxxxxxxxxxxxxxxxxxxxxxxxxxxxxxxxxxxxxxxxxxxxxxxxx 
.................... #define co_reset true 
.................... #define no_reset false  
....................  
.................... #define tt_on    1           
.................... #define tt_off   0                     
.................... #define enable   1                         
.................... #define disable  0 
.................... #define sang     1           
.................... #define tat      0   
.................... #define tat_l7d  0xff      
.................... #define cx_vn    true     //co xoa so 0 vo nghia         
.................... #define kx_vn    false    //khong xoa so 0 vo nghia           
.................... #define co_fill  true 
.................... #define no_fill  false  
.................... #define c_reset  1           
.................... #define k_reset  0                                          
.................... //xxxxxxxxxxxxxxxxxxxxxxxxxxxxxxxxxxxxxxxxxxxxxxxxxxxxxxxx 
.................... //dinh nghia ten cho 4 nut nhan  
.................... //xxxxxxxxxxxxxxxxxxxxxxxxxxxxxxxxxxxxxxxxxxxxxxxxxxxxxxxx 
.................... #ifndef bt0 
.................... #define bt0    pin_b5 
.................... #endif  
....................  
.................... #ifndef bt1     
.................... #define bt1    pin_b4 
.................... #endif  
....................                    
.................... #ifndef bt2     
.................... #define bt2    pin_b3 
.................... #endif  
....................  
.................... #ifndef bt3 
.................... #define bt3    pin_b2 
.................... #endif  
....................  
.................... #define on     bt0    //dk led don, motor  
.................... #define off    bt1 
.................... #define inv    bt2 
....................                                 
.................... #define up     bt0    //dk led don 
.................... #define mod    bt1 
.................... #define dw     bt2 
.................... #define clr    bt3 
....................  
.................... #define stop   bt1 
....................  
.................... #define on1    bt0      
.................... #define off1   bt1 
.................... #define on2    bt2        
.................... #define off2   bt3              
.................... //xxxxxxxxxxxxxxxxxxxxxxxxxxxxxxxxxxxxxxxxxxxxxxxxxxxxxxxx   
.................... //dinh nghia port giao tiep cam bien sieu am hcsr-04  
.................... //xxxxxxxxxxxxxxxxxxxxxxxxxxxxxxxxxxxxxxxxxxxxxxxxxxxxxxxx   
.................... #define trig   pin_e1            
.................... #define echo   pin_a3                  
.................... //xxxxxxxxxxxxxxxxxxxxxxxxxxxxxxxxxxxxxxxxxxxxxxxxxxxxxxxx   
.................... //dinh nghia port giao tiep CB nhiet va do am 1 day DHT11    
.................... //xxxxxxxxxxxxxxxxxxxxxxxxxxxxxxxxxxxxxxxxxxxxxxxxxxxxxxxx   
.................... #define dht11 pin_d1 
.................... //xxxxxxxxxxxxxxxxxxxxxxxxxxxxxxxxxxxxxxxxxxxxxxxxxxxxxxxx   
.................... //dinh nghia port giao tiep noi tiep 6 module 
.................... //xxxxxxxxxxxxxxxxxxxxxxxxxxxxxxxxxxxxxxxxxxxxxxxxxxxxxxxx                                        
.................... #define ssdo      pin_e2          
.................... #define ssck      pin_e0          
....................  
.................... #define rck_mtl   pin_d7 
.................... #define rck_4l7d  pin_d6           
.................... #define rck_8l7dq pin_d5         
.................... #define rck_32led pin_d4 
.................... #define rck_rlb   pin_d3              
.................... #define rck_lcd   pin_d2          
....................  
.................... #define g_all     pin_d0           
....................   
.................... //xxxxxxxxxxxxxxxxxxxxxxxxxxxxxxxxxxxxxxxxxxxxxxxxxxxxxxxx  
.................... //khai bao  module relay, triac, buzzer, dong co 
.................... //xxxxxxxxxxxxxxxxxxxxxxxxxxxxxxxxxxxxxxxxxxxxxxxxxxxxxxxx  
.................... unsigned int16 rbdc;                           
.................... #bit step_motor_enable = rbdc.0     
.................... #bit step_motor_in1    = rbdc.1     
.................... #bit step_motor_in2    = rbdc.2 
.................... #bit step_motor_in3    = rbdc.3 
.................... #bit step_motor_in4    = rbdc.4 
.................... #bit dc_enable         = rbdc.5     
.................... #bit pwrkey            = rbdc.6     
....................  
.................... #bit buzzer            = rbdc.8    //1=on,0=off 
.................... #bit triac_1           = rbdc.9    //1=on,0=off 
.................... #bit triac_2           = rbdc.10   //1=on,0=off 
.................... #bit relay_1           = rbdc.11   //0=on,1=off 
.................... #bit relay_2           = rbdc.12   //0=on,1=off       
....................  
.................... //xxxxxxxxxxxxxxxxxxxxxxxxxxxxxxxxxxxxxxxxxxxxxxxxxxxxxxxx  
.................... //Khai bao mang chua 16 ma 7 doan tu 0 den F 
.................... //xxxxxxxxxxxxxxxxxxxxxxxxxxxxxxxxxxxxxxxxxxxxxxxxxxxxxxxx   
.................... const unsigned char ma7doan[16]= { 
....................    0xc0,0xf9,0xa4,0xb0,0x99,0x92,0x82,0xf8,         
....................    0x80,0x90,0x88,0x83,0xc6,0xa1,0x86,0x8e}; 
.................... #define     maso0    0xc0 
....................  
.................... //xxxxxxxxxxxxxxxxxxxxxxxxxxxxxxxxxxxxxxxxxxxxxxxxxxxxxxxx  
.................... //ham 102: xuat 1 byte ra thanh ghi dich 
.................... //xxxxxxxxxxxxxxxxxxxxxxxxxxxxxxxxxxxxxxxxxxxxxxxxxxxxxxxx     
.................... void xuat_1byte(unsigned int8 x) 
.................... { 
....................    unsigned int8   sb;    
....................    #bit msb  = x.7;   
....................    for (sb=0;sb<8;sb++) 
*
031E:  MOVLB  4
0320:  CLRF   xBD
0322:  MOVF   xBD,W
0324:  SUBLW  07
0326:  BNC   0344
....................    {                                                  
....................       output_bit(ssdo,msb);     
0328:  BTFSC  xBC.7
032A:  BRA    0330
032C:  BCF    F8D.2
032E:  BRA    0332
0330:  BSF    F8D.2
0332:  BCF    F96.2
....................       output_low(ssck); output_high(ssck); 
0334:  BCF    F96.0
0336:  BCF    F8D.0
0338:  BCF    F96.0
033A:  BSF    F8D.0
....................       x= x<<1;          
033C:  BCF    FD8.0
033E:  RLCF   xBC,F
0340:  INCF   xBD,F
0342:  BRA    0322
....................    } 
0344:  MOVLB  0
0346:  RETURN 0
.................... }  
.................... //xxxxxxxxxxxxxxxxxxxxxxxxxxxxxxxxxxxxxxxxxxxxxxxxxxxxxxxx     
.................... //ham 103: xuat 1 word ra thanh ghi dich 
.................... //xxxxxxxxxxxxxxxxxxxxxxxxxxxxxxxxxxxxxxxxxxxxxxxxxxxxxxxx     
.................... void xuat_1word(unsigned int16 w) 
.................... {   
....................    unsigned int8 b1,b0; 
....................    b1 = w>>8; b0 = w; 
0348:  MOVFF  4A4,4A5
034C:  MOVFF  4A3,4A6
....................    xuat_1byte(b1);     
0350:  MOVFF  4A5,4BC
0354:  RCALL  031E
....................    xuat_1byte(b0); 
0356:  MOVFF  4A6,4BC
035A:  RCALL  031E
035C:  RETURN 0
.................... }    
....................                                 
.................... //xxxxxxxxxxxxxxxxxxxxxxxxxxxxxxxxxxxxxxxxxxxxxxxxxxxxxxxx      
.................... //ham 104: xoa cac module  
.................... //xxxxxxxxxxxxxxxxxxxxxxxxxxxxxxxxxxxxxxxxxxxxxxxxxxxxxxxx   
.................... void xoa_tat_6module()                           
.................... {                                                                                               
....................    xuat_1word(0);                              
035E:  MOVLB  4
0360:  CLRF   xA4
0362:  CLRF   xA3
0364:  MOVLB  0
0366:  RCALL  0348
....................    xuat_1word(0);  
0368:  MOVLB  4
036A:  CLRF   xA4
036C:  CLRF   xA3
036E:  MOVLB  0
0370:  RCALL  0348
....................    xuat_1word(0);                              
0372:  MOVLB  4
0374:  CLRF   xA4
0376:  CLRF   xA3
0378:  MOVLB  0
037A:  RCALL  0348
....................    xuat_1word(0);                                     
037C:  MOVLB  4
037E:  CLRF   xA4
0380:  CLRF   xA3
0382:  MOVLB  0
0384:  RCALL  0348
....................     
....................    output_high(rck_rlb);    
0386:  BCF    F95.3
0388:  BSF    F8C.3
....................    output_low(rck_rlb); 
038A:  BCF    F95.3
038C:  BCF    F8C.3
....................     
....................    output_high(rck_32led); 
038E:  BCF    F95.4
0390:  BSF    F8C.4
....................    output_low(rck_32led);  
0392:  BCF    F95.4
0394:  BCF    F8C.4
....................     
....................    output_high(rck_8l7dq);    
0396:  BCF    F95.5
0398:  BSF    F8C.5
....................    output_low(rck_8l7dq);    
039A:  BCF    F95.5
039C:  BCF    F8C.5
....................                                   
....................    output_high(rck_mtl);           
039E:  BCF    F95.7
03A0:  BSF    F8C.7
....................    output_low(rck_mtl);    
03A2:  BCF    F95.7
03A4:  BCF    F8C.7
....................                             
....................    output_high(rck_lcd);    
03A6:  BCF    F95.2
03A8:  BSF    F8C.2
....................    output_low(rck_lcd);       
03AA:  BCF    F95.2
03AC:  BCF    F8C.2
....................                                                                            
....................    xuat_1word(0xffff);  
03AE:  MOVLB  4
03B0:  SETF   xA4
03B2:  SETF   xA3
03B4:  MOVLB  0
03B6:  RCALL  0348
....................    xuat_1word(0xffff);  
03B8:  MOVLB  4
03BA:  SETF   xA4
03BC:  SETF   xA3
03BE:  MOVLB  0
03C0:  RCALL  0348
....................    output_high(rck_4l7d);        
03C2:  BCF    F95.6
03C4:  BSF    F8C.6
....................    output_low(rck_4l7d);                                                                       
03C6:  BCF    F95.6
03C8:  BCF    F8C.6
03CA:  GOTO   03E6 (RETURN)
.................... }              
....................  
.................... //xxxxxxxxxxxxxxxxxxxxxxxxxxxxxxxxxxxxxxxxxxxx     
.................... //ham 101: ham khoi tao cac port va ic chot 
.................... //xxxxxxxxxxxxxxxxxxxxxxxxxxxxxxxxxxxxxxxxxxxx     
.................... void set_up_port()                                   
.................... {                             
....................    set_tris_a(0xff);    set_tris_b(0x3c);                                                    
03CE:  MOVLW  FF
03D0:  MOVWF  F92
03D2:  MOVLW  3C
03D4:  MOVWF  F93
....................    set_tris_c(0xf1);    set_tris_e(0x00);                                                
03D6:  MOVLW  F1
03D8:  MOVWF  F94
03DA:  MOVLW  00
03DC:  MOVWF  F96
....................    set_tris_d(0x00);     
03DE:  MOVWF  F95
....................    output_d(0x00);  
03E0:  CLRF   F95
03E2:  CLRF   F8C
....................    xoa_tat_6module(); 
03E4:  BRA    035E
....................    port_b_pullups(0xff);           
03E6:  BCF    FF1.7
....................    rbdc=0;                
03E8:  CLRF   05
03EA:  CLRF   04
....................              
....................    setup_adc(adc_clock_div_32);         
03EC:  MOVF   FC0,W
03EE:  ANDLW  C0
03F0:  IORLW  02
03F2:  MOVWF  FC0
03F4:  BSF    FC0.7
03F6:  BSF    FC2.0
....................    setup_adc_ports(an0_to_an2|vss_vdd);  
03F8:  MOVF   FC1,W
03FA:  ANDLW  C0
03FC:  IORLW  0C
03FE:  MOVWF  FC1
....................    output_low(g_all);         
0400:  BCF    F95.0
0402:  BCF    F8C.0
0404:  GOTO   3432 (RETURN)
.................... } 
....................  //xxxxxxxxxxxxxxxxxxxxxxxxxxxxxxxxxxxxxxxxxxxxxxxxxxxxxxxx      
.................... //xuat 1 bit roi tra lai ket qua sau khi dich di 1 bit 
.................... //xxxxxxxxxxxxxxxxxxxxxxxxxxxxxxxxxxxxxxxxxxxxxxxxxxxxxxxx     
.................... unsigned  int8 xuat_1bit(usi8 bx) 
.................... {   
....................    #bit lsb = bx.0                                            
....................    output_bit(ssdo,lsb);     
....................    output_low(ssck); output_high(ssck); 
....................    bx = bx>>1;    
....................    return(bx);   
.................... }    
....................  
....................                                  
....................  
.................... #include <tv_01_4_nutnhan.c>            
.................... //xxxxxxxxxxxxxxxxxxxxxxxxxxxxxxxxxxxxxxxxxxxxxxxxxxxxxxxx 
.................... //NGUYEN DINH PHU SU PHAM KY THUAT TP HCM 
.................... //xxxxxxxxxxxxxxxxxxxxxxxxxxxxxxxxxxxxxxxxxxxxxxxxxxxxxxxx 
....................  
.................... //xxxxxxxxxxxxxxxxxxxxxxxxxxxxxxxxxxxxxxxxxxxxxxxxxxxxxxxx 
.................... //dinh nghia cac trang thai co nhan va khong nhan phim 
.................... //xxxxxxxxxxxxxxxxxxxxxxxxxxxxxxxxxxxxxxxxxxxxxxxxxxxxxxxx  
.................... #define co_nhan      1             
.................... #define khong_nhan   0            
.................... #define c_ktnp       1  //co kiem tra nha phim           
.................... #define k_ktnp       0  //khong kiem tra nha phim  
.................... // #define sole_1       false             
.................... // #define sole_2       true    
....................                                
.................... //xxxxxxxxxxxxxxxxxxxxxxxxxxxxxxxxxxxxxxxxxxxxxxxxxxxxxxxx  
.................... //chuong trinh kiem tra phim bt1 
.................... //xxxxxxxxxxxxxxxxxxxxxxxxxxxxxxxxxxxxxxxxxxxxxxxxxxxxxxxx  
.................... unsigned int16 dl_btn=0;  
.................... //xxxxxxxxxxxxxxxxxxxxxxxxxxxxxxxxxxxxxxxxxxxxxxxxxxxxxxxx 
.................... //phim bt0-cach 1: co chong doi, delay 20ms, cho nha phim 
.................... //dinh nghia them 1 so ten khac      
.................... //xxxxxxxxxxxxxxxxxxxxxxxxxxxxxxxxxxxxxxxxxxxxxxxxxxxxxxxx                        
.................... #define phim_on_c1  phim_bt0_c1     
.................... #define phim_run_c1 phim_bt0_c1  
.................... #define phim_up_c1  phim_bt0_c1        
....................  
.................... int1 phim_bt0_c1(int1 ktnp,usi16 dl)    
.................... {                     
....................    if (!input(bt0))    
....................    {         
....................       delay_ms(20);                                      
....................       if (!input(bt0)) 
....................       { 
....................          if(ktnp) while(!input(bt0)); 
....................          delay_ms(dl); 
....................          return co_nhan;       
....................       }                       
....................       return khong_nhan;    
....................    }          
....................   return khong_nhan;   
.................... }      
.................... //xxxxxxxxxxxxxxxxxxxxxxxxxxxxxxxxxxxxxxxxxxxxxxxxxxxxxxxx 
.................... //phim bt1-cach 1: co chong doi, delay 20ms, cho nha phim 
.................... //dinh nghia them 1 so ten khac       
.................... //xxxxxxxxxxxxxxxxxxxxxxxxxxxxxxxxxxxxxxxxxxxxxxxxxxxxxxxx   
.................... #define phim_off_c1   phim_bt1_c1    
.................... #define phim_mode_c1  phim_bt1_c1  
.................... #define phim_stop_c1  phim_bt1_c1  
.................... #define phim_clr_c1   phim_bt1_c1 
.................... int1 phim_bt1_c1(int1 ktnp,usi16 dl)                                                
.................... { 
....................    if(!input(bt1))    
....................    {                        
....................       delay_ms(20); 
....................       if(!input(bt1)) 
....................       { 
....................          if(ktnp) while(!input(bt1));     
....................          delay_ms(dl); 
....................          return co_nhan; 
....................       }  
....................       return khong_nhan; 
....................    } 
....................    return khong_nhan;   
.................... }        
....................       
.................... //xxxxxxxxxxxxxxxxxxxxxxxxxxxxxxxxxxxxxxxxxxxxxxxxxxxxxxxx 
.................... //phim bt2-cach 1: co chong doi, delay 20ms, cho nha phim 
.................... //dinh nghia them 1 so ten khac       
.................... //xxxxxxxxxxxxxxxxxxxxxxxxxxxxxxxxxxxxxxxxxxxxxxxxxxxxxxxx   
.................... #define phim_inv_c1 phim_bt2_c1    
.................... #define phim_dw_c1  phim_bt2_c1                   
....................  
.................... int1 phim_bt2_c1(int1 ktnp,usi16 dl)       
.................... { 
....................    if(!input(bt2))    
....................    {         
....................       delay_ms(20);                 
....................       if(!input(bt2)) 
....................       { 
....................          if(ktnp) while(!input(bt2));     
....................          delay_ms(dl); 
....................          return co_nhan; 
....................       }                                      
....................       return khong_nhan;  
....................    } 
....................    return khong_nhan;   
.................... }       
.................... //xxxxxxxxxxxxxxxxxxxxxxxxxxxxxxxxxxxxxxxxxxxxxxxxxxxxxxxx 
.................... //phim bt3-cach 1: co chong doi, delay 20ms, cho nha phim 
.................... //dinh nghia them 1 so ten khac       
.................... //xxxxxxxxxxxxxxxxxxxxxxxxxxxxxxxxxxxxxxxxxxxxxxxxxxxxxxxx      
....................  
.................... #define phim_ud_c1    phim_bt3_c1 
....................  
....................  
.................... int1 phim_bt3_c1(int1 ktnp,usi16 dl)       
.................... {                        
....................    if(!input(bt3))    
....................    {                                         
....................       delay_ms(20);                        
....................       if(!input(bt3)) 
....................       {                       
....................          if(ktnp) while(!input(bt3));     
....................          delay_ms(dl); 
....................          return co_nhan; 
....................       }  
....................       return khong_nhan;    
....................       }                        
....................    return khong_nhan;   
.................... }   
....................        
.................... //xxxxxxxxxxxxxxxxxxxxxxxxxxxxxxxxxxxxxxxxxxxxxxxxxxxxxxxx  
.................... //xxxxxxxxxxxxxxxxxxxxxxxxxxxxxxxxxxxxxxxxxxxxxxxxxxxxxxxx  
.................... //cac ham con cua cac phim nhan don theo cach 2 
.................... //xxxxxxxxxxxxxxxxxxxxxxxxxxxxxxxxxxxxxxxxxxxxxxxxxxxxxxxx  
.................... //xxxxxxxxxxxxxxxxxxxxxxxxxxxxxxxxxxxxxxxxxxxxxxxxxxxxxxxx     
....................  
.................... //xxxxxxxxxxxxxxxxxxxxxxxxxxxxxxxxxxxxxxxxxxxxxxxxxxxxxxxx   
.................... //phim bt0-cach 2: nhan so lan thuc hien la bien dl 
.................... //kiem tra neu co nhan thi tang bien dem dl_btn,delay 1ms.    
.................... //Neu bien dl_btn = dl thi reset dl_btn = 0, 
.................... //xem nhu co nhan va ket thuc.  
.................... //con lai thi xem nhu chua nhan hoac chua du thoi gian nhan 
.................... //moi chu ky thuc hien lon nhat la 1ms - khong cho nha phim  
.................... //dinh nghia them 1 so ten khac   
.................... //xxxxxxxxxxxxxxxxxxxxxxxxxxxxxxxxxxxxxxxxxxxxxxxxxxxxxxxx     
.................... #define phim_on_c2  phim_bt0_c2                     
.................... #define phim_run_c2 phim_bt0_c2       
.................... #define phim_up_c2  phim_bt0_c2   
....................  
.................... int1 phim_bt0_c2(usi16 dl)   
.................... {                       
....................    if(!input(bt0))                        
*
3000:  BSF    F93.5
3002:  BTFSC  F81.5
3004:  BRA    3046
....................    {    
....................       dl_btn++;   delay_us(500);                
3006:  INCF   06,F
3008:  BTFSC  FD8.2
300A:  INCF   07,F
300C:  MOVLW  02
300E:  MOVLB  4
3010:  MOVWF  xA5
3012:  MOVLW  F9
3014:  MOVWF  xB2
3016:  MOVLB  0
3018:  CALL   0538
301C:  MOVLB  4
301E:  DECFSZ xA5,F
3020:  BRA    3012
....................       if(dl_btn>=dl)  
3022:  MOVF   xA4,W
3024:  SUBWF  07,W
3026:  BNC   303C
3028:  BNZ   3030
302A:  MOVF   xA3,W
302C:  SUBWF  06,W
302E:  BNC   303C
....................       {   
....................          dl_btn=0; 
3030:  CLRF   07
3032:  CLRF   06
....................          return co_nhan; 
3034:  MOVLW  01
3036:  MOVWF  01
3038:  BRA    304C
....................       }      
303A:  BRA    3042
....................       else  return khong_nhan;  
303C:  MOVLW  00
303E:  MOVWF  01
3040:  BRA    304C
....................    } 
3042:  BRA    304C
3044:  MOVLB  0
....................    else  return khong_nhan;     
3046:  MOVLW  00
3048:  MOVWF  01
304A:  MOVLB  4
304C:  MOVLB  0
304E:  GOTO   319C (RETURN)
.................... }  
....................      
.................... //xxxxxxxxxxxxxxxxxxxxxxxxxxxxxxxxxxxxxxxxxxxxxxxxxxxxxxxx 
.................... //ham chong doi cach 2 cho phim bt1 
.................... //xxxxxxxxxxxxxxxxxxxxxxxxxxxxxxxxxxxxxxxxxxxxxxxxxxxxxxxx       
.................... #define phim_off_c2   phim_bt1_c2    
.................... #define phim_stop_c2  phim_bt1_c2   
.................... #define phim_mode_c2  phim_bt1_c2 
.................... #define phim_clr_c2   phim_bt3_c2 
....................  
.................... int1 phim_bt1_c2(usi16 dl) 
.................... {                       
....................    if(!input(bt1))    
....................    {            
....................       dl_btn++;  delay_us(500);   
....................       if(dl_btn >= dl)     
....................       {   
....................          dl_btn =0; 
....................          return co_nhan; 
....................       }      
....................       else return khong_nhan;  
....................    } 
....................    else return khong_nhan;     
.................... }      
....................  
.................... //xxxxxxxxxxxxxxxxxxxxxxxxxxxxxxxxxxxxxxxxxxxxxxxxxxxxxxxx 
.................... //ham chong doi cach 2 cho phim bt2 
.................... //xxxxxxxxxxxxxxxxxxxxxxxxxxxxxxxxxxxxxxxxxxxxxxxxxxxxxxxx 
.................... #define phim_inv_c2   phim_bt2_c2   
.................... #define phim_dw_c2    phim_bt2_c2   
....................  
.................... int1 phim_bt2_c2(usi16 dl) 
.................... {                       
....................    if(!input(bt2))    
....................    {                                   
....................       dl_btn++;  delay_us(500);   
....................       if(dl_btn >= dl)  
....................       {   
....................          dl_btn =0; 
....................          return co_nhan;    
....................       }      
....................       else return khong_nhan;  
....................    } 
....................    else return khong_nhan;     
.................... }                                        
.................... //xxxxxxxxxxxxxxxxxxxxxxxxxxxxxxxxxxxxxxxxxxxxxxxxxxxxxxxx 
.................... //ham chong doi cach 1 cho phim bt3 
.................... //xxxxxxxxxxxxxxxxxxxxxxxxxxxxxxxxxxxxxxxxxxxxxxxxxxxxxxxx         
.................... //#define phim_mode_c2  phim_bt3_c2   
.................... #define phim_ud_c2    phim_bt3_c2   
....................                           
.................... int1 phim_bt3_c2(usi16 dl)  
.................... {                       
....................    if(!input(bt3))     
*
30A2:  BSF    F93.2
30A4:  BTFSC  F81.2
30A6:  BRA    30E8
....................    {                          
....................       dl_btn++;    delay_us(500);                                                 
30A8:  INCF   06,F
30AA:  BTFSC  FD8.2
30AC:  INCF   07,F
30AE:  MOVLW  02
30B0:  MOVLB  4
30B2:  MOVWF  xA5
30B4:  MOVLW  F9
30B6:  MOVWF  xB2
30B8:  MOVLB  0
30BA:  CALL   0538
30BE:  MOVLB  4
30C0:  DECFSZ xA5,F
30C2:  BRA    30B4
....................       if(dl_btn >= dl)  
30C4:  MOVF   xA4,W
30C6:  SUBWF  07,W
30C8:  BNC   30DE
30CA:  BNZ   30D2
30CC:  MOVF   xA3,W
30CE:  SUBWF  06,W
30D0:  BNC   30DE
....................       {   
....................          dl_btn =0;                                  
30D2:  CLRF   07
30D4:  CLRF   06
....................          return co_nhan;  
30D6:  MOVLW  01
30D8:  MOVWF  01
30DA:  BRA    30EE
....................       }      
30DC:  BRA    30E4
....................       else return khong_nhan;  
30DE:  MOVLW  00
30E0:  MOVWF  01
30E2:  BRA    30EE
....................    } 
30E4:  BRA    30EE
30E6:  MOVLB  0
....................    else return khong_nhan;     
30E8:  MOVLW  00
30EA:  MOVWF  01
30EC:  MOVLB  4
30EE:  MOVLB  0
30F0:  GOTO   31D8 (RETURN)
.................... }            
....................  
.................... #include <tv_02_matran_phim4x4_138.c>     
.................... //xxxxxxxxxxxxxxxxxxxxxxxxxxxxxxxxxxxxxxxxxxxxxxxxxxxxxxxx 
.................... //NGUYEN DINH PHU SU PHAM KY THUAT TP HCM 
.................... //xxxxxxxxxxxxxxxxxxxxxxxxxxxxxxxxxxxxxxxxxxxxxxxxxxxxxxxx 
....................  
.................... const unsigned char maquet[4]= {0x3f,0x7f,0xbf,0xff}; 
.................... //xxxxxxxxxxxxxxxxxxxxxxxxxxxxxxxxxxxxxxxxxxxxxxxxxxxxxxxx 
.................... //ham quet phim ma tran 4x4                  
.................... //xxxxxxxxxxxxxxxxxxxxxxxxxxxxxxxxxxxxxxxxxxxxxxxxxxxxxxxx 
.................... unsigned int key_nhan()                
.................... {      
....................    unsigned int8 maphim,hang,cot;       
....................    maphim=hang=0xff; 
....................    for(cot=0;cot<4;cot++)                     
....................    {    
....................       output_b(maquet[cot]); 
....................       if     (!input(pin_b2)) {hang=3; break;} 
....................       else if(!input(pin_b3)) {hang=2; break;}        
....................       else if(!input(pin_b4)) {hang=1; break;} 
....................       else if(!input(pin_b5)) {hang=0; break;} 
....................    }           
....................    if(hang!=0xff) maphim = cot*4 + hang; 
....................    return(maphim); 
.................... }      
.................... //xxxxxxxxxxxxxxxxxxxxxxxxxxxxxxxxxxxxxxxxxxxxxxxxxxxxxxxx 
.................... //ham quet ma tran phim va chong doi tich cuc khi nhan phim 
.................... //cach 1              
.................... //xxxxxxxxxxxxxxxxxxxxxxxxxxxxxxxxxxxxxxxxxxxxxxxxxxxxxxxx                         
.................... unsigned int key_4x4_dw() 
.................... {      
....................    unsigned int8 mp1, mp2;   
....................    mp1=key_nhan();       
....................    if(mp1!=0xff)                 
....................    {   
....................       delay_ms(20);                                            
....................       mp1=key_nhan(); 
....................       do               
....................       {          
....................          delay_ms(5);  
....................          mp2=key_nhan();      
....................       }                     
....................       while(mp2==mp1);  
....................    }              
....................    return(mp1); 
.................... }  
.................... //xxxxxxxxxxxxxxxxxxxxxxxxxxxxxxxxxxxxxxxxxxxxxxxxxxxxxxxx 
.................... //ham quet ma tran phim va chong doi tich cuc khi nhan phim 
.................... //cach 2 
.................... //xxxxxxxxxxxxxxxxxxxxxxxxxxxxxxxxxxxxxxxxxxxxxxxxxxxxxxxx          
.................... unsigned int key_4x4_dw_c2(usi8 dl) 
.................... {      
....................    unsigned int8 mp;   
....................    mp=key_nhan();          
....................    if(mp!=0xff)                                    
....................    {   
....................       dl_btn++; delay_ms(1);         
....................       if(dl_btn>=dl)  
....................       {   
....................          dl_btn=0;  
....................          return mp; 
....................       }                
....................       else  return 0xff;  
....................    } 
....................    else  return 0xff;      
.................... }  
.................... //xxxxxxxxxxxxxxxxxxxxxxxxxxxxxxxxxxxxxxxxxxxxxxxxxxxxxxxx 
.................... //ham quet ma tran phim va chong doi tich cuc khi nha phim 
.................... //xxxxxxxxxxxxxxxxxxxxxxxxxxxxxxxxxxxxxxxxxxxxxxxxxxxxxxxx 
.................... unsigned int key_4x4_up() 
.................... {                     
....................    unsigned int8 mp1,mp2;   
....................    mp1=key_nhan(); 
....................    if(mp1!=0xff)    
....................    {                        
....................       if(mp2==0xff)              
....................       {                                                         
....................          delay_ms(20);   //chong doi 
....................          mp1=key_nhan(); 
....................          if(mp1!=0xff)   mp2=mp1; 
....................          return(mp1);    //phim moi                   
....................       }   
....................       else                
....................       {                                                                                                              
....................          do 
....................          {                                                     
....................             mp2=key_nhan(); 
....................             delay_ms(5);  
....................          } while(mp2!=0xff);                                                      
....................          return(mp2);     //thoat khi nha phim           
....................       }                 
....................    }            
....................    else                   
....................    { 
....................       mp2=mp1; 
....................       return(mp1);     //thoat vi khong nhan   
....................    }       
.................... } 
....................                                         
....................  
.................... #include <math.h> 
.................... //////////////////////////////////////////////////////////////////////////// 
.................... ////        (C) Copyright 1996,2011 Custom Computer Services            //// 
.................... //// This source code may only be used by licensed users of the CCS C   //// 
.................... //// compiler.  This source code may only be distributed to other       //// 
.................... //// licensed users of the CCS C compiler.  No other use, reproduction  //// 
.................... //// or distribution is permitted without written permission.           //// 
.................... //// Derivative programs created using this software in object code     //// 
.................... //// form are not restricted in any way.                                //// 
.................... //////////////////////////////////////////////////////////////////////////// 
.................... ////                                                                    //// 
.................... //// History:                                                           //// 
.................... ////  * 9/20/2001 :  Improvments are made to sin/cos code.              //// 
.................... ////                 The code now is small, much faster,                //// 
.................... ////                 and more accurate.                                 //// 
.................... ////  * 2/21/2007 :  Compiler handles & operator differently and does   //// 
.................... ////                 not return generic (int8 *) so type cast is done   //// 
.................... ////  * 6/19/2010 :  Divisions by constants converted to multiplication //// 
.................... ////                 by its inverse to improve computation speed        //// 
.................... ////  * 1/21/2011 :  Constants used for double precision math updated   //// 
.................... ////                 Updated routines include 64 bit versions of cos,   //// 
.................... ////                 asin,atan,exp,log and dependant functions          //// 
.................... ////  * 1/31/2011 :  Optimized current 32-bit float routines for cos    //// 
.................... ////                 and log function                                   //// 
.................... ////  * 6/13/2011 :  Fixed PCD overload CEIL_FLOOR functions for values //// 
.................... ////                 greater then 10000000 and less then -10000000      //// 
.................... ////                                                                    //// 
.................... //////////////////////////////////////////////////////////////////////////// 
....................  
.................... #ifndef MATH_H 
.................... #define MATH_H 
....................  
.................... #ifdef PI 
.................... #undef  PI 
.................... #endif 
.................... #define PI     3.1415926535897932 
....................  
....................  
.................... #define SQRT2  1.4142135623730950 
....................  
.................... //float const ps[4] = {5.9304945, 21.125224, 8.9403076, 0.29730279}; 
.................... //float const qs[4] = {1.0000000, 15.035723, 17.764134, 2.4934718}; 
....................  
.................... ///////////////////////////// Round Functions ////////////////////////////// 
....................  
.................... float32 CEIL_FLOOR(float32 x, unsigned int8 n) 
.................... { 
....................    float32 y, res; 
....................    unsigned int16 l; 
....................    int1 s; 
....................  
....................    s = 0; 
....................    y = x; 
....................  
....................    if (x < 0) 
....................    { 
....................       s = 1; 
....................       y = -y; 
....................    } 
....................  
....................    if (y <= 32768.0) 
....................       res = (float32)(unsigned int16)y; 
....................  
....................  else if (y < 10000000.0) 
....................    {  
....................       l = (unsigned int16)(y*0.000030517578125); 
....................       y = 32768.0*(y*0.000030517578125 - (float32)l); 
....................       res = 32768.0*(float32)l; 
....................       res += (float32)(unsigned int16)y; 
....................    } 
....................  
....................  else 
....................   res = y; 
....................  
....................  y = y - (float32)(unsigned int16)y; 
....................  
....................  if (s) 
....................   res = -res; 
....................  
....................  if (y != 0) 
....................  { 
....................   if (s == 1 && n == 0) 
....................    res -= 1.0; 
....................  
....................   if (s == 0 && n == 1) 
....................    res += 1.0; 
....................  } 
....................  if (x == 0) 
....................     res = 0; 
....................  
....................  return (res); 
.................... } 
....................  
.................... // Overloaded Functions to take care for new Data types in PCD 
.................... // Overloaded function CEIL_FLOOR() for data type - Float48 
.................... #if defined(__PCD__) 
.................... float48 CEIL_FLOOR(float48 x, unsigned int8 n) 
.................... { 
....................    float48 y, res; 
....................    unsigned int32 l; 
....................    int1 s; 
....................  
....................    s = 0; 
....................    y = x; 
....................  
....................    if (x < 0) 
....................    { 
....................       s = 1; 
....................       y = -y; 
....................    } 
....................  
....................    if (y <= 32768.0) 
....................       res = (float48)(unsigned int16)y; 
....................  
....................    else if (y < 549755813888.0) 
....................    { 
....................       l = (unsigned int32)(y*0.000030517578125); 
....................       y = 32768.0*(y*0.000030517578125 - (float48)l); 
....................       res = 32768.0*(float48)l; 
....................       res += (float48)(unsigned int16)y; 
....................    } 
....................    else 
....................    {   
....................       res = y; 
....................       y = 0.0; 
....................    } 
....................     
....................    if(y != 0) 
....................       y = y - (float48)(unsigned int16)y; 
....................  
....................    if (s) 
....................       res = -res; 
....................  
....................    if (y != 0) 
....................    { 
....................       if (s == 1 && n == 0) 
....................          res -= 1.0; 
....................  
....................       if (s == 0 && n == 1) 
....................          res += 1.0; 
....................    } 
....................    if (x == 0) 
....................       res = 0; 
....................  
....................    return (res); 
.................... } 
....................  
....................  
.................... // Overloaded function CEIL_FLOOR() for data type - Float64 
.................... float64 CEIL_FLOOR(float64 x, unsigned int8 n) 
.................... { 
....................    float64 y, res; 
....................    int64 l; 
....................    int1 s; 
....................  
....................    s = 0; 
....................    y = x; 
....................  
....................    if (x < 0) 
....................    { 
....................       s = 1; 
....................       y = -y; 
....................    } 
....................  
....................    if (y <= 32768.0) 
....................       res = (float64)(unsigned int16)y; 
....................    else if (y < 4503599627370496.0) 
....................    { 
....................       l = (int64)(y*0.000030517578125); 
....................       y = 32768.0*(y*0.000030517578125 - (float64)l); 
....................       res = 32768.0*(float64)l; 
....................       res += (float64)(unsigned int16)y; 
....................    } 
....................    else 
....................    { 
....................       res = y; 
....................       y = 0.0; 
....................    } 
....................     
....................    if(y != 0) 
....................       y = y - (float64)(unsigned int16)y; 
....................  
....................    if (s) 
....................       res = -res; 
....................  
....................    if (y != 0) 
....................    { 
....................       if (s == 1 && n == 0) 
....................          res -= 1.0; 
....................  
....................       if (s == 0 && n == 1) 
....................          res += 1.0; 
....................    } 
....................     
....................    if (x == 0) 
....................       res = 0; 
....................  
....................    return (res); 
.................... } 
.................... #endif 
....................  
.................... //////////////////////////////////////////////////////////////////////////// 
.................... //   float floor(float x) 
.................... //////////////////////////////////////////////////////////////////////////// 
.................... // Description : rounds down the number x. 
.................... // Date : N/A 
.................... // 
.................... float32 floor(float32 x) 
.................... { 
....................    return CEIL_FLOOR(x,0); 
.................... } 
.................... // Following 2 functions are overloaded functions of floor() for PCD 
.................... // Overloaded function floor() for data type - Float48 
.................... #if defined(__PCD__) 
.................... float48 floor(float48 x) 
.................... { 
....................    return CEIL_FLOOR(x, 0); 
.................... } 
....................  
.................... // Overloaded function floor() for data type - Float64 
.................... float64 floor(float64 x) 
.................... { 
....................    return CEIL_FLOOR(x, 0); 
.................... } 
.................... #endif 
....................  
....................  
.................... //////////////////////////////////////////////////////////////////////////// 
.................... //   float ceil(float x) 
.................... //////////////////////////////////////////////////////////////////////////// 
.................... // Description : rounds up the number x. 
.................... // Date : N/A 
.................... // 
.................... float32 ceil(float32 x) 
.................... { 
....................    return CEIL_FLOOR(x, 1); 
.................... } 
.................... // Following 2 functions are overloaded functions of ceil() for PCD 
.................... // Overloaded function ceil() for data type - Float48 
.................... #if defined(__PCD__) 
.................... float48 ceil(float48 x) 
.................... { 
....................    return CEIL_FLOOR(x, 1); 
.................... } 
....................  
.................... // Overloaded function ceil() for data type - Float64 
.................... float64 ceil(float64 x) 
.................... { 
....................    return CEIL_FLOOR(x, 1); 
.................... } 
.................... #endif 
....................  
....................  //////////////////////////////////////////////////////////////////////////// 
.................... //   float fabs(float x) 
.................... //////////////////////////////////////////////////////////////////////////// 
.................... // Description : Computes the absolute value of floating point number x 
.................... // Returns : returns the absolute value of x 
.................... // Date : N/A 
.................... // 
.................... #define fabs abs 
....................  
.................... //////////////////////////////////////////////////////////////////////////// 
.................... //   float fmod(float x) 
.................... //////////////////////////////////////////////////////////////////////////// 
.................... // Description : Computes the floating point remainder of x/y 
.................... // Returns : returns the value of x= i*y, for some integer i such that, if y 
.................... // is non zero, the result has the same isgn of x na dmagnitude less than the 
.................... // magnitude of y. If y is zero then a domain error occurs. 
.................... // Date : N/A 
.................... // 
....................  
.................... float fmod(float32 x,float32 y) 
.................... { 
....................    float32 i; 
....................    if (y!=0.0) 
....................    { 
....................       i=(x/y < 0.0)? ceil(x/y): floor(x/y); 
....................       return(x-(i*y)); 
....................    } 
....................    else 
....................    { 
....................    #ifdef _ERRNO 
....................    { 
....................       errno=EDOM; 
....................    } 
....................    #endif 
....................    } 
.................... } 
.................... //Overloaded function for fmod() for PCD 
.................... // Overloaded function fmod() for data type - Float48 
.................... #if defined(__PCD__) 
.................... float48 fmod(float48 x,float48 y) 
.................... { 
....................    float48 i; 
....................    if (y!=0.0) 
....................    { 
....................       i=(x/y < 0.0)? ceil(x/y): floor(x/y); 
....................       return(x-(i*y)); 
....................    } 
....................    else 
....................    { 
....................    #ifdef _ERRNO 
....................    { 
....................       errno=EDOM; 
....................    } 
....................    #endif 
....................    } 
.................... } 
.................... // Overloaded function fmod() for data type - Float64 
.................... float64 fmod(float64 x,float64 y) 
.................... { 
....................    float64 i; 
....................    if (y!=0.0) 
....................    { 
....................       i=(x/y < 0.0)? ceil(x/y): floor(x/y); 
....................       return(x-(i*y)); 
....................    } 
....................    else 
....................    { 
....................    #ifdef _ERRNO 
....................    { 
....................       errno=EDOM; 
....................    } 
....................    #endif 
....................    } 
.................... } 
.................... #endif 
.................... //////////////////// Exponential and logarithmic functions //////////////////// 
.................... //////////////////////////////////////////////////////////////////////////// 
.................... //   float exp(float x) 
.................... //////////////////////////////////////////////////////////////////////////// 
.................... // Description : returns the value (e^x) 
.................... // Date : N/A 
.................... // 
.................... #define LN2 0.6931471805599453 
.................... #define LN2_INV 1.4426950408889634073 
....................  
.................... float const pe[6] = {0.000207455774, 0.00127100575, 0.00965065093, 
....................                      0.0554965651,  0.240227138,  0.693147172}; 
....................  
....................  
.................... float32 exp(float32 x) 
.................... { 
....................    float32 y, res, r; 
....................    #if defined(__PCD__) 
....................    int8 data1; 
....................    #endif 
....................    signed int8 n; 
....................    int1 s; 
....................    #ifdef _ERRNO 
....................    if(x > 88.722838) 
....................    { 
....................       errno=ERANGE; 
....................       return(0); 
....................    } 
....................    #endif 
....................    n = (signed int16)(x*LN2_INV); 
....................    s = 0; 
....................    y = x; 
....................  
....................    if (x < 0) 
....................    { 
....................       s = 1; 
....................       n = -n; 
....................       y = -y; 
....................    } 
....................  
....................    res = 0.0; 
.................... #if !defined(__PCD__) 
....................    *((unsigned int8 *)(&res)) = n + 0x7F; 
.................... #endif 
....................  
.................... #if defined(__PCD__)  // Takes care of IEEE format for PCD 
....................    data1 = n+0x7F; 
....................    if(bit_test(data1,0)) 
....................    bit_set(*(((unsigned int8 *)(&res)+2)),7); 
....................    rotate_right(&data1,1); 
....................    bit_clear(data1,7); 
....................    *(((unsigned int8 *)(&res)+3)) = data1; 
.................... #endif 
....................  
....................    y = y*LN2_INV - (float32)n; 
....................  
....................    r = pe[0]*y + pe[1]; 
....................    r = r*y + pe[2]; 
....................    r = r*y + pe[3]; 
....................    r = r*y + pe[4]; 
....................    r = r*y + pe[5]; 
....................  
....................    res = res*(1.0 + y*r); 
....................  
....................    if (s) 
....................       res = 1.0/res; 
....................    return(res); 
.................... } 
....................  
....................  
.................... //Overloaded function for exp() for PCD 
.................... // Overloaded function exp() for data type - Float48 
.................... #if defined(__PCD__) 
.................... float48 exp(float48 x) 
.................... { 
....................    float48 y, res, r; 
....................    int8 data1; 
....................    signed int8 n; 
....................    int1 s; 
....................    #ifdef _ERRNO 
....................    if(x > 88.722838) 
....................    { 
....................       errno=ERANGE; 
....................       return(0); 
....................    } 
....................    #endif 
....................    n = (signed int16)(x*LN2_INV); 
....................    s = 0; 
....................    y = x; 
....................  
....................    if (x < 0) 
....................    { 
....................       s = 1; 
....................       n = -n; 
....................       y = -y; 
....................    } 
....................  
....................    res = 0.0; 
....................  
....................    data1 = n+0x7F; 
....................    if(bit_test(data1,0)) 
....................    bit_set(*(((unsigned int8 *)(&res)+4)),7); 
....................    rotate_right(&data1,1); 
....................    bit_clear(data1,7); 
....................    *(((unsigned int8 *)(&res)+5)) = data1; 
....................  
....................    y = y*LN2_INV - (float48)n; 
....................  
....................    r = pe[0]*y + pe[1]; 
....................    r = r*y + pe[2]; 
....................    r = r*y + pe[3]; 
....................    r = r*y + pe[4]; 
....................    r = r*y + pe[5]; 
....................  
....................    res = res*(1.0 + y*r); 
....................  
....................    if (s) 
....................       res = 1.0/res; 
....................    return(res); 
.................... } 
....................  
.................... // Overloaded function exp() for data type - Float64 
.................... float64 const pe_64[12] ={9.30741400474913e-011,-4.28655416283316e-011, 
....................                           8.71486547014137e-009,9.84458531538385e-008, 
....................                           1.32588296983536e-006,1.52489283823016e-005, 
....................                           0.000154037598423921,0.00133335487036216, 
....................                           0.00961812936407326,0.0555041086222122, 
....................                           0.240226506962827,0.693147180559823}; 
....................  
.................... float64 exp(float64 x) 
.................... { 
....................    float64 y, res, r; 
....................    unsigned int16 data1, data2; 
....................    unsigned int16 *p; 
....................    signed int16 n; 
....................    int1 s; 
....................    #ifdef _ERRNO 
....................    if(x > 709.7827128) 
....................    { 
....................       errno=ERANGE; 
....................       return(0); 
....................    } 
....................    #endif 
....................    y = x*LN2_INV; 
....................    n = (signed int16)y; 
....................    s = 0; 
....................    y = x; 
....................  
....................    if (x < 0) 
....................    { 
....................       s = 1; 
....................       n = -n; 
....................       y = -y; 
....................    } 
....................  
....................    res = 0.0; 
....................  
.................... #if !defined(__PCD__) 
....................    *((unsigned int16 *)(&res)) = n + 0x7F; 
.................... #endif 
....................    p= (((unsigned int16 *)(&res))+3); 
....................    data1 = *p; 
....................    data2 = *p;    
....................    data1 = n + 0x3FF; 
....................    data1 = data1 <<4; 
....................    if(bit_test(data2,15)) 
....................    bit_set(data1,15); 
....................    data2 = data2 & 0x000F; 
....................    data1 ^= data2; 
....................  
....................    *(((unsigned int16 *)(&res)+3)) = data1; 
....................  
....................  
....................    y = y*LN2_INV - (float64)n; 
....................  
....................    r = pe_64[0]*y + pe_64[1]; 
....................    r = r*y + pe_64[2]; 
....................    r = r*y + pe_64[3]; 
....................    r = r*y + pe_64[4]; 
....................    r = r*y + pe_64[5]; 
....................    r = r*y + pe_64[6]; 
....................    r = r*y + pe_64[7]; 
....................    r = r*y + pe_64[8]; 
....................    r = r*y + pe_64[9]; 
....................    r = r*y + pe_64[10]; 
....................    r = r*y + pe_64[11]; 
....................     
....................    res = res*(1.0 + y*r); 
....................  
....................    if (s) 
....................       res = 1.0/res; 
....................    return(res); 
.................... } 
.................... #ENDIF 
....................  
....................  
.................... /************************************************************/ 
....................  
.................... float32 const pl[4] = {-1.080310025160955, 1.999999947089217}; 
.................... float32 const ql[4] = {0.091284365719509, -0.873491916557671}; 
....................  
.................... //////////////////////////////////////////////////////////////////////////// 
.................... //   float log(float x) 
.................... //////////////////////////////////////////////////////////////////////////// 
.................... // Description : returns the the natural log of x 
.................... // Date : N/A 
.................... // 
.................... float32 log(float32 x) 
.................... { 
....................    float32 y, res, r, y2; 
....................    #if defined(__PCD__) 
....................    unsigned int8  data1,data2; 
....................    #endif 
....................    signed int8 n; 
....................    #ifdef _ERRNO 
....................    if(x <0) 
....................    { 
....................       errno=EDOM; 
....................    } 
....................    if(x ==0) 
....................    { 
....................       errno=ERANGE; 
....................       return(0); 
....................    } 
....................    #endif 
....................    y = x; 
....................  
....................    if (y != 1.0) 
....................    { 
.................... #if !defined(__PCD__) 
....................     *((unsigned int8 *)(&y)) = 0x7E;  
.................... #endif 
....................  
.................... #if defined(__PCD__) // Takes care of IEEE format 
....................    data2 = *(((unsigned int8 *)(&y))+3); 
....................    *(((unsigned int8 *)(&y))+3) = 0x3F; 
....................    data1 = *(((unsigned int8 *)(&y))+2); 
....................    bit_clear(data1,7); 
....................    *(((unsigned int8 *)(&y))+2) = data1; 
....................    if(bit_test(data2,7)) 
....................      bit_set(*(((unsigned int8 *)(&y))+3),7); 
.................... #endif 
....................  
....................       y = (y - 1.0)/(y + 1.0); 
....................  
....................       y2=y*y; 
....................  
....................       res = pl[0]*y2 + pl[1]; 
....................  
....................       r = ql[0]*y2 + ql[1]; 
....................       r = r*y2 + 1.0; 
....................  
....................       res = y*res/r; 
.................... #if !defined(__PCD__) 
....................       n = *((unsigned int8 *)(&x)) - 0x7E; 
.................... #endif 
.................... #if defined(__PCD__)  
....................     data1 = *(((unsigned int8 *)(&x)+3)); 
....................     rotate_left(&data1,1); 
....................     data2 = *(((unsigned int8 *)(&x)+2)); 
....................     if(bit_test (data2,7)) 
....................       bit_set(data1,0); 
....................     n = data1 - 0x7E; 
.................... #endif 
....................  
....................       if (n<0)  
....................          r = -(float32)-n; 
....................       else 
....................          r = (float32)n; 
....................  
....................       res += r*LN2; 
....................    } 
....................  
....................    else 
....................       res = 0.0; 
....................  
....................    return(res); 
.................... } 
....................  
.................... //Overloaded function for log() for PCD 
.................... // Overloaded function log() for data type - Float48 
.................... #if defined(__PCD__) 
.................... // Overloaded function log() for data type - float64 
.................... float64 const pl_64[4] = {-0.145694052150681, 1.365485300000370, 
....................                           -3.120535668274329, 2.000000000000000}; 
....................  
.................... float64 const ql_64[4] = {0.006047500465908, -0.208298281937234, 
....................                           1.113943039156721, -1.893601167470470}; 
....................  
.................... float48 log(float48 x) 
.................... { 
....................    float48 y, res, r, y2; 
....................    unsigned int8  data1,data2; 
....................    signed int8 n; 
.................... #ifdef _ERRNO 
....................    if(x <0) 
....................    { 
....................       errno=EDOM; 
....................    } 
....................    if(x ==0) 
....................    { 
....................       errno=ERANGE; 
....................       return(0); 
....................    } 
.................... #endif 
....................    y = x; 
....................  
....................    if (y != 1.0) 
....................    { 
....................  
.................... #if !defined(__PCD__) 
....................       *((unsigned int8 *)(&y)) = 0x7E;  
.................... #endif 
....................       data2 = *(((unsigned int8 *)(&y))+5); 
....................       *(((unsigned int8 *)(&y))+5) = 0x3F; 
....................       data1 = *(((unsigned int8 *)(&y))+4); 
....................       bit_clear(data1,7); 
....................       *(((unsigned int8 *)(&y))+4) = data1; 
....................  
....................       if(bit_test(data2,7)) 
....................       bit_set(*(((unsigned int8 *)(&y))+4),7); 
....................       y = (y - 1.0)/(y + 1.0); 
....................  
....................       y2=y*y; 
....................  
....................       res = pl_64[0]*y2 + pl_64[1]; 
....................       res = res*y2 + pl_64[2]; 
....................       res = res*y2 + pl_64[3]; 
....................  
....................       r = ql_64[0]*y2 + ql_64[1]; 
....................       r = r*y2 + ql_64[2]; 
....................       r = r*y2 + ql_64[3]; 
....................       r = r*y2 + 1.0;  
....................       res = y*res/r; 
....................  
....................       data1 = *(((unsigned int8 *)(&x)+5)); 
....................       rotate_left(&data1,1); 
....................       data2 = *(((unsigned int8 *)(&x)+4)); 
....................       if(bit_test (data2,7)) 
....................       bit_set(data1,0); 
....................        
....................       n = data1 - 0x7E; 
....................  
....................       if (n<0) 
....................       r = -(float48)-n; 
....................       else 
....................       r = (float48)n; 
....................  
....................       res += r*LN2; 
....................    } 
....................  
....................    else 
....................    res = 0.0; 
....................  
....................    return(res); 
.................... } 
....................  
.................... float64 log(float64 x) 
.................... { 
....................    float64 y, res, r, y2; 
....................    unsigned int16  data1,data2; 
....................    unsigned int16 *p; 
....................    signed int16 n; 
....................    #ifdef _ERRNO 
....................    if(x <0) 
....................    { 
....................       errno=EDOM; 
....................    } 
....................    if(x ==0) 
....................    { 
....................       errno=ERANGE; 
....................       return(0); 
....................    } 
....................    #endif 
....................    y = x; 
....................  
....................    if (y != 1.0) 
....................    { 
....................    #if !defined(__PCD__) 
....................        *((unsigned int8 *)(&y)) = 0x7E;  
....................    #endif 
....................       p= (((unsigned int16 *)(&y))+3); 
....................       data1 = *p; 
....................       data2 = *p; 
....................       data1 = 0x3FE; 
....................       data1 = data1 <<4; 
....................       if(bit_test (data2,15)) 
....................          bit_set(data1,15); 
....................       data2 = data2 & 0x000F; 
....................       data1 ^=data2; 
....................  
....................       *p = data1; 
....................  
....................       y = (y - 1.0)/(y + 1.0); 
....................  
....................       y2=y*y; 
....................  
....................       res = pl_64[0]*y2 + pl_64[1]; 
....................       res = res*y2 + pl_64[2]; 
....................       res = res*y2 + pl_64[3]; 
....................  
....................       r = ql_64[0]*y2 + ql_64[1]; 
....................       r = r*y2 + ql_64[2]; 
....................       r = r*y2 + ql_64[3]; 
....................       r = r*y2 + 1.0; 
....................  
....................       res = y*res/r; 
....................   
....................       p= (((unsigned int16 *)(&x))+3); 
....................       data1 = *p; 
....................       bit_clear(data1,15); 
....................       data1 = data1 >>4;     
....................       n = data1 - 0x3FE; 
....................  
....................  
....................       if (n<0) 
....................          r = -(float64)-n; 
....................       else 
....................          r = (float64)n; 
....................  
....................       res += r*LN2; 
....................    } 
....................  
....................    else 
....................       res = 0.0; 
....................  
....................    return(res); 
.................... } 
.................... #endif 
....................  
....................  
.................... #define LN10 2.3025850929940456 
.................... #define LN10_INV 0.4342944819032518276 
....................  
.................... //////////////////////////////////////////////////////////////////////////// 
.................... //   float log10(float x) 
.................... //////////////////////////////////////////////////////////////////////////// 
.................... // Description : returns the the log base 10 of x 
.................... // Date : N/A 
.................... // 
.................... float32 log10(float32 x) 
.................... { 
....................    float32 r; 
....................  
....................    r = log(x); 
....................    r = r*LN10_INV; 
....................    return(r); 
.................... } 
....................  
.................... //Overloaded functions for log10() for PCD 
.................... // Overloaded function log10() for data type - Float48 
.................... #if defined(__PCD__) 
.................... float48 log10(float48 x) 
.................... { 
....................    float48 r; 
....................  
....................    r = log(x); 
....................    r = r*LN10_INV; 
....................    return(r); 
.................... } 
....................  
.................... // Overloaded function log10() for data type - Float64 
.................... float64 log10(float64 x) 
.................... { 
....................    float64 r; 
....................  
....................    r = log(x); 
....................    r = r*LN10_INV; 
....................    return(r); 
.................... } 
.................... #endif 
.................... //////////////////////////////////////////////////////////////////////////// 
.................... //   float modf(float x) 
.................... //////////////////////////////////////////////////////////////////////////// 
.................... // Description :breaks the argument value int integral and fractional parts, 
.................... // ach of which have the same sign as the argument.  It stores the integral part 
.................... // as a float in the object pointed to by the iptr 
.................... // Returns : returns the signed fractional part of value. 
.................... // Date : N/A 
.................... // 
....................  
.................... float32 modf(float32 value,float32 *iptr) 
.................... { 
....................    *iptr=(value < 0.0)? ceil(value): floor(value); 
....................    return(value - *iptr); 
.................... } 
.................... //Overloaded functions for modf() for PCD 
.................... // Overloaded function modf() for data type - Float48 
.................... #if defined(__PCD__) 
.................... float48 modf(float48 value,float48 *iptr) 
.................... { 
....................    *iptr=(value < 0.0)? ceil(value): floor(value); 
....................    return(value - *iptr); 
.................... } 
.................... // Overloaded function modf() for data type - Float64 
.................... float64 modf(float64 value,float64 *iptr) 
.................... { 
....................    *iptr=(value < 0.0)? ceil(value): floor(value); 
....................    return(value - *iptr); 
.................... } 
.................... #endif 
....................  
.................... //////////////////////////////////////////////////////////////////////////// 
.................... //   float pwr(float x,float y) 
.................... //////////////////////////////////////////////////////////////////////////// 
.................... // Description : returns the value (x^y) 
.................... // Date : N/A 
.................... // Note : 0 is returned when the function will generate an imaginary number 
.................... // 
.................... float32 pwr(float32 x,float32 y) 
.................... { 
....................    if(0 > x && fmod(y, 1) == 0) { 
....................       if(fmod(y, 2) == 0) { 
....................          return (exp(log(-x) * y)); 
....................       } else { 
....................          return (-exp(log(-x) * y)); 
....................       } 
....................    } else if(0 > x && fmod(y, 1) != 0) { 
....................       return 0; 
....................    } else { 
....................       if(x != 0 || 0 >= y) { 
....................          return (exp(log(x) * y)); 
....................       } 
....................    } 
.................... } 
.................... //Overloaded functions for pwr() for PCD 
.................... // Overloaded function pwr() for data type - Float48 
.................... #if defined(__PCD__) 
.................... float48 pwr(float48 x,float48 y) 
.................... { 
....................    if(0 > x && fmod(y, 1) == 0) { 
....................       if(fmod(y, 2) == 0) { 
....................          return (exp(log(-x) * y)); 
....................       } else { 
....................          return (-exp(log(-x) * y)); 
....................       } 
....................    } else if(0 > x && fmod(y, 1) != 0) { 
....................       return 0; 
....................    } else { 
....................       if(x != 0 || 0 >= y) { 
....................          return (exp(log(x) * y)); 
....................       } 
....................    } 
.................... } 
.................... // Overloaded function pwr() for data type - Float64 
.................... float64 pwr(float64 x,float64 y) 
.................... { 
....................    if(0 > x && fmod(y, 1) == 0) { 
....................       if(fmod(y, 2) == 0) { 
....................          return (exp(log(-x) * y)); 
....................       } else { 
....................          return (-exp(log(-x) * y)); 
....................       } 
....................    } else if(0 > x && fmod(y, 1) != 0) { 
....................       return 0; 
....................    } else { 
....................       if(x != 0 || 0 >= y) { 
....................          return (exp(log(x) * y)); 
....................       } 
....................    } 
.................... } 
.................... #endif 
....................  
.................... //////////////////// Power functions //////////////////// 
....................  
.................... //////////////////////////////////////////////////////////////////////////// 
.................... //   float pow(float x,float y) 
.................... //////////////////////////////////////////////////////////////////////////// 
.................... // Description : returns the value (x^y) 
.................... // Date : N/A 
.................... // Note : 0 is returned when the function will generate an imaginary number 
.................... // 
.................... float32 pow(float32 x,float32 y) 
.................... { 
....................    if(0 > x && fmod(y, 1) == 0) { 
....................       if(fmod(y, 2) == 0) { 
....................          return (exp(log(-x) * y)); 
....................       } else { 
....................          return (-exp(log(-x) * y)); 
....................       } 
....................    } else if(0 > x && fmod(y, 1) != 0) { 
....................       return 0; 
....................    } else { 
....................       if(x != 0 || 0 >= y) { 
....................          return (exp(log(x) * y)); 
....................       } 
....................    } 
.................... } 
.................... //Overloaded functions for pow() for PCD 
.................... // Overloaded function for pow() data type - Float48 
.................... #if defined(__PCD__) 
.................... float48 pow(float48 x,float48 y) 
.................... { 
....................    if(0 > x && fmod(y, 1) == 0) { 
....................       if(fmod(y, 2) == 0) { 
....................          return (exp(log(-x) * y)); 
....................       } else { 
....................          return (-exp(log(-x) * y)); 
....................       } 
....................    } else if(0 > x && fmod(y, 1) != 0) { 
....................       return 0; 
....................    } else { 
....................       if(x != 0 || 0 >= y) { 
....................          return (exp(log(x) * y)); 
....................       } 
....................    } 
.................... } 
....................  
.................... // Overloaded function pow() for data type - Float64 
.................... float64 pow(float64 x,float64 y) 
.................... { 
....................    if(0 > x && fmod(y, 1) == 0) { 
....................       if(fmod(y, 2) == 0) { 
....................          return (exp(log(-x) * y)); 
....................       } else { 
....................          return (-exp(log(-x) * y)); 
....................       } 
....................    } else if(0 > x && fmod(y, 1) != 0) { 
....................       return 0; 
....................    } else { 
....................       if(x != 0 || 0 >= y) { 
....................          return (exp(log(x) * y)); 
....................       } 
....................    } 
.................... } 
.................... #endif 
....................  
.................... //////////////////////////////////////////////////////////////////////////// 
.................... //   float sqrt(float x) 
.................... //////////////////////////////////////////////////////////////////////////// 
.................... // Description : returns the square root of x 
.................... // Date : N/A 
.................... // 
.................... float32 sqrt(float32 x) 
.................... { 
....................    float32 y, res; 
....................    #if defined(__PCD__) 
....................    unsigned int16 data1,data2; 
....................    #endif 
....................    unsigned int8 *p; 
....................  
....................    #ifdef _ERRNO 
....................    if(x < 0) 
....................    { 
....................       errno=EDOM; 
....................    } 
....................    #endif 
....................  
....................    if( x<=0.0) 
....................       return(0.0); 
....................  
....................    y=x; 
....................     
....................    #if !defined(__PCD__) 
....................     p=&y; 
....................    (*p)=(unsigned int8)((((unsigned int16)(*p)) + 127) >> 1); 
....................    #endif 
....................     
....................    #if defined(__PCD__) 
....................     p = (((unsigned int8 *)(&y))+3); 
....................     data1 = *(((unsigned int8 *)(&y))+3); 
....................     data2 = *(((unsigned int8 *)(&y))+2); 
....................     rotate_left(&data1,1);     
....................     if(bit_test(data2,7))     
....................        bit_set(data1,0);     
....................     data1 = ((data1+127) >>1); 
....................     bit_clear(data2,7); 
....................     if(bit_test(data1,0)) 
....................        bit_set(data2,7); 
....................     data1 = data1 >>1; 
....................     *(((unsigned int8 *)(&y))+3) = data1; 
....................     *(((unsigned int8 *)(&y))+2) = data2; 
....................      
....................   #endif 
....................  
....................    do { 
....................       res=y; 
....................       y+=(x/y); 
....................  
....................       #if !defined(__PCD__) 
....................      (*p)--; 
....................    #endif 
....................     
....................    #if defined(__PCD__) 
....................     data1 = *(((unsigned int8 *)(&y))+3); 
....................     data2 = *(((unsigned int8 *)(&y))+2); 
....................     rotate_left(&data1,1); 
....................     if(bit_test(data2,7)) 
....................        bit_set(data1,0);     
....................     data1--; 
....................     bit_clear(data2,7); 
....................     if(bit_test(data1,0)) 
....................        bit_set(data2,7); 
....................     data1 = data1 >>1; 
....................     *(((unsigned int8 *)(&y))+3) = data1; 
....................     *(((unsigned int8 *)(&y))+2) = data2; 
....................      
....................   #endif 
....................    } while(res != y); 
....................  
....................    return(res); 
.................... } 
.................... //Overloaded functions for sqrt() for PCD 
.................... // Overloaded function sqrt() for data type - Float48 
.................... #if defined(__PCD__) 
.................... float48 sqrt(float48 x) 
.................... { 
....................    float48 y, res; 
....................    unsigned int16 data1,data2; 
....................    unsigned int8 *p; 
....................  
....................    #ifdef _ERRNO 
....................    if(x < 0) 
....................    { 
....................       errno=EDOM; 
....................    } 
....................    #endif 
....................  
....................    if( x<=0.0) 
....................       return(0.0); 
....................  
....................    y=x; 
....................     
....................    #if !defined(__PCD__) 
....................     p=&y; 
....................    (*p)=(unsigned int8)((((unsigned int16)(*p)) + 127) >> 1); 
....................    #endif 
....................     
....................    #if defined(__PCD__) 
....................     p = (((unsigned int8 *)(&y))+5); 
....................     data1 = *(((unsigned int8 *)(&y))+5); 
....................     data2 = *(((unsigned int8 *)(&y))+4); 
....................     rotate_left(&data1,1); 
....................     if(bit_test(data2,7)) 
....................        bit_set(data1,0);     
....................     data1 = ((data1+127) >>1); 
....................     bit_clear(data2,7); 
....................     if(bit_test(data1,0)) 
....................        bit_set(data2,7); 
....................     data1 = data1 >>1; 
....................     *(((unsigned int8 *)(&y))+5) = data1; 
....................     *(((unsigned int8 *)(&y))+4) = data2; 
....................      
....................   #endif 
....................  
....................    do { 
....................       res=y; 
....................       y+=(x/y); 
....................  
....................       #if !defined(__PCD__) 
....................      (*p)--; 
....................    #endif 
....................     
....................     data1 = *(((unsigned int8 *)(&y))+5); 
....................     data2 = *(((unsigned int8 *)(&y))+4); 
....................     rotate_left(&data1,1); 
....................     if(bit_test(data2,7)) 
....................        bit_set(data1,0);     
....................     data1--; 
....................     bit_clear(data2,7); 
....................     if(bit_test(data1,0)) 
....................        bit_set(data2,7); 
....................     data1 = data1 >>1; 
....................     *(((unsigned int8 *)(&y))+5) = data1; 
....................     *(((unsigned int8 *)(&y))+4) = data2; 
....................      
....................    } while(res != y); 
....................  
....................    return(res); 
.................... } 
....................  
.................... // Overloaded function sqrt() for data type - Float64 
.................... float64 sqrt(float64 x) 
.................... { 
....................    float64 y, res; 
....................    unsigned int16 *p; 
....................    unsigned int16 temp1,temp2; 
....................  
....................    #ifdef _ERRNO 
....................    if(x < 0) 
....................    { 
....................       errno=EDOM; 
....................    } 
....................    #endif 
....................  
....................    if( x<=0.0) 
....................       return(0.0); 
....................  
....................    y=x; 
....................    p= (((unsigned int16 *)(&y))+3); 
....................    temp1 = *p; 
....................    temp2 = *p; 
....................    bit_clear(temp1,15); 
....................    temp1 = (temp1>>4)+1023; 
....................    temp1 = temp1 >> 1; 
....................    temp1 = (temp1<<4) & 0xFFF0; 
....................    if(bit_test(temp2,15)) 
....................       bit_set(temp1,15); 
....................    temp2 = temp2 & 0x000F; 
....................    temp1 ^= temp2; 
....................     
....................    (*p) = temp1; 
....................     
....................    do { 
....................       res=y; 
....................       y+=(x/y); 
....................      temp1 = *p; 
....................      temp2 = *p; 
....................      bit_clear(temp1,15); 
....................      temp1 = (temp1>>4); 
....................      temp1--; 
....................      temp1 = (temp1<<4) & 0xFFF0; 
....................      if(bit_test(temp2,15)) 
....................         bit_set(temp1,15); 
....................      temp2 = temp2 & 0x000F; 
....................      temp1 ^= temp2; 
....................      (*p) = temp1; 
....................  
....................    } while(res != y); 
....................  
....................    return(res); 
.................... } 
.................... #endif 
....................  
.................... ////////////////////////////// Trig Functions ////////////////////////////// 
.................... #ifdef PI_DIV_BY_TWO_INV 
.................... #undef PI_DIV_BY_TWO_INV 
.................... #endif 
.................... #define PI_DIV_BY_TWO_INV 0.63661977236758134 
.................... #ifdef PI_DIV_BY_TWO 
.................... #undef PI_DIV_BY_TWO 
.................... #endif 
.................... #define PI_DIV_BY_TWO   1.5707963267948966 
.................... #ifdef TWOBYPI 
.................... #undef TWOBYPI 
.................... #endif 
.................... #define TWOBYPI          0.6366197723675813 
....................  
.................... //////////////////////////////////////////////////////////////////////////// 
.................... //   float cos(float x) 
.................... //////////////////////////////////////////////////////////////////////////// 
.................... // Description : returns the cosine value of the angle x, which is in radian 
.................... // Date : 9/20/2001 
.................... // 
.................... float32 cos(float32 x) 
*
1CCC:  MOVLB  4
1CCE:  CLRF   xC5
1CD0:  CLRF   xC4
1CD2:  CLRF   xC3
1CD4:  MOVLW  7F
1CD6:  MOVWF  xC2
.................... { 
....................    float32 y, t, t2 = 1.0; 
....................    unsigned int8 quad, i; 
....................    float32 frac; 
....................    float32 p[5] = {                    //by the series definition for cosine 
....................       -0.49999999456337096,            // sum ( ( (-1)^n * x^2n )/(2n)! ) 
....................        0.04166663896921267, 
....................       -0.00138883894522527, 
....................        0.00002476138231734, 
....................       -0.00000026070414770 
....................       //-0.00000000001147, 
....................       // 0.00000000000005 
....................    }; 
1CD8:  MOVLW  7E
1CDA:  MOVWF  xCC
1CDC:  MOVLW  80
1CDE:  MOVWF  xCD
1CE0:  CLRF   xCE
1CE2:  CLRF   xCF
1CE4:  MOVLW  7A
1CE6:  MOVWF  xD0
1CE8:  MOVLW  2A
1CEA:  MOVWF  xD1
1CEC:  MOVLW  AA
1CEE:  MOVWF  xD2
1CF0:  MOVLW  A3
1CF2:  MOVWF  xD3
1CF4:  MOVLW  75
1CF6:  MOVWF  xD4
1CF8:  MOVLW  B6
1CFA:  MOVWF  xD5
1CFC:  MOVLW  09
1CFE:  MOVWF  xD6
1D00:  MOVLW  B4
1D02:  MOVWF  xD7
1D04:  MOVLW  6F
1D06:  MOVWF  xD8
1D08:  MOVLW  4F
1D0A:  MOVWF  xD9
1D0C:  MOVLW  B6
1D0E:  MOVWF  xDA
1D10:  MOVLW  AA
1D12:  MOVWF  xDB
1D14:  MOVLW  69
1D16:  MOVWF  xDC
1D18:  MOVLW  8B
1D1A:  MOVWF  xDD
1D1C:  MOVLW  F6
1D1E:  MOVWF  xDE
1D20:  MOVLW  E8
1D22:  MOVWF  xDF
....................  
....................    if (x < 0) x = -x;                  // absolute value of input 
1D24:  MOVFF  4B9,4E3
1D28:  MOVFF  4B8,4E2
1D2C:  MOVFF  4B7,4E1
1D30:  MOVFF  4B6,4E0
1D34:  CLRF   xE7
1D36:  CLRF   xE6
1D38:  CLRF   xE5
1D3A:  CLRF   xE4
1D3C:  MOVLB  0
1D3E:  BRA    1966
1D40:  BNC   1D4C
1D42:  MOVLB  4
1D44:  MOVF   xB7,W
1D46:  XORLW  80
1D48:  MOVWF  xB7
1D4A:  MOVLB  0
....................  
....................    quad = (unsigned int8)(x * PI_DIV_BY_TWO_INV);    // quadrant 
1D4C:  MOVFF  4B9,4E7
1D50:  MOVFF  4B8,4E6
1D54:  MOVFF  4B7,4E5
1D58:  MOVFF  4B6,4E4
1D5C:  MOVLW  83
1D5E:  MOVLB  4
1D60:  MOVWF  xEB
1D62:  MOVLW  F9
1D64:  MOVWF  xEA
1D66:  MOVLW  22
1D68:  MOVWF  xE9
1D6A:  MOVLW  7E
1D6C:  MOVWF  xE8
1D6E:  MOVLB  0
1D70:  RCALL  1712
1D72:  MOVFF  03,4E3
1D76:  MOVFF  02,4E2
1D7A:  MOVFF  01,4E1
1D7E:  MOVFF  00,4E0
1D82:  RCALL  19E2
1D84:  MOVFF  01,4C6
....................    frac = (x * PI_DIV_BY_TWO_INV) - quad;  // fractional part of input 
1D88:  MOVFF  4B9,4E7
1D8C:  MOVFF  4B8,4E6
1D90:  MOVFF  4B7,4E5
1D94:  MOVFF  4B6,4E4
1D98:  MOVLW  83
1D9A:  MOVLB  4
1D9C:  MOVWF  xEB
1D9E:  MOVLW  F9
1DA0:  MOVWF  xEA
1DA2:  MOVLW  22
1DA4:  MOVWF  xE9
1DA6:  MOVLW  7E
1DA8:  MOVWF  xE8
1DAA:  MOVLB  0
1DAC:  RCALL  1712
1DAE:  MOVFF  03,4E3
1DB2:  MOVFF  02,4E2
1DB6:  MOVFF  01,4E1
1DBA:  MOVFF  00,4E0
1DBE:  MOVLB  4
1DC0:  CLRF   xE5
1DC2:  MOVFF  4C6,4E4
1DC6:  MOVLB  0
1DC8:  RCALL  1A1E
1DCA:  BSF    FD8.1
1DCC:  MOVFF  4E3,4E7
1DD0:  MOVFF  4E2,4E6
1DD4:  MOVFF  4E1,4E5
1DD8:  MOVFF  4E0,4E4
1DDC:  MOVFF  03,4EB
1DE0:  MOVFF  02,4EA
1DE4:  MOVFF  01,4E9
1DE8:  MOVFF  00,4E8
1DEC:  RCALL  1A54
1DEE:  MOVFF  03,4CB
1DF2:  MOVFF  02,4CA
1DF6:  MOVFF  01,4C9
1DFA:  MOVFF  00,4C8
....................    quad = quad % 4;                    // quadrant (0 to 3) 
1DFE:  MOVLW  03
1E00:  MOVLB  4
1E02:  ANDWF  xC6,F
....................  
....................    if (quad == 0 || quad == 2) 
1E04:  MOVF   xC6,F
1E06:  BZ    1E0E
1E08:  MOVF   xC6,W
1E0A:  SUBLW  02
1E0C:  BNZ   1E46
....................       t = frac * PI_DIV_BY_TWO; 
1E0E:  MOVFF  4CB,4E7
1E12:  MOVFF  4CA,4E6
1E16:  MOVFF  4C9,4E5
1E1A:  MOVFF  4C8,4E4
1E1E:  MOVLW  DB
1E20:  MOVWF  xEB
1E22:  MOVLW  0F
1E24:  MOVWF  xEA
1E26:  MOVLW  49
1E28:  MOVWF  xE9
1E2A:  MOVLW  7F
1E2C:  MOVWF  xE8
1E2E:  MOVLB  0
1E30:  RCALL  1712
1E32:  MOVFF  03,4C1
1E36:  MOVFF  02,4C0
1E3A:  MOVFF  01,4BF
1E3E:  MOVFF  00,4BE
1E42:  BRA    1F1A
1E44:  MOVLB  4
....................    else if (quad == 1) 
1E46:  DECFSZ xC6,W
1E48:  BRA    1EB4
....................       t = (1-frac) * PI_DIV_BY_TWO; 
1E4A:  BSF    FD8.1
1E4C:  CLRF   xE7
1E4E:  CLRF   xE6
1E50:  CLRF   xE5
1E52:  MOVLW  7F
1E54:  MOVWF  xE4
1E56:  MOVFF  4CB,4EB
1E5A:  MOVFF  4CA,4EA
1E5E:  MOVFF  4C9,4E9
1E62:  MOVFF  4C8,4E8
1E66:  MOVLB  0
1E68:  RCALL  1A54
1E6A:  MOVFF  03,4E3
1E6E:  MOVFF  02,4E2
1E72:  MOVFF  01,4E1
1E76:  MOVFF  00,4E0
1E7A:  MOVFF  03,4E7
1E7E:  MOVFF  02,4E6
1E82:  MOVFF  01,4E5
1E86:  MOVFF  00,4E4
1E8A:  MOVLW  DB
1E8C:  MOVLB  4
1E8E:  MOVWF  xEB
1E90:  MOVLW  0F
1E92:  MOVWF  xEA
1E94:  MOVLW  49
1E96:  MOVWF  xE9
1E98:  MOVLW  7F
1E9A:  MOVWF  xE8
1E9C:  MOVLB  0
1E9E:  RCALL  1712
1EA0:  MOVFF  03,4C1
1EA4:  MOVFF  02,4C0
1EA8:  MOVFF  01,4BF
1EAC:  MOVFF  00,4BE
1EB0:  BRA    1F1A
1EB2:  MOVLB  4
....................    else // should be 3 
....................       t = (frac-1) * PI_DIV_BY_TWO; 
1EB4:  BSF    FD8.1
1EB6:  MOVFF  4CB,4E7
1EBA:  MOVFF  4CA,4E6
1EBE:  MOVFF  4C9,4E5
1EC2:  MOVFF  4C8,4E4
1EC6:  CLRF   xEB
1EC8:  CLRF   xEA
1ECA:  CLRF   xE9
1ECC:  MOVLW  7F
1ECE:  MOVWF  xE8
1ED0:  MOVLB  0
1ED2:  RCALL  1A54
1ED4:  MOVFF  03,4E3
1ED8:  MOVFF  02,4E2
1EDC:  MOVFF  01,4E1
1EE0:  MOVFF  00,4E0
1EE4:  MOVFF  03,4E7
1EE8:  MOVFF  02,4E6
1EEC:  MOVFF  01,4E5
1EF0:  MOVFF  00,4E4
1EF4:  MOVLW  DB
1EF6:  MOVLB  4
1EF8:  MOVWF  xEB
1EFA:  MOVLW  0F
1EFC:  MOVWF  xEA
1EFE:  MOVLW  49
1F00:  MOVWF  xE9
1F02:  MOVLW  7F
1F04:  MOVWF  xE8
1F06:  MOVLB  0
1F08:  RCALL  1712
1F0A:  MOVFF  03,4C1
1F0E:  MOVFF  02,4C0
1F12:  MOVFF  01,4BF
1F16:  MOVFF  00,4BE
....................  
....................    y = 1.0; 
1F1A:  MOVLB  4
1F1C:  CLRF   xBD
1F1E:  CLRF   xBC
1F20:  CLRF   xBB
1F22:  MOVLW  7F
1F24:  MOVWF  xBA
....................    t = t * t; 
1F26:  MOVFF  4C1,4E7
1F2A:  MOVFF  4C0,4E6
1F2E:  MOVFF  4BF,4E5
1F32:  MOVFF  4BE,4E4
1F36:  MOVFF  4C1,4EB
1F3A:  MOVFF  4C0,4EA
1F3E:  MOVFF  4BF,4E9
1F42:  MOVFF  4BE,4E8
1F46:  MOVLB  0
1F48:  CALL   1712
1F4C:  MOVFF  03,4C1
1F50:  MOVFF  02,4C0
1F54:  MOVFF  01,4BF
1F58:  MOVFF  00,4BE
....................    for (i = 0; i <= 4; i++) 
1F5C:  MOVLB  4
1F5E:  CLRF   xC7
1F60:  MOVF   xC7,W
1F62:  SUBLW  04
1F64:  BNC   2030
....................    { 
....................       t2 = t2 * t; 
1F66:  MOVFF  4C5,4E7
1F6A:  MOVFF  4C4,4E6
1F6E:  MOVFF  4C3,4E5
1F72:  MOVFF  4C2,4E4
1F76:  MOVFF  4C1,4EB
1F7A:  MOVFF  4C0,4EA
1F7E:  MOVFF  4BF,4E9
1F82:  MOVFF  4BE,4E8
1F86:  MOVLB  0
1F88:  CALL   1712
1F8C:  MOVFF  03,4C5
1F90:  MOVFF  02,4C4
1F94:  MOVFF  01,4C3
1F98:  MOVFF  00,4C2
....................       y = y + p[i] * t2; 
1F9C:  MOVLB  4
1F9E:  MOVF   xC7,W
1FA0:  MULLW  04
1FA2:  MOVF   FF3,W
1FA4:  CLRF   03
1FA6:  ADDLW  CC
1FA8:  MOVWF  FE9
1FAA:  MOVLW  04
1FAC:  ADDWFC 03,W
1FAE:  MOVWF  FEA
1FB0:  MOVFF  FEF,4E0
1FB4:  MOVFF  FEC,4E1
1FB8:  MOVFF  FEC,4E2
1FBC:  MOVFF  FEC,4E3
1FC0:  MOVFF  4E3,4E7
1FC4:  MOVFF  4E2,4E6
1FC8:  MOVFF  4E1,4E5
1FCC:  MOVFF  4E0,4E4
1FD0:  MOVFF  4C5,4EB
1FD4:  MOVFF  4C4,4EA
1FD8:  MOVFF  4C3,4E9
1FDC:  MOVFF  4C2,4E8
1FE0:  MOVLB  0
1FE2:  CALL   1712
1FE6:  MOVFF  FEA,4E1
1FEA:  MOVFF  FE9,4E0
1FEE:  BCF    FD8.1
1FF0:  MOVFF  4BD,4E7
1FF4:  MOVFF  4BC,4E6
1FF8:  MOVFF  4BB,4E5
1FFC:  MOVFF  4BA,4E4
2000:  MOVFF  03,4EB
2004:  MOVFF  02,4EA
2008:  MOVFF  01,4E9
200C:  MOVFF  00,4E8
2010:  RCALL  1A54
2012:  MOVFF  4E1,FEA
2016:  MOVFF  4E0,FE9
201A:  MOVFF  03,4BD
201E:  MOVFF  02,4BC
2022:  MOVFF  01,4BB
2026:  MOVFF  00,4BA
202A:  MOVLB  4
202C:  INCF   xC7,F
202E:  BRA    1F60
....................    } 
....................  
....................    if (quad == 2 || quad == 1) 
2030:  MOVF   xC6,W
2032:  SUBLW  02
2034:  BZ    203A
2036:  DECFSZ xC6,W
2038:  BRA    2040
....................       y = -y;  // correct sign 
203A:  MOVF   xBB,W
203C:  XORLW  80
203E:  MOVWF  xBB
....................  
....................    return (y); 
2040:  MOVFF  4BA,00
2044:  MOVFF  4BB,01
2048:  MOVFF  4BC,02
204C:  MOVFF  4BD,03
2050:  MOVLB  0
2052:  RETURN 0
.................... } 
....................  
....................  
.................... //Overloaded functions for cos() for PCD 
.................... // Overloaded function cos() for data type - Float48 
.................... #if defined(__PCD__) 
.................... float48 cos(float48 x) 
.................... { 
....................    float48 y, t, t2 = 1.0; 
....................    unsigned int8 quad, i; 
....................    float48 frac; 
....................    float48 p[6] = {                    //by the series definition for cosine 
....................       -0.5,                            // sum ( ( (-1)^n * x^2n )/(2n)! ) 
....................        0.04166666666667, 
....................       -0.00138888888889, 
....................        0.00002480158730, 
....................       -0.00000027557319, 
....................        0.00000000208767, 
....................       //-0.00000000001147, 
....................       // 0.00000000000005 
....................    }; 
....................  
....................    if (x < 0) x = -x;                  // absolute value of input 
....................  
....................    quad = (unsigned int8)(x * PI_DIV_BY_TWO_INV);    // quadrant 
....................    frac = (x * PI_DIV_BY_TWO_INV) - quad;  // fractional part of input 
....................    quad = quad % 4;                    // quadrant (0 to 3) 
....................  
....................    if (quad == 0 || quad == 2) 
....................       t = frac * PI_DIV_BY_TWO; 
....................    else if (quad == 1) 
....................       t = (1-frac) * PI_DIV_BY_TWO; 
....................    else // should be 3 
....................       t = (frac-1) * PI_DIV_BY_TWO; 
....................  
....................    y = 0.999999999781; 
....................    t = t * t; 
....................    for (i = 0; i <= 5; i++) 
....................    { 
....................       t2 = t2 * t; 
....................       y = y + p[i] * t2; 
....................    } 
....................  
....................    if (quad == 2 || quad == 1) 
....................       y = -y;  // correct sign 
....................  
....................    return (y); 
.................... } 
....................  
.................... // Overloaded function cos() for data type - Float64 
.................... float64 cos(float64 x) 
.................... { 
....................    float64 y, t, t2 = 1.0; 
....................    unsigned int8 quad, i; 
....................    float64 frac; 
....................    float64 p_64[9] = {               //by the series definition for cosine 
....................      -0.49999999999998740,           // sum ( ( (-1)^n * x^2n )/(2n)! )              
....................       0.04166666666656518, 
....................      -0.00138888888851691, 
....................       0.00002480158658490, 
....................      -0.00000027557239796, 
....................       0.00000000208715031, 
....................      -0.00000000001126577, 
....................       0.00000000000000427, 
....................       0.00000000000000372}; 
....................  
....................    if (x < 0) x = -x;                  // absolute value of input 
....................  
....................    quad = (unsigned int8)(x * PI_DIV_BY_TWO_INV);    // quadrant 
....................    frac = (x * PI_DIV_BY_TWO_INV) - quad;  // fractional part of input 
....................    quad = quad % 4;                    // quadrant (0 to 3) 
....................  
....................    if (quad == 0 || quad == 2) 
....................       t = frac * PI_DIV_BY_TWO; 
....................    else if (quad == 1) 
....................       t = (1-frac) * PI_DIV_BY_TWO; 
....................    else // should be 3 
....................       t = (frac-1) * PI_DIV_BY_TWO; 
....................  
....................    y = 1.0; 
....................    t = t * t; 
....................    for (i = 0; i <= 8; i++) 
....................    { 
....................       t2 = t2 * t; 
....................       y = y + p_64[i] * t2; 
....................    } 
....................  
....................    if (quad == 2 || quad == 1) 
....................       y = -y;  // correct sign 
....................  
....................    return (y); 
.................... } 
....................  
.................... #endif 
....................  
.................... //////////////////////////////////////////////////////////////////////////// 
.................... //   float sin(float x) 
.................... //////////////////////////////////////////////////////////////////////////// 
.................... // Description : returns the sine value of the angle x, which is in radian 
.................... // Date : 9/20/2001 
.................... // 
.................... float32 sin(float32 x) 
.................... { 
....................    return cos(x - PI_DIV_BY_TWO); 
2054:  BSF    FD8.1
2056:  MOVFF  4B1,4E7
205A:  MOVFF  4B0,4E6
205E:  MOVFF  4AF,4E5
2062:  MOVFF  4AE,4E4
2066:  MOVLW  DB
2068:  MOVLB  4
206A:  MOVWF  xEB
206C:  MOVLW  0F
206E:  MOVWF  xEA
2070:  MOVLW  49
2072:  MOVWF  xE9
2074:  MOVLW  7F
2076:  MOVWF  xE8
2078:  MOVLB  0
207A:  RCALL  1A54
207C:  MOVFF  03,4B5
2080:  MOVFF  02,4B4
2084:  MOVFF  01,4B3
2088:  MOVFF  00,4B2
208C:  MOVFF  03,4B9
2090:  MOVFF  02,4B8
2094:  MOVFF  01,4B7
2098:  MOVFF  00,4B6
209C:  RCALL  1CCC
209E:  RETURN 0
.................... } 
....................  
.................... //Overloaded functions for sin() for PCD 
.................... // Overloaded function sin() for data type - Float48 
.................... #if defined(__PCD__) 
.................... float48 sin(float48 x) 
.................... { 
....................    return cos(x - PI_DIV_BY_TWO); 
.................... } 
....................  
.................... // Overloaded function sin() for data type - Float48 
.................... float64 sin(float64 x) 
.................... { 
....................    return cos(x - PI_DIV_BY_TWO); 
.................... } 
.................... #endif 
....................  
.................... //////////////////////////////////////////////////////////////////////////// 
.................... //   float tan(float x) 
.................... //////////////////////////////////////////////////////////////////////////// 
.................... // Description : returns the tangent value of the angle x, which is in radian 
.................... // Date : 9/20/2001 
.................... // 
.................... float32 tan(float32 x) 
.................... { 
....................    float32 c, s; 
....................  
....................    c = cos(x); 
....................    if (c == 0.0) 
....................       return (1.0e+36); 
....................  
....................    s = sin(x); 
....................    return(s/c); 
.................... } 
.................... //Overloaded functions for tan() for PCD 
.................... // Overloaded function tan() for data type - Float48 
.................... #if defined(__PCD__) 
.................... float48 tan(float48 x) 
.................... { 
....................    float48 c, s; 
....................  
....................    c = cos(x); 
....................    if (c == 0.0) 
....................       return (1.0e+36); 
....................  
....................    s = sin(x); 
....................    return(s/c); 
.................... } 
....................  
.................... // Overloaded function tan() for data type - Float48 
.................... float64 tan(float64 x) 
.................... { 
....................    float64 c, s; 
....................  
....................    c = cos(x); 
....................    if (c == 0.0) 
....................       return (1.0e+36); 
....................  
....................    s = sin(x); 
....................    return(s/c); 
.................... } 
.................... #endif 
....................  
.................... float32 const pas[3] = {0.49559947, -4.6145309, 5.6036290}; 
.................... float32 const qas[3] = {1.0000000,  -5.5484666, 5.6036290}; 
....................  
.................... float32 ASIN_COS(float32 x, unsigned int8 n) 
.................... { 
....................    float32 y, res, r, y2; 
....................    int1 s; 
....................    #ifdef _ERRNO 
....................    if(x <-1 || x > 1) 
....................    { 
....................       errno=EDOM; 
....................    } 
....................    #endif 
....................    s = 0; 
....................    y = x; 
....................  
....................    if (x < 0) 
....................    { 
....................       s = 1; 
....................       y = -y; 
....................    } 
....................  
....................    if (y > 0.5) 
....................    { 
....................       y = sqrt((1.0 - y)*0.5); 
....................       n += 2; 
....................    } 
....................  
....................    y2=y*y; 
....................  
....................    res = pas[0]*y2 + pas[1]; 
....................    res = res*y2 + pas[2]; 
....................  
....................    r = qas[0]*y2 + qas[1]; 
....................    r = r*y2 + qas[2]; 
....................  
....................    res = y*res/r; 
....................  
....................    if (n & 2)     // |x| > 0.5 
....................       res = PI_DIV_BY_TWO - 2.0*res; 
....................    if (s) 
....................       res = -res; 
....................    if (n & 1)           // take arccos 
....................       res = PI_DIV_BY_TWO - res; 
....................  
....................    return(res); 
.................... } 
....................  
....................  
.................... //Overloaded functions for ASIN_COS() for PCD 
.................... // Overloaded function ASIN_COS() for data type - Float48 
.................... #if defined(__PCD__) 
.................... float48 ASIN_COS(float48 x, unsigned int8 n) 
.................... { 
....................    float48 y, res, r, y2; 
....................    int1 s; 
....................    #ifdef _ERRNO 
....................    if(x <-1 || x > 1) 
....................    { 
....................       errno=EDOM; 
....................    } 
....................    #endif 
....................    s = 0; 
....................    y = x; 
....................  
....................    if (x < 0) 
....................    { 
....................       s = 1; 
....................       y = -y; 
....................    } 
....................  
....................    if (y > 0.5) 
....................    { 
....................       y = sqrt((1.0 - y)*0.5); 
....................       n += 2; 
....................    } 
....................  
....................    y2=y*y; 
....................  
....................    res = pas[0]*y2 + pas[1]; 
....................    res = res*y2 + pas[2]; 
....................  
....................    r = qas[0]*y2 + qas[1]; 
....................    r = r*y2 + qas[2]; 
....................  
....................    res = y*res/r; 
....................  
....................    if (n & 2)     // |x| > 0.5 
....................       res = PI_DIV_BY_TWO - 2.0*res; 
....................    if (s) 
....................       res = -res; 
....................    if (n & 1)           // take arccos 
....................       res = PI_DIV_BY_TWO - res; 
....................  
....................    return(res); 
.................... } 
....................  
.................... // Overloaded function ASIN_COS() for data type - Float64 
.................... double pas_64[5]={1.000000000000000,-2.069938587724477,1.421444580548907, 
....................                  -0.360690137621842,0.024929451660228}; 
....................  
.................... double qas_64[5]={-2.236605254391134,1.719212122946451,-0.524122954476133, 
....................                    0.052808872045749,-0.000662536036570}; 
....................                     
.................... float64 ASIN_COS(float64 x, unsigned int8 n) 
.................... { 
....................    float64 y, res, r, y2; 
....................    int1 s; 
....................    #ifdef _ERRNO 
....................    if(x <-1 || x > 1) 
....................    { 
....................       errno=EDOM; 
....................    } 
....................    #endif 
....................    s = 0; 
....................    y = x; 
....................  
....................    if (x < 0) 
....................    { 
....................       s = 1; 
....................       y = -y; 
....................    } 
....................  
....................    if (y > 0.5) 
....................    { 
....................       y = sqrt((1.0 - y)*0.5); 
....................       n += 2; 
....................    } 
....................  
....................    y2=y*y; 
....................  
....................    res = pas_64[4]*y2 + pas_64[3]; 
....................    res = res*y2 + pas_64[2]; 
....................    res = res*y2 + pas_64[1]; 
....................    res = res*y2 + pas_64[0]; 
....................  
....................    r = qas_64[4]*y2 + qas_64[3]; 
....................    r = r*y2 + qas_64[2]; 
....................    r = r*y2 + qas_64[1]; 
....................    r = r*y2 + qas_64[0]; 
....................    r = r*y2 + 1.0; 
....................  
....................    res = y*res/r; 
....................  
....................    if (n & 2)     // |x| > 0.5 
....................       res = PI_DIV_BY_TWO - 2.0*res; 
....................    if (s) 
....................       res = -res; 
....................    if (n & 1)           // take arccos 
....................       res = PI_DIV_BY_TWO - res; 
....................  
....................    return(res); 
.................... } 
.................... #endif 
....................  
.................... //////////////////////////////////////////////////////////////////////////// 
.................... //   float asin(float x) 
.................... //////////////////////////////////////////////////////////////////////////// 
.................... // Description : returns the arcsine value of the value x. 
.................... // Date : N/A 
.................... // 
.................... float32 asin(float32 x) 
.................... { 
....................    float32 r; 
....................  
....................    r = ASIN_COS(x, 0); 
....................    return(r); 
.................... } 
.................... //Overloaded functions for asin() for PCD 
.................... // Overloaded function asin() for data type - Float48 
.................... #if defined(__PCD__) 
.................... float48 asin(float48 x) 
.................... { 
....................    float48 r; 
....................  
....................    r = ASIN_COS(x, 0); 
....................    return(r); 
.................... } 
....................  
.................... // Overloaded function asin() for data type - Float64 
.................... float64 asin(float64 x) 
.................... { 
....................    float64 r; 
....................  
....................    r = ASIN_COS(x, 0); 
....................    return(r); 
.................... } 
.................... #endif 
....................  
.................... //////////////////////////////////////////////////////////////////////////// 
.................... //   float acos(float x) 
.................... //////////////////////////////////////////////////////////////////////////// 
.................... // Description : returns the arccosine value of the value x. 
.................... // Date : N/A 
.................... // 
.................... float32 acos(float32 x) 
.................... { 
....................    float32 r; 
....................  
....................    r = ASIN_COS(x, 1); 
....................    return(r); 
.................... } 
.................... //Overloaded functions for acos() for PCD 
.................... // Overloaded function acos() for data type - Float48 
.................... #if defined(__PCD__) 
.................... float48 acos(float48 x) 
.................... { 
....................    float48 r; 
....................  
....................    r = ASIN_COS(x, 1); 
....................    return(r); 
.................... } 
....................  
.................... // Overloaded function acos() for data type - Float64 
.................... float64 acos(float64 x) 
.................... { 
....................    float64 r; 
....................  
....................    r = ASIN_COS(x, 1); 
....................    return(r); 
.................... } 
.................... #endif 
....................  
.................... float32 const pat[4] = {0.17630401, 5.6710795, 22.376096, 19.818457}; 
.................... float32 const qat[4] = {1.0000000,  11.368190, 28.982246, 19.818457}; 
....................  
.................... //////////////////////////////////////////////////////////////////////////// 
.................... //   float atan(float x) 
.................... //////////////////////////////////////////////////////////////////////////// 
.................... // Description : returns the arctangent value of the value x. 
.................... // Date : N/A 
.................... // 
.................... float32 atan(float32 x) 
.................... { 
....................    float32 y, res, r; 
....................    int1 s, flag; 
....................  
....................    s = 0; 
....................    flag = 0; 
....................    y = x; 
....................  
....................    if (x < 0) 
....................    { 
....................       s = 1; 
....................       y = -y; 
....................    } 
....................  
....................    if (y > 1.0) 
....................    { 
....................       y = 1.0/y; 
....................       flag = 1; 
....................    } 
....................  
....................    res = pat[0]*y*y + pat[1]; 
....................    res = res*y*y + pat[2]; 
....................    res = res*y*y + pat[3]; 
....................  
....................    r = qat[0]*y*y + qat[1]; 
....................    r = r*y*y + qat[2]; 
....................    r = r*y*y + qat[3]; 
....................  
....................    res = y*res/r; 
....................  
....................  
....................    if (flag)                              // for |x| > 1 
....................       res = PI_DIV_BY_TWO - res; 
....................    if (s) 
....................       res = -res; 
....................  
....................    return(res); 
.................... } 
.................... //Overloaded functions for atan() for PCD 
.................... // Overloaded function atan() for data type - Float48 
.................... #if defined(__PCD__) 
.................... float48 atan(float48 x) 
.................... { 
....................    float48 y, res, r; 
....................    int1 s, flag; 
....................  
....................    s = 0; 
....................    flag = 0; 
....................    y = x; 
....................  
....................    if (x < 0) 
....................    { 
....................       s = 1; 
....................       y = -y; 
....................    } 
....................  
....................    if (y > 1.0) 
....................    { 
....................       y = 1.0/y; 
....................       flag = 1; 
....................    } 
....................  
....................    res = pat[0]*y*y + pat[1]; 
....................    res = res*y*y + pat[2]; 
....................    res = res*y*y + pat[3]; 
....................  
....................    r = qat[0]*y*y + qat[1]; 
....................    r = r*y*y + qat[2]; 
....................    r = r*y*y + qat[3]; 
....................  
....................    res = y*res/r; 
....................  
....................  
....................    if (flag)                              // for |x| > 1 
....................       res = PI_DIV_BY_TWO - res; 
....................    if (s) 
....................       res = -res; 
....................  
....................    return(res); 
.................... } 
....................  
.................... float64 pat_64[6]={0.999999999999999,2.249923645595566,1.771541617806449, 
....................                    0.579678874003185,0.072162702162882,0.002281100141660}; 
....................  
.................... float64 qat_64[6]={2.583256978928510,2.432627277466967,1.016760379885393, 
....................                    0.182482977188688,0.011155377971690,0.000100013019160}; 
.................... // Overloaded function atan() for data type - Float64 
.................... float64 atan(float64 x) 
.................... { 
....................    float64 y,y2, res, r; 
....................    int1 s, flag; 
....................  
....................    s = 0; 
....................    flag = 0; 
....................    y = x; 
....................  
....................    if (x < 0) 
....................    { 
....................       s = 1; 
....................       y = -y; 
....................    } 
....................  
....................    if (y > 1.0) 
....................    { 
....................       y = 1.0/y; 
....................       flag = 1; 
....................    } 
....................    y2 = y*y; 
....................    res = pat_64[5]*y2 + pat_64[4]; 
....................    res = res*y2 + pat_64[3]; 
....................    res = res*y2 + pat_64[2]; 
....................    res = res*y2 + pat_64[1]; 
....................    res = res*y2 + pat_64[0]; 
....................  
....................    r = qat_64[5]*y2 + qat_64[4]; 
....................    r = r*y2 + qat_64[3]; 
....................    r = r*y2 + qat_64[2]; 
....................    r = r*y2 + qat_64[1]; 
....................    r = r*y2 + qat_64[0]; 
....................    r = r*y2 + 1.0; 
....................  
....................    res = y*res/r; 
....................  
....................  
....................    if (flag)                              // for |x| > 1 
....................       res = PI_DIV_BY_TWO - res; 
....................    if (s) 
....................       res = -res; 
....................  
....................    return(res); 
.................... } 
.................... #endif 
....................  
.................... ///////////////////////////////////////////////////////////////////////////// 
.................... //   float atan2(float y, float x) 
.................... ///////////////////////////////////////////////////////////////////////////// 
.................... // Description :computes the principal value of arc tangent of y/x, using the 
.................... // signs of both the arguments to determine the quadrant of the return value 
.................... // Returns : returns the arc tangent of y/x. 
.................... // Date : N/A 
.................... // 
....................  
.................... float32 atan2(float32 y,float32 x) 
.................... { 
....................    float32 z; 
....................    int1 sign; 
....................    unsigned int8 quad; 
....................    sign=0; 
....................    quad=0; //quadrant 
....................    quad=((y<=0.0)?((x<=0.0)?3:4):((x<0.0)?2:1)); 
....................    if(y<0.0) 
....................    { 
....................       sign=1; 
....................       y=-y; 
....................    } 
....................    if(x<0.0) 
....................    { 
....................       x=-x; 
....................    } 
....................    if (x==0.0) 
....................    { 
....................       if(y==0.0) 
....................       { 
....................       #ifdef _ERRNO 
....................       { 
....................          errno=EDOM; 
....................       } 
....................       #endif 
....................       } 
....................       else 
....................       { 
....................          if(sign) 
....................          { 
....................          return (-(PI_DIV_BY_TWO)); 
....................          } 
....................          else 
....................          { 
....................          return (PI_DIV_BY_TWO); 
....................          } 
....................       } 
....................    } 
....................    else 
....................    { 
....................       z=y/x; 
....................       switch(quad) 
....................       { 
....................          case 1: 
....................          { 
....................             return atan(z); 
....................             break; 
....................          } 
....................          case 2: 
....................          { 
.................... //            return (atan(z)+PI_DIV_BY_TWO);  //2L3122 
....................             return (PI-atan(z)); 
....................             break; 
....................          } 
....................          case 3: 
....................          { 
....................             return (atan(z)-PI); 
....................             break; 
....................          } 
....................          case 4: 
....................          { 
....................             return (-atan(z)); 
....................             break; 
....................          } 
....................       } 
....................    } 
.................... } 
....................  
.................... //Overloaded functions for atan2() for PCD 
.................... // Overloaded function atan2() for data type - Float48 
.................... #if defined(__PCD__) 
.................... float48 atan2(float48 y,float48 x) 
.................... { 
....................    float48 z; 
....................    int1 sign; 
....................    unsigned int8 quad; 
....................    sign=0; 
....................    quad=0; //quadrant 
....................    quad=((y<=0.0)?((x<=0.0)?3:4):((x<0.0)?2:1)); 
....................    if(y<0.0) 
....................    { 
....................       sign=1; 
....................       y=-y; 
....................    } 
....................    if(x<0.0) 
....................    { 
....................       x=-x; 
....................    } 
....................    if (x==0.0) 
....................    { 
....................       if(y==0.0) 
....................       { 
....................       #ifdef _ERRNO 
....................       { 
....................          errno=EDOM; 
....................       } 
....................       #endif 
....................       } 
....................       else 
....................       { 
....................          if(sign) 
....................          { 
....................          return (-(PI_DIV_BY_TWO)); 
....................          } 
....................          else 
....................          { 
....................          return (PI_DIV_BY_TWO); 
....................          } 
....................       } 
....................    } 
....................    else 
....................    { 
....................       z=y/x; 
....................       switch(quad) 
....................       { 
....................          case 1: 
....................          { 
....................             return atan(z); 
....................             break; 
....................          } 
....................          case 2: 
....................          { 
.................... //            return (atan(z)+PI_DIV_BY_TWO);  //2L3122 
....................             return (PI-atan(z)); 
....................             break; 
....................          } 
....................          case 3: 
....................          { 
....................             return (atan(z)-PI); 
....................             break; 
....................          } 
....................          case 4: 
....................          { 
....................             return (-atan(z)); 
....................             break; 
....................          } 
....................       } 
....................    } 
.................... } 
....................  
.................... // Overloaded function atan2() for data type - Float64 
.................... float64 atan2(float64 y,float64 x) 
.................... { 
....................    float64 z; 
....................    int1 sign; 
....................    unsigned int8 quad; 
....................    sign=0; 
....................    quad=0; //quadrant 
....................    quad=((y<=0.0)?((x<=0.0)?3:4):((x<0.0)?2:1)); 
....................    if(y<0.0) 
....................    { 
....................       sign=1; 
....................       y=-y; 
....................    } 
....................    if(x<0.0) 
....................    { 
....................       x=-x; 
....................    } 
....................    if (x==0.0) 
....................    { 
....................       if(y==0.0) 
....................       { 
....................       #ifdef _ERRNO 
....................       { 
....................          errno=EDOM; 
....................       } 
....................       #endif 
....................       } 
....................       else 
....................       { 
....................          if(sign) 
....................          { 
....................          return (-(PI_DIV_BY_TWO)); 
....................          } 
....................          else 
....................          { 
....................          return (PI_DIV_BY_TWO); 
....................          } 
....................       } 
....................    } 
....................    else 
....................    { 
....................       z=y/x; 
....................       switch(quad) 
....................       { 
....................          case 1: 
....................          { 
....................             return atan(z); 
....................             break; 
....................          } 
....................          case 2: 
....................          { 
.................... //            return (atan(z)+PI_DIV_BY_TWO);  //2L3122 
....................             return (PI-atan(z)); 
....................             break; 
....................          } 
....................          case 3: 
....................          { 
....................             return (atan(z)-PI); 
....................             break; 
....................          } 
....................          case 4: 
....................          { 
....................             return (-atan(z)); 
....................             break; 
....................          } 
....................       } 
....................    } 
.................... } 
.................... #endif 
....................  
.................... //////////////////// Hyperbolic functions //////////////////// 
....................  
.................... //////////////////////////////////////////////////////////////////////////// 
.................... //   float cosh(float x) 
.................... //////////////////////////////////////////////////////////////////////////// 
.................... // Description : Computes the hyperbolic cosine value of x 
.................... // Returns : returns the hyperbolic cosine value of x 
.................... // Date : N/A 
.................... // 
....................  
.................... float32 cosh(float32 x) 
.................... { 
....................    return ((exp(x)+exp(-x))*0.5); 
.................... } 
.................... //Overloaded functions for cosh() for PCD 
.................... // Overloaded function cosh() for data type - Float48 
.................... #if defined(__PCD__) 
.................... float48 cosh(float48 x) 
.................... { 
....................    return ((exp(x)+exp(-x))*0.5); 
.................... } 
....................  
.................... // Overloaded function cosh() for data type - Float64 
.................... float64 cosh(float64 x) 
.................... { 
....................    return ((exp(x)+exp(-x))*0.5); 
.................... } 
.................... #endif 
....................  
.................... //////////////////////////////////////////////////////////////////////////// 
.................... //   float sinh(float x) 
.................... //////////////////////////////////////////////////////////////////////////// 
.................... // Description : Computes the hyperbolic sine value of x 
.................... // Returns : returns the hyperbolic sine value of x 
.................... // Date : N/A 
.................... // 
....................  
.................... float32 sinh(float32 x) 
.................... { 
....................  
....................    return ((exp(x) - exp(-x))*0.5); 
.................... } 
.................... //Overloaded functions for sinh() for PCD 
.................... // Overloaded function sinh() for data type - Float48 
.................... #if defined(__PCD__) 
.................... float48 sinh(float48 x) 
.................... { 
....................  
....................    return ((exp(x) - exp(-x))*0.5); 
.................... } 
....................  
.................... // Overloaded function sinh() for data type - Float48 
.................... float64 sinh(float64 x) 
.................... { 
....................  
....................    return ((exp(x) - exp(-x))*0.5); 
.................... } 
.................... #endif 
....................  
.................... //////////////////////////////////////////////////////////////////////////// 
.................... //   float tanh(float x) 
.................... //////////////////////////////////////////////////////////////////////////// 
.................... // Description : Computes the hyperbolic tangent value of x 
.................... // Returns : returns the hyperbolic tangent value of x 
.................... // Date : N/A 
.................... // 
....................  
.................... float32 tanh(float32 x) 
.................... { 
....................    return(sinh(x)/cosh(x)); 
.................... } 
.................... //Overloaded functions for tanh() for PCD 
.................... // Overloaded function tanh() for data type - Float48 
.................... #if defined(__PCD__) 
.................... float48 tanh(float48 x) 
.................... { 
....................    return(sinh(x)/cosh(x)); 
.................... } 
....................  
.................... // Overloaded function tanh() for data type - Float64 
.................... float64 tanh(float64 x) 
.................... { 
....................    return(sinh(x)/cosh(x)); 
.................... } 
.................... #endif 
....................  
.................... //////////////////////////////////////////////////////////////////////////// 
.................... //   float frexp(float x, signed int *exp) 
.................... //////////////////////////////////////////////////////////////////////////// 
.................... // Description : breaks a floating point number into a normalized fraction and an integral 
.................... // power of 2. It stores the integer in the signed int object pointed to by exp. 
.................... // Returns : returns the value x, such that x is a double with magnitude in the interval 
.................... // [1/2,1) or zero, and value equals x times 2 raised to the power *exp.If value is zero, 
.................... // both parts of the result are zero. 
.................... // Date : N/A 
.................... // 
....................  
.................... #define LOG2 .30102999566398119521 
.................... #define LOG2_INV 3.32192809488736234787 
.................... float32 frexp(float32 x, signed int8 *exp) 
.................... { 
....................    float32 res; 
....................    int1 sign = 0; 
....................    if(x == 0.0) 
....................    { 
....................       *exp=0; 
....................       return (0.0); 
....................    } 
....................    if(x < 0.0) 
....................    { 
....................      x=-x; 
....................      sign=1; 
....................    } 
....................    if (x > 1.0) 
....................    { 
....................       *exp=(ceil(log10(x)*LOG2_INV)); 
....................       res=x/(pow(2, *exp)); 
....................       if (res == 1) 
....................       { 
....................          *exp=*exp+1; 
....................           res=.5; 
....................       } 
....................    } 
....................    else 
....................    { 
....................       if(x < 0.5) 
....................       { 
....................          *exp=-1; 
....................          res=x*2; 
....................       } 
....................       else 
....................       { 
....................          *exp=0; 
....................           res=x; 
....................       } 
....................    } 
....................    if(sign) 
....................    { 
....................       res=-res; 
....................    } 
....................    return res; 
.................... } 
....................  
.................... //Overloaded functions for frexp() for PCD 
.................... // Overloaded function frexp() for data type - Float48 
.................... #if defined(__PCD__) 
.................... float48 frexp(float48 x, signed int8 *exp) 
.................... { 
....................    float48 res; 
....................    int1 sign = 0; 
....................    if(x == 0.0) 
....................    { 
....................       *exp=0; 
....................       return (0.0); 
....................    } 
....................    if(x < 0.0) 
....................    { 
....................      x=-x; 
....................      sign=1; 
....................    } 
....................    if (x > 1.0) 
....................    { 
....................       *exp=(ceil(log10(x)*LOG2_INV)); 
....................       res=x/(pow(2, *exp)); 
....................       if (res == 1) 
....................       { 
....................          *exp=*exp+1; 
....................           res=.5; 
....................       } 
....................    } 
....................    else 
....................    { 
....................       if(x < 0.5) 
....................       { 
....................          *exp=-1; 
....................          res=x*2; 
....................       } 
....................       else 
....................       { 
....................          *exp=0; 
....................           res=x; 
....................       } 
....................    } 
....................    if(sign) 
....................    { 
....................       res=-res; 
....................    } 
....................    return res; 
.................... } 
....................  
.................... // Overloaded function frexp() for data type - Float64 
.................... float64 frexp(float64 x, signed int8 *exp) 
.................... { 
....................    float64 res; 
....................    int1 sign = 0; 
....................    if(x == 0.0) 
....................    { 
....................       *exp=0; 
....................       return (0.0); 
....................    } 
....................    if(x < 0.0) 
....................    { 
....................      x=-x; 
....................      sign=1; 
....................    } 
....................    if (x > 1.0) 
....................    { 
....................       *exp=(ceil(log10(x)*LOG2_INV)); 
....................       res=x/(pow(2, *exp)); 
....................       if (res == 1) 
....................       { 
....................          *exp=*exp+1; 
....................           res=.5; 
....................       } 
....................    } 
....................    else 
....................    { 
....................       if(x < 0.5) 
....................       { 
....................          *exp=-1; 
....................          res=x*2; 
....................       } 
....................       else 
....................       { 
....................          *exp=0; 
....................           res=x; 
....................       } 
....................    } 
....................    if(sign) 
....................    { 
....................       res=-res; 
....................    } 
....................    return res; 
.................... } 
.................... #endif 
....................  
.................... ////////////////////////////////////////////////////////////////////////////// 
.................... //   float ldexp(float x, signed int *exp) 
.................... ////////////////////////////////////////////////////////////////////////////// 
.................... // Description : multiplies a floating point number by an integral power of 2. 
.................... // Returns : returns the value of x times 2 raised to the power exp. 
.................... // Date : N/A 
.................... // 
....................  
.................... float32 ldexp(float32 value, signed int8 exp) 
.................... { 
....................    return (value * pow(2,exp)); 
.................... } 
.................... //Overloaded functions for ldexp() for PCD 
.................... // Overloaded function ldexp() for data type - Float48 
....................  
.................... #if defined(__PCD__) 
.................... float48 ldexp(float48 value, signed int8 exp) 
.................... { 
....................    return (value * pow(2,exp)); 
.................... } 
.................... // Overloaded function ldexp() for data type - Float64 
.................... float64 ldexp(float64 value, signed int8 exp) 
.................... { 
....................    return (value * pow(2,exp)); 
.................... } 
.................... #endif 
....................  
.................... #endif 
....................  
....................  
.................... #include <tv_03_32led_don.c>  
.................... //xxxxxxxxxxxxxxxxxxxxxxxxxxxxxxxxxxxxxxxxxxxxxxxxxxxxxxxx 
.................... //NGUYEN DINH PHU SU PHAM KY THUAT TP HCM 
.................... //xxxxxxxxxxxxxxxxxxxxxxxxxxxxxxxxxxxxxxxxxxxxxxxxxxxxxxxx 
.................... //xxxxxxxxxxxxxxxxxxxxxxxxxxxxxxxxxxxxxxxxxxxxxxxxxxxxxxxx 
.................... //ham 301: chuong trinh con xuat 4 byte ra 32 led don 
.................... //xxxxxxxxxxxxxxxxxxxxxxxxxxxxxxxxxxxxxxxxxxxxxxxxxxxxxxxx 
.................... void xuat_32led_don_4byte(usi8 bld3,bld2,bld1,bld0) 
.................... {      
....................    xuat_1byte(bld3);  xuat_1byte(bld2); 
*
3052:  MOVFF  4AC,4BC
3056:  CALL   031E
305A:  MOVFF  4AD,4BC
305E:  CALL   031E
....................    xuat_1byte(bld1);  xuat_1byte(bld0);             
3062:  MOVFF  4AE,4BC
3066:  CALL   031E
306A:  MOVFF  4AF,4BC
306E:  CALL   031E
....................                       
....................    output_high(rck_32led);     
3072:  BCF    F95.4
3074:  BSF    F8C.4
....................    output_low(rck_32led);       
3076:  BCF    F95.4
3078:  BCF    F8C.4
307A:  GOTO   30A0 (RETURN)
.................... } 
.................... //xxxxxxxxxxxxxxxxxxxxxxxxxxxxxxxxxxxxxxxxxxxxxxxxxxxxxxxx 
.................... //ham 302: chuong trinh con xuat 2 word 16 bitra 32 led don 
.................... //xxxxxxxxxxxxxxxxxxxxxxxxxxxxxxxxxxxxxxxxxxxxxxxxxxxxxxxx 
.................... void xuat_32led_don_2word(usi16 wld1,usi16 wld0) 
.................... {      
....................    unsigned int8  b3,b2,b1,b0; 
....................    b3 = wld1>>8;  b2 = wld1;  
307E:  MOVFF  4A5,4A8
3082:  MOVFF  4A4,4A9
....................    b1 = wld0>>8;  b0 = wld0; 
3086:  MOVFF  4A7,4AA
308A:  MOVFF  4A6,4AB
....................    xuat_32led_don_4byte(b3,b2,b1,b0); 
308E:  MOVFF  4A8,4AC
3092:  MOVFF  4A9,4AD
3096:  MOVFF  4AA,4AE
309A:  MOVFF  4AB,4AF
309E:  BRA    3052
30A0:  RETURN 0
.................... } 
.................... //xxxxxxxxxxxxxxxxxxxxxxxxxxxxxxxxxxxxxxxxxxxxxxxxxxxxxxxx 
.................... //ham 303: chuong trinh con xuat 1 double word ra 32 led don 
.................... //xxxxxxxxxxxxxxxxxxxxxxxxxxxxxxxxxxxxxxxxxxxxxxxxxxxxxxxx 
.................... void xuat_32led_don_1dw(usi32 dwld) 
.................... {      
....................    unsigned int16  wd1,wd0; 
....................    wd1 = dwld>>16;  wd0 = dwld; 
....................    xuat_32led_don_2word(wd1,wd0); 
.................... } 
.................... //xxxxxxxxxxxxxxxxxxxxxxxxxxxxxxxxxxxxxxxxxxxxxxxxxxxxxxxx 
.................... //ham 304: chuong trinh con xuat 1 byte ra 32 led don 
.................... //xxxxxxxxxxxxxxxxxxxxxxxxxxxxxxxxxxxxxxxxxxxxxxxxxxxxxxxx 
.................... void xuat_32led_don_1byte(usi8 b0) 
.................... {      
....................    xuat_32led_don_4byte(0,0,0,b0); 
.................... }   
....................  
.................... #include <tv_04_4led_7doan.c>  
.................... //xxxxxxxxxxxxxxxxxxxxxxxxxxxxxxxxxxxxxxxxxxxxxxxxxxxxxxxx 
.................... //NGUYEN DINH PHU SU PHAM KY THUAT TP HCM 
.................... //xxxxxxxxxxxxxxxxxxxxxxxxxxxxxxxxxxxxxxxxxxxxxxxxxxxxxxxx 
....................  
.................... //xxxxxxxxxxxxxxxxxxxxxxxxxxxxxxxxxxxxxxxxxxxxxxxxxxxxxxxx 
.................... //khai bao mang va dnh nghia cac bien cho module 4led 7 doan 
.................... //xxxxxxxxxxxxxxxxxxxxxxxxxxxxxxxxxxxxxxxxxxxxxxxxxxxxxxxx 
.................... unsigned int8 dl_4l7d[4]= {0xff,0xff,0xff,0xff}; 
.................... #define ngan4  dl_4l7d[0] 
.................... #define tram4  dl_4l7d[1] 
.................... #define chuc4  dl_4l7d[2] 
.................... #define donvi4 dl_4l7d[3]             
....................                                            
.................... #define l7d_43 dl_4l7d[0] 
.................... #define l7d_42 dl_4l7d[1] 
.................... #define l7d_41 dl_4l7d[2] 
.................... #define l7d_40 dl_4l7d[3]             
.................... //xxxxxxxxxxxxxxxxxxxxxxxxxxxxxxxxxxxxxxxxxxxxxxxxxxxxxxxx 
.................... //ham 401: xuat 4 byte ra 4 led 7 doan 
.................... //xxxxxxxxxxxxxxxxxxxxxxxxxxxxxxxxxxxxxxxxxxxxxxxxxxxxxxxx 
.................... void xuat_4led_7doan_4so() 
.................... {                                                                   
....................    xuat_1byte(dl_4l7d[3]);    
....................    xuat_1byte(dl_4l7d[2]); 
....................    xuat_1byte(dl_4l7d[1]);    
....................    xuat_1byte(dl_4l7d[0]); 
....................                                     
....................    output_low(rck_4l7d);    
....................    output_high(rck_4l7d); 
.................... }                                                   
.................... //xxxxxxxxxxxxxxxxxxxxxxxxxxxxxxxxxxxxxxxxxxxxxxxxxxxxxxxx 
.................... //ham 402: giai ma so x 2 so, luu o led thu y, tuy chon xoa vn 
.................... //xxxxxxxxxxxxxxxxxxxxxxxxxxxxxxxxxxxxxxxxxxxxxxxxxxxxxxxx 
.................... void md4l7d_giaima_2so_vitri_vn(usi8 x,y, int1 xvn) 
.................... {                                         
....................    dl_4l7d[y]   = ma7doan[x%10];        
....................    dl_4l7d[y-1] = ma7doan[x/10%10];               
....................    if(xvn==true)                                                    
....................    {                                                            
....................       if(dl_4l7d[y-1]==maso0) dl_4l7d[y-1]=0xff;                                  
....................    }                                                       
.................... }  
.................... //xxxxxxxxxxxxxxxxxxxxxxxxxxxxxxxxxxxxxxxxxxxxxxxxxxxxxxxx 
.................... //ham 403: giai ma so x 3 so, luu o led thu y, tuy chon xoa vn 
.................... //xxxxxxxxxxxxxxxxxxxxxxxxxxxxxxxxxxxxxxxxxxxxxxxxxxxxxxxx   
.................... void md4l7d_giaima_3so_vitri_vn(usi16 x, usi8 y, int1 xvn) 
.................... {                                         
....................    dl_4l7d[y]   = ma7doan[x%10];        
....................    dl_4l7d[y-1] = ma7doan[x/10%10]; 
....................    dl_4l7d[y-2] = ma7doan[x/100%10]; 
....................    if(xvn==true)          
....................    { 
....................       if(dl_4l7d[y-2]==maso0) 
....................       {                                
....................          dl_4l7d[y-2]=0xff; 
....................          if(dl_4l7d[y-1]==maso0) dl_4l7d[y-1]=0xff; 
....................       } 
....................    }             
.................... } 
.................... //xxxxxxxxxxxxxxxxxxxxxxxxxxxxxxxxxxxxxxxxxxxxxxxxxxxxxxxx 
.................... //ham 404: giai ma so x 4 so, luu o led thu y, tuy chon xoa vn 
.................... //xxxxxxxxxxxxxxxxxxxxxxxxxxxxxxxxxxxxxxxxxxxxxxxxxxxxxxxx 
.................... void md4l7d_giaima_4so_vitri_vn(usi16 x, usi8 y, int1 xvn) 
.................... {                                         
....................    dl_4l7d[y]   = ma7doan[x%10];        
*
087E:  CLRF   03
0880:  MOVLB  4
0882:  MOVF   xA5,W
0884:  ADDLW  08
0886:  MOVWF  FE9
0888:  MOVLW  00
088A:  ADDWFC 03,W
088C:  MOVWF  FEA
088E:  MOVFF  4A4,4AC
0892:  MOVFF  4A3,4AB
0896:  CLRF   xAE
0898:  MOVLW  0A
089A:  MOVWF  xAD
089C:  MOVLB  0
089E:  RCALL  0838
08A0:  MOVFF  00,4A9
08A4:  MOVLB  4
08A6:  MOVFF  03,4AA
08AA:  MOVFF  03,03
08AE:  MOVF   00,W
08B0:  MOVFF  FF2,4AB
08B4:  BCF    FF2.7
08B6:  MOVLB  0
08B8:  CALL   0004
08BC:  MOVLB  4
08BE:  BTFSC  xAB.7
08C0:  BSF    FF2.7
08C2:  MOVWF  FEF
....................    dl_4l7d[y-1] = ma7doan[x/10%10]; 
08C4:  MOVLW  01
08C6:  SUBWF  xA5,W
08C8:  CLRF   03
08CA:  ADDLW  08
08CC:  MOVWF  FE9
08CE:  MOVLW  00
08D0:  ADDWFC 03,W
08D2:  MOVWF  FEA
08D4:  MOVFF  4A4,4AC
08D8:  MOVFF  4A3,4AB
08DC:  CLRF   xAE
08DE:  MOVLW  0A
08E0:  MOVWF  xAD
08E2:  MOVLB  0
08E4:  RCALL  0838
08E6:  MOVFF  02,4AA
08EA:  MOVFF  01,4A9
08EE:  MOVFF  02,4AC
08F2:  MOVFF  01,4AB
08F6:  MOVLB  4
08F8:  CLRF   xAE
08FA:  MOVLW  0A
08FC:  MOVWF  xAD
08FE:  MOVLB  0
0900:  RCALL  0838
0902:  MOVFF  00,4A9
0906:  MOVLB  4
0908:  MOVFF  03,4AA
090C:  MOVFF  03,03
0910:  MOVF   00,W
0912:  MOVFF  FF2,4AB
0916:  BCF    FF2.7
0918:  MOVLB  0
091A:  CALL   0004
091E:  MOVLB  4
0920:  BTFSC  xAB.7
0922:  BSF    FF2.7
0924:  MOVWF  FEF
....................    dl_4l7d[y-2] = ma7doan[x/100%10]; 
0926:  MOVLW  02
0928:  SUBWF  xA5,W
092A:  CLRF   03
092C:  ADDLW  08
092E:  MOVWF  FE9
0930:  MOVLW  00
0932:  ADDWFC 03,W
0934:  MOVWF  FEA
0936:  MOVFF  4A4,4AC
093A:  MOVFF  4A3,4AB
093E:  CLRF   xAE
0940:  MOVLW  64
0942:  MOVWF  xAD
0944:  MOVLB  0
0946:  RCALL  0838
0948:  MOVFF  02,4AA
094C:  MOVFF  01,4A9
0950:  MOVFF  02,4AC
0954:  MOVFF  01,4AB
0958:  MOVLB  4
095A:  CLRF   xAE
095C:  MOVLW  0A
095E:  MOVWF  xAD
0960:  MOVLB  0
0962:  RCALL  0838
0964:  MOVFF  00,4A9
0968:  MOVLB  4
096A:  MOVFF  03,4AA
096E:  MOVFF  03,03
0972:  MOVF   00,W
0974:  MOVFF  FF2,4AB
0978:  BCF    FF2.7
097A:  MOVLB  0
097C:  CALL   0004
0980:  MOVLB  4
0982:  BTFSC  xAB.7
0984:  BSF    FF2.7
0986:  MOVWF  FEF
....................    dl_4l7d[y-3] = ma7doan[x/1000%10]; 
0988:  MOVLW  03
098A:  SUBWF  xA5,W
098C:  CLRF   03
098E:  ADDLW  08
0990:  MOVWF  FE9
0992:  MOVLW  00
0994:  ADDWFC 03,W
0996:  MOVWF  FEA
0998:  MOVFF  4A4,4AC
099C:  MOVFF  4A3,4AB
09A0:  MOVLW  03
09A2:  MOVWF  xAE
09A4:  MOVLW  E8
09A6:  MOVWF  xAD
09A8:  MOVLB  0
09AA:  RCALL  0838
09AC:  MOVFF  02,4AA
09B0:  MOVFF  01,4A9
09B4:  MOVFF  02,4AC
09B8:  MOVFF  01,4AB
09BC:  MOVLB  4
09BE:  CLRF   xAE
09C0:  MOVLW  0A
09C2:  MOVWF  xAD
09C4:  MOVLB  0
09C6:  RCALL  0838
09C8:  MOVFF  00,4A9
09CC:  MOVLB  4
09CE:  MOVFF  03,4AA
09D2:  MOVFF  03,03
09D6:  MOVF   00,W
09D8:  MOVFF  FF2,4AB
09DC:  BCF    FF2.7
09DE:  MOVLB  0
09E0:  CALL   0004
09E4:  MOVLB  4
09E6:  BTFSC  xAB.7
09E8:  BSF    FF2.7
09EA:  MOVWF  FEF
....................    if(xvn==true)                                   
09EC:  DECFSZ xA6,W
09EE:  BRA    0A68
....................    { 
....................       if(dl_4l7d[y-3]==maso0)  
09F0:  MOVLW  03
09F2:  SUBWF  xA5,W
09F4:  CLRF   03
09F6:  ADDLW  08
09F8:  MOVWF  FE9
09FA:  MOVLW  00
09FC:  ADDWFC 03,W
09FE:  MOVWF  FEA
0A00:  MOVF   FEF,W
0A02:  SUBLW  C0
0A04:  BNZ   0A68
....................       {                        
....................          dl_4l7d[y-3]=0xff; 
0A06:  MOVLW  03
0A08:  SUBWF  xA5,W
0A0A:  CLRF   03
0A0C:  ADDLW  08
0A0E:  MOVWF  FE9
0A10:  MOVLW  00
0A12:  ADDWFC 03,W
0A14:  MOVWF  FEA
0A16:  SETF   FEF
....................          if(dl_4l7d[y-2]==maso0)  
0A18:  MOVLW  02
0A1A:  SUBWF  xA5,W
0A1C:  CLRF   03
0A1E:  ADDLW  08
0A20:  MOVWF  FE9
0A22:  MOVLW  00
0A24:  ADDWFC 03,W
0A26:  MOVWF  FEA
0A28:  MOVF   FEF,W
0A2A:  SUBLW  C0
0A2C:  BNZ   0A68
....................          { 
....................             dl_4l7d[y-2]=0xff;  
0A2E:  MOVLW  02
0A30:  SUBWF  xA5,W
0A32:  CLRF   03
0A34:  ADDLW  08
0A36:  MOVWF  FE9
0A38:  MOVLW  00
0A3A:  ADDWFC 03,W
0A3C:  MOVWF  FEA
0A3E:  SETF   FEF
....................             if(dl_4l7d[y-1]==maso0) dl_4l7d[y-1]=0xff;    
0A40:  MOVLW  01
0A42:  SUBWF  xA5,W
0A44:  CLRF   03
0A46:  ADDLW  08
0A48:  MOVWF  FE9
0A4A:  MOVLW  00
0A4C:  ADDWFC 03,W
0A4E:  MOVWF  FEA
0A50:  MOVF   FEF,W
0A52:  SUBLW  C0
0A54:  BNZ   0A68
0A56:  MOVLW  01
0A58:  SUBWF  xA5,W
0A5A:  CLRF   03
0A5C:  ADDLW  08
0A5E:  MOVWF  FE9
0A60:  MOVLW  00
0A62:  ADDWFC 03,W
0A64:  MOVWF  FEA
0A66:  SETF   FEF
....................          } 
....................       }                         
....................    }           
0A68:  MOVLB  0
0A6A:  GOTO   3478 (RETURN)
.................... }   
.................... //xxxxxxxxxxxxxxxxxxxxxxxxxxxxxxxxxxxxxxxxxxxxxxxxxxxxxxxx 
.................... //ham 405: giai ma so x 2 so, luu o led thu y, tuy chon xoa vn 
.................... //xxxxxxxxxxxxxxxxxxxxxxxxxxxxxxxxxxxxxxxxxxxxxxxxxxxxxxxx 
.................... void md4l7d_gma_so_bcd_vitri_vn(usi8 x,y, int1 xvn) 
.................... {                                         
....................    dl_4l7d[y]   = ma7doan[x%16];        
....................    dl_4l7d[y-1] = ma7doan[x/16];               
....................    if(xvn==true)                                                    
....................    {                                                            
....................       if(dl_4l7d[y-1]==maso0) dl_4l7d[y-1]=0xff;                                  
....................    }                                                       
.................... }  
.................... //xxxxxxxxxxxxxxxxxxxxxxxxxxxxxxxxxxxxxxxxxxxxxxxxxxxxxxxx 
.................... //ham 406: hien thi du lieu 2byte tren 4 led 7 doan 
.................... //xxxxxxxxxxxxxxxxxxxxxxxxxxxxxxxxxxxxxxxxxxxxxxxxxxxxxxxx 
.................... void xuat_4led_7doan_2so_4led (unsigned int8 bh,bl) 
.................... {          
....................    dl_4l7d[3] = ma7doan[bh/10%10]; 
....................    dl_4l7d[2] = ma7doan[bh%10];   
....................    dl_4l7d[1] = ma7doan[bl/10%10]; 
....................    dl_4l7d[0] = ma7doan[bl%10];  
....................    xuat_4led_7doan_4so(); 
.................... }                                  
....................  
.................... #include <tv_05_8led_7doan_quet.c>  
.................... //xxxxxxxxxxxxxxxxxxxxxxxxxxxxxxxxxxxxxxxxxxxxxxxxxxxxxxxx 
.................... //NGUYEN DINH PHU SU PHAM KY THUAT TP HCM 
.................... //xxxxxxxxxxxxxxxxxxxxxxxxxxxxxxxxxxxxxxxxxxxxxxxxxxxxxxxx 
.................... //xxxxxxxxxxxxxxxxxxxxxxxxxxxxxxxxxxxxxxxxxxxxxxxxxxxxxxxx 
.................... //ham 501: hien thi led theo thu tu 
.................... //xxxxxxxxxxxxxxxxxxxxxxxxxxxxxxxxxxxxxxxxxxxxxxxxxxxxxxxx 
.................... const unsigned int8 ma_quet[9]=  
....................    {0x7f,0xbf,0xdf,0xef,0xf7,0xfb,0xfd,0xfe,0xff};    
....................  
.................... void xuat_8led_7doan_quet(usi8 ttq,mht) 
.................... {                                                        
....................    xuat_1byte(~(ma_quet[ttq]));    
....................    xuat_1byte(~mht); 
....................  
....................    output_high(rck_8l7dq);  
....................    output_low(rck_8l7dq); 
.................... }                        
.................... //xxxxxxxxxxxxxxxxxxxxxxxxxxxxxxxxxxxxxxxxxxxxxxxxxxxxxxxx 
.................... //ham 502: xuat 2 byte ra tat 8 led quet 
.................... //xxxxxxxxxxxxxxxxxxxxxxxxxxxxxxxxxxxxxxxxxxxxxxxxxxxxxxxx 
.................... void tat_8led_7doan_quet() 
.................... { 
....................    xuat_8led_7doan_quet(8,0xff); 
.................... } 
.................... //xxxxxxxxxxxxxxxxxxxxxxxxxxxxxxxxxxxxxxxxxxxxxxxxxxxxxxxx 
.................... //ham 503: hien thi 8 so tren 8 led quet - khong kiem tra 
.................... //xxxxxxxxxxxxxxxxxxxxxxxxxxxxxxxxxxxxxxxxxxxxxxxxxxxxxxxx 
.................... unsigned int8 dl_8l7dq[8]={0xff,0xff,0xff,0xff,0xff,0xff,0xff,0xff}; 
....................                                                                 
.................... void hien_thi_8led_7doan_quet() 
.................... {      
....................    unsigned int8 ttl=0;                                       
....................    for(ttl=0;ttl<8;ttl++)          
....................    {              
....................       xuat_8led_7doan_quet(ttl,dl_8l7dq[ttl]); 
....................       delay_ms(1);   
....................       tat_8led_7doan_quet();                              
....................    } 
.................... }                                              
.................... //xxxxxxxxxxxxxxxxxxxxxxxxxxxxxxxxxxxxxxxxxxxxxxxxxxxxxxxx 
.................... //ham 504: giai ma 2 so x, vi tri y, tuy chon xoa vn 
.................... //xxxxxxxxxxxxxxxxxxxxxxxxxxxxxxxxxxxxxxxxxxxxxxxxxxxxxxxx 
.................... void md8l7d_gma_2so_vitri_vn(usi8 x,y,int1 xvn) 
.................... {                                         
....................    dl_8l7dq[y]   = ma7doan[x%10];        
....................    dl_8l7dq[y+1] = ma7doan[x/10%10];               
....................    if(xvn==true)                                                    
....................    {                                                            
....................       if(dl_8l7dq[y+1]==maso0) dl_8l7dq[y+1]=0xff;                                  
....................    }                                                       
.................... }   
.................... //xxxxxxxxxxxxxxxxxxxxxxxxxxxxxxxxxxxxxxxxxxxxxxxxxxxxxxxx 
.................... //ham 505: giai ma 3 so x, vi tri y, tuy chon xoa vn 
.................... //xxxxxxxxxxxxxxxxxxxxxxxxxxxxxxxxxxxxxxxxxxxxxxxxxxxxxxxx 
.................... void md8l7d_gma_3so_vitri_vn(usi16 x,usi8 y,int1 xvn) 
.................... {                                         
....................    dl_8l7dq[y]   = ma7doan[x%10];        
....................    dl_8l7dq[y+1] = ma7doan[x/10%10]; 
....................    dl_8l7dq[y+2] = ma7doan[x/100%10]; 
....................    if(xvn==true)          
....................    {        
....................       if(dl_8l7dq[y+2]==maso0) 
....................       {                                
....................          dl_8l7dq[y+2]=0xff; 
....................          if(dl_8l7dq[y+1]==maso0) dl_8l7dq[y+1]=0xff; 
....................       } 
....................    }             
.................... }  
.................... //xxxxxxxxxxxxxxxxxxxxxxxxxxxxxxxxxxxxxxxxxxxxxxxxxxxxxxxx 
.................... //ham 506: giai ma 4 so x, vi tri y, tuy chon xoa vn 
.................... //xxxxxxxxxxxxxxxxxxxxxxxxxxxxxxxxxxxxxxxxxxxxxxxxxxxxxxxx 
.................... void md8l7d_gma_4so_vitri_vn(usi16 x,usi8 y,int1 xvn) 
.................... {                                         
....................    dl_8l7dq[y]   = ma7doan[x%10];        
....................    dl_8l7dq[y+1] = ma7doan[x/10%10]; 
....................    dl_8l7dq[y+2] = ma7doan[x/100%10]; 
....................    dl_8l7dq[y+3] = ma7doan[x/1000%10]; 
....................    if(xvn==true)                                   
....................    { 
....................       if(dl_8l7dq[y+3]==maso0)  
....................       { 
....................          dl_8l7dq[y+3]=0xff; 
....................          if(dl_8l7dq[y+2]==maso0)  
....................          { 
....................             dl_8l7dq[y+2]=0xff;  
....................             if(dl_8l7dq[y+1]==maso0) dl_8l7dq[y+1]=0xff;    
....................          } 
....................       }                         
....................    }           
.................... }    
.................... //xxxxxxxxxxxxxxxxxxxxxxxxxxxxxxxxxxxxxxxxxxxxxxxxxxxxxxxx 
.................... //ham 507: giai ma 2 so bcd x, tai vi tri y, xoa vn: y/n 
.................... //xxxxxxxxxxxxxxxxxxxxxxxxxxxxxxxxxxxxxxxxxxxxxxxxxxxxxxxx 
.................... void md8l7d_gma_so_bcd_vitri_vn(usi8 x,y,int1 xvn) 
.................... {                                         
....................    dl_8l7dq[y]   = ma7doan[x%16];        
....................    dl_8l7dq[y+1] = ma7doan[x/16];               
....................    if(xvn==true)                                                    
....................    {                                                            
....................       if(dl_8l7dq[y+1]==maso0) dl_8l7dq[y+1]=0xff;                                  
....................    }    
.................... }                
.................... //xxxxxxxxxxxxxxxxxxxxxxxxxxxxxxxxxxxxxxxxxxxxxxxxxxxxxxxx 
.................... //ham 508: hien thi 8 so tren 8 led quet voi so lan dl 
.................... //xxxxxxxxxxxxxxxxxxxxxxxxxxxxxxxxxxxxxxxxxxxxxxxxxxxxxxxx 
.................... void delay_quet_8led(unsigned int16 dl) 
.................... {                                 
....................    unsigned int16 i;            
....................    for(i=0;i<dl;i++) 
....................    hien_thi_8led_7doan_quet();         
.................... }  
....................  
.................... #include <tv_05_i2c_ds13_pcf.c> 
.................... //xxxxxxxxxxxxxxxxxxxxxxxxxxxxxxxxxxxxxxxxxxxxxxxxxxxxxxxx 
.................... //NGUYEN DINH PHU SU PHAM KY THUAT TP HCM 
.................... //xxxxxxxxxxxxxxxxxxxxxxxxxxxxxxxxxxxxxxxxxxxxxxxxxxxxxxxx 
.................... //xxxxxxxxxxxxxxxxxxxxxxxxxxxxxxxxxxxxxxxxxxxxxxxxxxxxxxxx 
.................... //dinh nghia dia chi ghi va dia chi doc ds1307 
.................... //xxxxxxxxxxxxxxxxxxxxxxxxxxxxxxxxxxxxxxxxxxxxxxxxxxxxxxxx                     
.................... #define ds13_addr_wr 0xd0 
.................... #define ds13_addr_rd 0xd1 
....................  
.................... //xxxxxxxxxxxxxxxxxxxxxxxxxxxxxxxxxxxxxxxxxxxxxxxxxxxxxxxx   
.................... //khai bao 2 mang:  
.................... //mang ghi: giay-phut-gio-thu-ngay-thang-nam-madk_msds   
.................... //mang doc: giay-phut-gio-thu-ngay-thang-nam-madk_msds   
.................... //xxxxxxxxxxxxxxxxxxxxxxxxxxxxxxxxxxxxxxxxxxxxxxxxxxxxxxxx       
.................... usi8 time_w[9]={0x30,0x37,0x08,0x07,0x04,0x06,0x22,0x90,0x95};   
.................... usi8 time_r[9]={0x30,0x30,0x10,0x08,0x20,0x02,0x20,0x90,0x96}; 
.................... #define giay_ds  time_r[0]               
.................... #define phut_ds  time_r[1]                   
.................... #define gio_ds   time_r[2] 
.................... #define thu_ds   time_r[3] 
.................... #define ngay_ds  time_r[4] 
.................... #define thang_ds time_r[5]                   
.................... #define nam_ds   time_r[6] 
....................  
.................... #define ma_qd   time_w[8]  
.................... #define ma_ds   time_r[8]                                        
.................... //xxxxxxxxxxxxxxxxxxxxxxxxxxxxxxxxxxxxxxxxxxxxxxxxxxxxxxxx   
.................... //cap nhat time: giay-phut-gio-thu-ngay-thang-nam-madk_msds   
.................... //xxxxxxxxxxxxxxxxxxxxxxxxxxxxxxxxxxxxxxxxxxxxxxxxxxxxxxxx  
.................... void ds1307_cap_nhat_time(int1 sel)                  
.................... {          
....................    usi8 i;    
....................    i2c_start(); 
*
0D76:  BSF    F93.0
0D78:  MOVLW  05
0D7A:  MOVWF  00
0D7C:  DECFSZ 00,F
0D7E:  BRA    0D7C
0D80:  BSF    F93.1
0D82:  MOVLW  06
0D84:  MOVWF  00
0D86:  DECFSZ 00,F
0D88:  BRA    0D86
0D8A:  BCF    F8A.0
0D8C:  BCF    F93.0
0D8E:  MOVLW  05
0D90:  MOVWF  00
0D92:  DECFSZ 00,F
0D94:  BRA    0D92
0D96:  BCF    F8A.1
0D98:  BCF    F93.1
....................    i2c_write(ds13_addr_wr);         
0D9A:  MOVLW  D0
0D9C:  MOVLB  4
0D9E:  MOVWF  xA6
0DA0:  MOVLB  0
0DA2:  RCALL  0BD8
....................    i2c_write(0x00);     
0DA4:  MOVLB  4
0DA6:  CLRF   xA6
0DA8:  MOVLB  0
0DAA:  RCALL  0BD8
....................    for(i=0;i<9;i++)                           
0DAC:  MOVLB  4
0DAE:  CLRF   xA4
0DB0:  MOVF   xA4,W
0DB2:  SUBLW  08
0DB4:  BNC   0DF8
....................    {   
....................       if(sel)  i2c_write(time_w[i]); 
0DB6:  MOVF   xA3,F
0DB8:  BZ    0DD8
0DBA:  CLRF   03
0DBC:  MOVF   xA4,W
0DBE:  ADDLW  14
0DC0:  MOVWF  FE9
0DC2:  MOVLW  00
0DC4:  ADDWFC 03,W
0DC6:  MOVWF  FEA
0DC8:  MOVFF  FEF,4A5
0DCC:  MOVFF  4A5,4A6
0DD0:  MOVLB  0
0DD2:  RCALL  0BD8
0DD4:  BRA    0DF2
0DD6:  MOVLB  4
....................       else     i2c_write(time_r[i]); 
0DD8:  CLRF   03
0DDA:  MOVF   xA4,W
0DDC:  ADDLW  1D
0DDE:  MOVWF  FE9
0DE0:  MOVLW  00
0DE2:  ADDWFC 03,W
0DE4:  MOVWF  FEA
0DE6:  MOVFF  FEF,4A5
0DEA:  MOVFF  4A5,4A6
0DEE:  MOVLB  0
0DF0:  RCALL  0BD8
0DF2:  MOVLB  4
0DF4:  INCF   xA4,F
0DF6:  BRA    0DB0
....................    }                                  
....................    i2c_stop();         
0DF8:  BCF    F93.0
0DFA:  NOP   
0DFC:  BSF    F93.1
0DFE:  BTFSS  F81.1
0E00:  BRA    0DFE
0E02:  MOVLW  05
0E04:  MOVWF  00
0E06:  DECFSZ 00,F
0E08:  BRA    0E06
0E0A:  BRA    0E0C
0E0C:  NOP   
0E0E:  BSF    F93.0
0E10:  MOVLW  05
0E12:  MOVWF  00
0E14:  DECFSZ 00,F
0E16:  BRA    0E14
0E18:  MOVLB  0
0E1A:  GOTO   0E38 (RETURN)
.................... }                       
.................... //xxxxxxxxxxxxxxxxxxxxxxxxxxxxxxxxxxxxxxxxxxxxxxxxxxxxxxxx   
.................... //doc thoi gian    
.................... //xxxxxxxxxxxxxxxxxxxxxxxxxxxxxxxxxxxxxxxxxxxxxxxxxxxxxxxx                              
.................... void ds1307_doc_time(usi8 j)      
.................... {    
....................    usi8 i;  
....................    i2c_start(); 
*
0CB8:  BSF    F93.0
0CBA:  MOVLW  05
0CBC:  MOVWF  00
0CBE:  DECFSZ 00,F
0CC0:  BRA    0CBE
0CC2:  BSF    F93.1
0CC4:  MOVLW  06
0CC6:  MOVWF  00
0CC8:  DECFSZ 00,F
0CCA:  BRA    0CC8
0CCC:  BCF    F8A.0
0CCE:  BCF    F93.0
0CD0:  MOVLW  05
0CD2:  MOVWF  00
0CD4:  DECFSZ 00,F
0CD6:  BRA    0CD4
0CD8:  BCF    F8A.1
0CDA:  BCF    F93.1
....................    i2c_write(ds13_addr_wr); 
0CDC:  MOVLW  D0
0CDE:  MOVLB  4
0CE0:  MOVWF  xA6
0CE2:  MOVLB  0
0CE4:  RCALL  0BD8
....................    i2c_write(0x00);                      
0CE6:  MOVLB  4
0CE8:  CLRF   xA6
0CEA:  MOVLB  0
0CEC:  RCALL  0BD8
....................    i2c_start();                 
0CEE:  BSF    F93.0
0CF0:  MOVLW  05
0CF2:  MOVWF  00
0CF4:  DECFSZ 00,F
0CF6:  BRA    0CF4
0CF8:  BSF    F93.1
0CFA:  MOVLW  06
0CFC:  MOVWF  00
0CFE:  DECFSZ 00,F
0D00:  BRA    0CFE
0D02:  BTFSS  F81.1
0D04:  BRA    0D02
0D06:  BCF    F8A.0
0D08:  BCF    F93.0
0D0A:  MOVLW  05
0D0C:  MOVWF  00
0D0E:  DECFSZ 00,F
0D10:  BRA    0D0E
0D12:  BCF    F8A.1
0D14:  BCF    F93.1
....................                  
....................    i2c_write(ds13_addr_rd); 
0D16:  MOVLW  D1
0D18:  MOVLB  4
0D1A:  MOVWF  xA6
0D1C:  MOVLB  0
0D1E:  RCALL  0BD8
....................    for(i=0;i<j;i++) time_r[i]=i2c_read();   
0D20:  MOVLB  4
0D22:  CLRF   xA4
0D24:  MOVF   xA3,W
0D26:  SUBWF  xA4,W
0D28:  BC    0D4A
0D2A:  CLRF   03
0D2C:  MOVF   xA4,W
0D2E:  ADDLW  1D
0D30:  MOVWF  FE9
0D32:  MOVLW  00
0D34:  ADDWFC 03,W
0D36:  MOVWF  FEA
0D38:  MOVLW  01
0D3A:  MOVWF  00
0D3C:  MOVLB  0
0D3E:  RCALL  0C4E
0D40:  MOVFF  01,FEF
0D44:  MOVLB  4
0D46:  INCF   xA4,F
0D48:  BRA    0D24
....................                                   
....................    i = i2c_read(0); //not ack, don't care i   
0D4A:  CLRF   00
0D4C:  MOVLB  0
0D4E:  RCALL  0C4E
0D50:  MOVFF  01,4A4
....................    i2c_stop(); 
0D54:  BCF    F93.0
0D56:  NOP   
0D58:  BSF    F93.1
0D5A:  BTFSS  F81.1
0D5C:  BRA    0D5A
0D5E:  MOVLW  05
0D60:  MOVWF  00
0D62:  DECFSZ 00,F
0D64:  BRA    0D62
0D66:  BRA    0D68
0D68:  NOP   
0D6A:  BSF    F93.0
0D6C:  MOVLW  05
0D6E:  MOVWF  00
0D70:  DECFSZ 00,F
0D72:  BRA    0D70
0D74:  RETURN 0
.................... }                                                                        
.................... //xxxxxxxxxxxxxxxxxxxxxxxxxxxxxxxxxxxxxxxxxxxxxxxxxxxxxxxx   
.................... //kiem tra ma da luu: sai thi cap nhat, dung thi thoat 
.................... //xxxxxxxxxxxxxxxxxxxxxxxxxxxxxxxxxxxxxxxxxxxxxxxxxxxxxxxx            
.................... void ds1307_kiem_tra_ma()                                
.................... {                                               
....................    ds1307_doc_time(9);           
*
0E1E:  MOVLW  09
0E20:  MOVLB  4
0E22:  MOVWF  xA3
0E24:  MOVLB  0
0E26:  RCALL  0CB8
....................    if(ma_qd!=ma_ds)    
0E28:  MOVF   25,W
0E2A:  SUBWF  1C,W
0E2C:  BZ    0E38
....................    { 
....................       ds1307_cap_nhat_time(1); 
0E2E:  MOVLW  01
0E30:  MOVLB  4
0E32:  MOVWF  xA3
0E34:  MOVLB  0
0E36:  BRA    0D76
....................    } 
0E38:  GOTO   34FA (RETURN)
.................... } 
.................... //xxxxxxxxxxxxxxxxxxxxxxxxxxxxxxxxxxxxxxxxxxxxxxxxxxxxxxxx    
.................... //xxxxxxxxxxxxxxxxxxxxxxxxxxxxxxxxxxxxxxxxxxxxxxxxxxxxxxxx 
.................... //thu vien cua pcf8591: 4adc:2lm35, joystick, 1dac: led 
.................... //step size bang 5 
.................... //xxxxxxxxxxxxxxxxxxxxxxxxxxxxxxxxxxxxxxxxxxxxxxxxxxxxxxxx    
.................... //xxxxxxxxxxxxxxxxxxxxxxxxxxxxxxxxxxxxxxxxxxxxxxxxxxxxxxxx    
.................... #define  pcf_addr_wr  0x90                     
.................... #define  pcf_addr_rd  0x91 
....................                                                     
.................... #define  pcf_chan0 0x40 
.................... #define  pcf_chan1 0x41 
.................... #define  pcf_chan2 0x42 
.................... #define  pcf_chan3 0x43 
.................... //xxxxxxxxxxxxxxxxxxxxxxxxxxxxxxxxxxxxxxxxxxxxxxxxxxxxxxxx   
.................... //ham thiet lap kenh 
.................... //xxxxxxxxxxxxxxxxxxxxxxxxxxxxxxxxxxxxxxxxxxxxxxxxxxxxxxxx                                     
.................... void pcf_channel(usi8 chan) 
.................... {                                   
....................    i2c_start(); 
....................    i2c_write(pcf_addr_wr); 
....................    i2c_write(chan);       
....................    i2c_stop(); 
.................... } 
.................... //xxxxxxxxxxxxxxxxxxxxxxxxxxxxxxxxxxxxxxxxxxxxxxxxxxxxxxxx   
.................... //ham vua chon kenh, vua xuat du lieu ra DAC 
.................... //xxxxxxxxxxxxxxxxxxxxxxxxxxxxxxxxxxxxxxxxxxxxxxxxxxxxxxxx  
.................... void pcf_xuat_dac(usi8 dac_out) 
.................... { 
....................    i2c_start();                      
....................    i2c_write(pcf_addr_wr); 
....................    i2c_write(pcf_chan0); 
....................    i2c_write(dac_out); 
....................    i2c_stop();              
.................... }                     
.................... //xxxxxxxxxxxxxxxxxxxxxxxxxxxxxxxxxxxxxxxxxxxxxxxxxxxxxxxx   
.................... //ham thiet lap kenh va doc ket qua cua lan truoc  
.................... //xxxxxxxxxxxxxxxxxxxxxxxxxxxxxxxxxxxxxxxxxxxxxxxxxxxxxxxx  
.................... usi8 pcf_doc_adc(usi8 ch) 
.................... {     
....................    usi8 kq;  
....................    kq=0;   
....................    pcf_channel(ch); 
....................    i2c_start();                            
....................    i2c_write(pcf_addr_rd);         
....................    kq= i2c_read(0); 
....................    i2c_stop();        
....................    return kq; 
.................... } 
.................... //xxxxxxxxxxxxxxxxxxxxxxxxxxxxxxxxxxxxxxxxxxxxxxxxxxxxxxxx   
.................... //ham doc kenh, so lan  
.................... //xxxxxxxxxxxxxxxxxxxxxxxxxxxxxxxxxxxxxxxxxxxxxxxxxxxxxxxx  
.................... usi8 pcf_doc_chan(usi8 chan, usi8 solan)                                      
.................... {  
....................    unsigned int16 pcf; 
....................    usi8 i;            
....................    pcf = 0;      
....................    for(i=0;i<solan;i++)             
....................    { 
....................       delay_us(30);                               
....................       pcf=pcf + pcf_doc_adc(chan);               
....................    }                                               
....................    pcf = pcf/solan;    
....................    return (pcf%256); 
.................... } 
....................  
....................                                                                  
....................  
.................... #include <tv_06_lcd_glcd.c>  //xuat du lieu                                             
.................... //xxxxxxxxxxxxxxxxxxxxxxxxxxxxxxxxxxxxxxxxxxxxxxxxxxxxxxxx 
.................... //NGUYEN DINH PHU SU PHAM KY THUAT TP HCM 
.................... //xxxxxxxxxxxxxxxxxxxxxxxxxxxxxxxxxxxxxxxxxxxxxxxxxxxxxxxx 
....................  
.................... //xxxxxxxxxxxxxxxxxxxxxxxxxxxxxxxxxxxxxxxxxxxxxxxxxxxxxxxx     
.................... //khai bao: mang 4 byte ra glcd va lcd 
.................... //xxxxxxxxxxxxxxxxxxxxxxxxxxxxxxxxxxxxxxxxxxxxxxxxxxxxxxxx   
.................... unsigned int8 g_lcd[4]={0,0,0,0};  
.................... #define glcd_ct g_lcd[0] 
.................... #define glcd_dt g_lcd[1] 
.................... #define lcd_ct  g_lcd[2]      
.................... #define lcd_dt  g_lcd[3] 
.................... //xxxxxxxxxxxxxxxxxxxxxxxxxxxxxxxxxxxxxxxxxxxxxxxxxxxxxxxx     
.................... //ham 601: xuat du lieu 4 byte ra glcd va lcd 
.................... //xxxxxxxxxxxxxxxxxxxxxxxxxxxxxxxxxxxxxxxxxxxxxxxxxxxxxxxx  
.................... void xuat_glcd_lcd() 
.................... {                                                   
....................    xuat_1byte(glcd_ct); xuat_1byte(glcd_dt); 
*
0408:  MOVFF  26,4BC
040C:  RCALL  031E
040E:  MOVFF  27,4BC
0412:  RCALL  031E
....................    xuat_1byte(lcd_ct);  xuat_1byte(lcd_dt);        
0414:  MOVFF  28,4BC
0418:  RCALL  031E
041A:  MOVFF  29,4BC
041E:  RCALL  031E
....................           
....................    output_high(rck_lcd);      
0420:  BCF    F95.2
0422:  BSF    F8C.2
....................    output_low(rck_lcd);                           
0424:  BCF    F95.2
0426:  BCF    F8C.2
0428:  RETURN 0
.................... } 
.................... //xxxxxxxxxxxxxxxxxxxxxxxxxxxxxxxxxxxxxxxxxxxxxxxxxxxxxxxx     
.................... //ham 602: ham xuat 2 byte ra lcd  
.................... //xxxxxxxxxxxxxxxxxxxxxxxxxxxxxxxxxxxxxxxxxxxxxxxxxxxxxxxx  
.................... void xuat_lcd(usi8 lcd_ctr,lcd_dta) 
.................... {      
....................    lcd_ct = ~lcd_ctr;        
042A:  MOVLB  4
042C:  MOVFF  4B5,28
0430:  COMF   28,F
....................    lcd_dt = ~lcd_dta;       
0432:  MOVFF  4B6,29
0436:  COMF   29,F
....................    xuat_glcd_lcd(); 
0438:  MOVLB  0
043A:  RCALL  0408
043C:  RETURN 0
.................... } 
.................... //xxxxxxxxxxxxxxxxxxxxxxxxxxxxxxxxxxxxxxxxxxxxxxxxxxxxxxxx     
.................... //ham 603: ham xuat 2 byte ra glcd  
.................... //xxxxxxxxxxxxxxxxxxxxxxxxxxxxxxxxxxxxxxxxxxxxxxxxxxxxxxxx  
.................... void xuat_glcd(usi8 glcd_ctr,glcd_dta) 
.................... {      
....................    glcd_ct = ~glcd_ctr;      
*
0AA0:  MOVLB  4
0AA2:  MOVFF  4BA,26
0AA6:  COMF   26,F
....................    glcd_dt = ~glcd_dta;      
0AA8:  MOVFF  4BB,27
0AAC:  COMF   27,F
....................    xuat_glcd_lcd(); 
0AAE:  MOVLB  0
0AB0:  RCALL  0408
0AB2:  RETURN 0
.................... } 
....................  
.................... #include <tv_06_lcd.c>       //cac ham lcd   
.................... //xxxxxxxxxxxxxxxxxxxxxxxxxxxxxxxxxxxxxxxxxxxxxxxxxxxxxxxx 
.................... //NGUYEN DINH PHU SU PHAM KY THUAT TP HCM 
.................... //xxxxxxxxxxxxxxxxxxxxxxxxxxxxxxxxxxxxxxxxxxxxxxxxxxxxxxxx 
....................  
.................... //xxxxxxxxxxxxxxxxxxxxxxxxxxxxxxxxxxxxxxxxxxxxxxxxxxxxxxxx 
.................... //dinh nghia bien dieu khien LCD va cac bit cua bien 
.................... //xxxxxxxxxxxxxxxxxxxxxxxxxxxxxxxxxxxxxxxxxxxxxxxxxxxxxxxx   
.................... unsigned int8 lcd_ctrl = 0xff;                      
.................... #bit lcd_p  = lcd_ctrl.3                                        
.................... #bit lcd_rs = lcd_ctrl.2 
.................... #bit lcd_rw = lcd_ctrl.1                                           
.................... #bit lcd_e  = lcd_ctrl.0              
....................                                                             
.................... //xxxxxxxxxxxxxxxxxxxxxxxxxxxxxxxxxxxxxxxxxxxxxxxxxxxxxxxx 
.................... //Dinh nghia cac lenh dieu khien cua LCD 
.................... //xxxxxxxxxxxxxxxxxxxxxxxxxxxxxxxxxxxxxxxxxxxxxxxxxxxxxxxx   
.................... #define lcd_clear_display      0x01     
.................... #define lcd_cursor_home        0x02                                                                                  
.................... //Lenh function set co nhieu bit lua chon 
.................... #define lcd_fs_function_set    0x20   //constant  
.................... #define fs_8bit                0x10                 
.................... #define fs_2line               0x08 
.................... #define fs_5x10                0x04 
.................... //Lenh dieu khien hien thi  
.................... #define lcd_dc_display_control 0x08  //constant 
.................... #define dc_display_on          0x04   
.................... #define dc_cursor_on           0x02 
.................... #define dc_blink_on            0x01                                                           
.................... //Lenh display entry mode */   
.................... #define lcd_em_entry_mode      0x04  //constant  
.................... #define em_shift_inc           0x01                       
.................... #define em_left                0x02                                                 
....................  
.................... /* Flags for display/cursor shift */                            
.................... #define lcd_cd_cursor_display  0x10   //constant               
.................... #define cd_display_move        0x08 
.................... #define cd_move_right          0x04 
....................  
.................... #define lcd_shift_left         0x18  
.................... #define lcd_shift_right        0x1C  
....................  
.................... #define lcd_ddram_addr         0x80 
.................... #define lcd_cgram_addr         0x40 
.................... //xxxxxxxxxxxxxxxxxxxxxxxxxxxxxxxxxxxxxxxxxxxxxxxxxxxxxxxx   
.................... void lcd_goto_xy(usi8 x,usi8 y); 
.................... void lcd_xuat_8bit(int8 db); 
.................... void lcd_command(int8 db); 
.................... void lcd_data(int8 db); 
.................... void lcd_puts(usi8 x, usi8 y, char* str);                  
.................... void lcd_setup();                                         
.................... //xxxxxxxxxxxxxxxxxxxxxxxxxxxxxxxxxxxxxxxxxxxxxxxxxxxxxxxx   
.................... //ham 604: ham xuat 8bit ra lcd 
.................... //xxxxxxxxxxxxxxxxxxxxxxxxxxxxxxxxxxxxxxxxxxxxxxxxxxxxxxxx   
.................... void lcd_xuat(int8 db)  
.................... {                                                      
....................    lcd_e=1; xuat_lcd(lcd_ctrl,db);    
*
043E:  BSF    2A.0
0440:  MOVFF  2A,4B5
0444:  MOVFF  4B4,4B6
0448:  RCALL  042A
....................    delay_us(20);                        
044A:  MOVLW  20
044C:  MOVWF  00
044E:  DECFSZ 00,F
0450:  BRA    044E
0452:  BRA    0454
0454:  NOP   
....................    lcd_e=0; xuat_lcd(lcd_ctrl,db);      
0456:  BCF    2A.0
0458:  MOVFF  2A,4B5
045C:  MOVFF  4B4,4B6
0460:  RCALL  042A
0462:  RETURN 0
.................... }                                                               
.................... //xxxxxxxxxxxxxxxxxxxxxxxxxxxxxxxxxxxxxxxxxxxxxxxxxxxxxxxx     
.................... //ham 605: ham xuat ma lenh dk lcd 
.................... //xxxxxxxxxxxxxxxxxxxxxxxxxxxxxxxxxxxxxxxxxxxxxxxxxxxxxxxx  
.................... void lcd_command(int8 db)    
.................... { 
....................    lcd_rs = 0; lcd_xuat(db);                                        
0464:  BCF    2A.2
0466:  MOVFF  4B3,4B4
046A:  RCALL  043E
046C:  RETURN 0
.................... } 
.................... //xxxxxxxxxxxxxxxxxxxxxxxxxxxxxxxxxxxxxxxxxxxxxxxxxxxxxxxx   
.................... //ham 606: ham xuat du lieu ra lcd 
.................... //xxxxxxxxxxxxxxxxxxxxxxxxxxxxxxxxxxxxxxxxxxxxxxxxxxxxxxxx  
.................... void lcd_data(int8 db)        
.................... { 
....................    lcd_rs = 1; lcd_xuat(db); 
*
04F2:  BSF    2A.2
04F4:  MOVFF  4B2,4B4
04F8:  RCALL  043E
04FA:  RETURN 0
.................... }                                         
.................... //xxxxxxxxxxxxxxxxxxxxxxxxxxxxxxxxxxxxxxxxxxxxxxxxxxxxxxxx   
.................... //ham 607: ham khoi tao lcd 
.................... //xxxxxxxxxxxxxxxxxxxxxxxxxxxxxxxxxxxxxxxxxxxxxxxxxxxxxxxx  
.................... void lcd_setup() 
.................... {                      
....................    lcd_e  = 0;   lcd_rw = 0;  
*
0496:  BCF    2A.0
0498:  BCF    2A.1
....................    lcd_rs = 1;   lcd_p  = 0; 
049A:  BSF    2A.2
049C:  BCF    2A.3
....................    lcd_command(lcd_fs_function_set|fs_8bit|fs_2line);          
049E:  MOVLW  38
04A0:  MOVLB  4
04A2:  MOVWF  xB3
04A4:  MOVLB  0
04A6:  RCALL  0464
....................    delay_us(40);   
04A8:  MOVLW  42
04AA:  MOVWF  00
04AC:  DECFSZ 00,F
04AE:  BRA    04AC
04B0:  NOP   
....................    lcd_command(lcd_dc_display_control|dc_display_on);    
04B2:  MOVLW  0C
04B4:  MOVLB  4
04B6:  MOVWF  xB3
04B8:  MOVLB  0
04BA:  RCALL  0464
....................    delay_us(40); 
04BC:  MOVLW  42
04BE:  MOVWF  00
04C0:  DECFSZ 00,F
04C2:  BRA    04C0
04C4:  NOP   
....................    lcd_command(lcd_clear_display);       
04C6:  MOVLW  01
04C8:  MOVLB  4
04CA:  MOVWF  xB3
04CC:  MOVLB  0
04CE:  RCALL  0464
....................    delay_ms(2);       
04D0:  MOVLW  02
04D2:  MOVLB  4
04D4:  MOVWF  xB8
04D6:  MOVLB  0
04D8:  RCALL  046E
....................    lcd_command(lcd_em_entry_mode|em_left);        
04DA:  MOVLW  06
04DC:  MOVLB  4
04DE:  MOVWF  xB3
04E0:  MOVLB  0
04E2:  RCALL  0464
....................    delay_us(40);                 
04E4:  MOVLW  42
04E6:  MOVWF  00
04E8:  DECFSZ 00,F
04EA:  BRA    04E8
04EC:  NOP   
04EE:  GOTO   3436 (RETURN)
.................... }             
.................... //xxxxxxxxxxxxxxxxxxxxxxxxxxxxxxxxxxxxxxxxxxxxxxxxxxxxxxxx   
.................... //ham 608: di chuyen con tro den toa do x,y 
.................... //xxxxxxxxxxxxxxxxxxxxxxxxxxxxxxxxxxxxxxxxxxxxxxxxxxxxxxxx  
.................... void lcd_goto_xy(usi8 x,usi8 y)  
.................... {                       
....................    const unsigned int8 lcd_vitri[]={0x80,0xc0,0x94,0xd4}; 
....................    lcd_command(lcd_vitri[x]+y);    //delay_us(20); 
*
0710:  CLRF   03
0712:  MOVLB  4
0714:  MOVF   xB0,W
0716:  MOVFF  FF2,4B2
071A:  BCF    FF2.7
071C:  MOVLB  0
071E:  RCALL  0024
0720:  MOVLB  4
0722:  BTFSC  xB2.7
0724:  BSF    FF2.7
0726:  ADDWF  xB1,W
0728:  MOVWF  xB2
072A:  MOVWF  xB3
072C:  MOVLB  0
072E:  RCALL  0464
0730:  RETURN 0
.................... }  
.................... //xxxxxxxxxxxxxxxxxxxxxxxxxxxxxxxxxxxxxxxxxxxxxxxxxxxxxxxx            
.................... //ham 609: ham xoa man hinh LCD 
.................... //xxxxxxxxxxxxxxxxxxxxxxxxxxxxxxxxxxxxxxxxxxxxxxxxxxxxxxxx  
.................... void lcd_clear()  
.................... {                       
....................    lcd_command(lcd_clear_display);       
....................    delay_ms(2); 
.................... }  
.................... //xxxxxxxxxxxxxxxxxxxxxxxxxxxxxxxxxxxxxxxxxxxxxxxxxxxxxxxx 
.................... //ham 609: ham mo den backlight lcd  
.................... //xxxxxxxxxxxxxxxxxxxxxxxxxxxxxxxxxxxxxxxxxxxxxxxxxxxxxxxx   
.................... void lcd_back_light_on() 
.................... { 
....................    lcd_p = 0; xuat_lcd(lcd_ctrl,0x00);    
.................... } 
.................... //xxxxxxxxxxxxxxxxxxxxxxxxxxxxxxxxxxxxxxxxxxxxxxxxxxxxxxxx 
.................... //ham 610: tat den backlight lcd  
.................... //xxxxxxxxxxxxxxxxxxxxxxxxxxxxxxxxxxxxxxxxxxxxxxxxxxxxxxxx   
.................... void lcd_back_light_off() 
.................... { 
....................    lcd_p = 1;  xuat_lcd(lcd_ctrl,0x00);     
.................... } 
.................... //xxxxxxxxxxxxxxxxxxxxxxxxxxxxxxxxxxxxxxxxxxxxxxxxxxxxxxxx   
.................... //ham 611: hien thi mang trn lcd tai x,y (hang,cot) 
.................... //xxxxxxxxxxxxxxxxxxxxxxxxxxxxxxxxxxxxxxxxxxxxxxxxxxxxxxxx  
.................... void lcd_puts(usi8 x, usi8 y, unsigned  char* str)  
.................... {                  
....................    while (*str)  
....................    { 
....................       if(y>=20)  
....................       { 
....................          y = 0;   x++; 
....................       } 
....................       if(x>=4) x = 0; 
....................       lcd_goto_xy(x,y);       
....................       if (*str == '\n')  
....................       {                    
....................          x++; 
....................          lcd_goto_xy(x,y); 
....................       }  
....................       else if (*str == '\r')  
....................       { 
....................          lcd_goto_xy(0,y); 
....................       }  
....................       else  
....................          { 
....................             lcd_data(*str); 
....................             y++;                       
....................              
....................          } 
....................       str++; 
....................    } 
.................... } 
.................... //xxxxxxxxxxxxxxxxxxxxxxxxxxxxxxxxxxxxxxxxxxxxxxxxxxxxxxxx   
.................... //mang so to cua LCD 
.................... //xxxxxxxxxxxxxxxxxxxxxxxxxxxxxxxxxxxxxxxxxxxxxxxxxxxxxxxx  
.................... const unsigned int8 lcd_so_to[10][6] ={ 
....................                   0,1,2,4,3,5,    // so 0 
....................                   1,2,32,3,7,3,   // so 1 
....................                   6,6,2,4,3,3,    // so 2 
....................                   6,6,2,3,3,5,    // so 3 
....................                   7,3,7,32,32,7,  // so 4 
....................                   7,6,6,3,3,5,    // so 5                                
....................                   0,6,6,4,3,5,    // so 6 
....................                   1,1,7,32,32,7,  // so 7 
....................                   0,6,2,4,3,5,    // so 8 
....................                   0,6,2,3,3,5};   // so 9 
.................... //xxxxxxxxxxxxxxxxxxxxxxxxxxxxxxxxxxxxxxxxxxxxxxxxxxxxxxxx   
.................... //mang tung doan so to cua LCD 
.................... //xxxxxxxxxxxxxxxxxxxxxxxxxxxxxxxxxxxxxxxxxxxxxxxxxxxxxxxx                    
.................... const unsigned int8 lcd_ma_8doan[] = { 
....................    0x07,0x0f,0x1f,0x1f,0x1f,0x1f,0x1f,0x1f,  //doan f - 0 
....................    0x1f,0x1f,0x1f,0x00,0x00,0x00,0x00,0x00,  //doan a - 1 
....................    0x1c,0x1e,0x1f,0x1f,0x1f,0x1f,0x1f,0x1f,  //doan b - 2 
....................    0x00,0x00,0x00,0x00,0x00,0x1f,0x1f,0x1f,  //doan d - 3 
....................    0x1f,0x1f,0x1f,0x1f,0x1f,0x1f,0x0f,0x07,  //doan e - 4 
....................    0x1f,0x1f,0x1f,0x1f,0x1f,0x1f,0x1e,0x1c,  //doan c - 5       
....................    0x1f,0x1f,0x1f,0x00,0x00,0x00,0x1f,0x1f,  //doan g+d-6  
....................    0x1f,0x1f,0x1f,0x1f,0x1f,0x1f,0x1f,0x1f}; //doan i  -7      
.................... //xxxxxxxxxxxxxxxxxxxxxxxxxxxxxxxxxxxxxxxxxxxxxxxxxxxxxxxx   
.................... //ham 612: copy mang so to vao cgram 
.................... //xxxxxxxxxxxxxxxxxxxxxxxxxxxxxxxxxxxxxxxxxxxxxxxxxxxxxxxx                                   
.................... void lcd_khoi_tao_cgram_so_to()                                                   
.................... {                                                                       
....................    usi8 i; 
....................    lcd_command(lcd_cgram_addr); 
*
04FC:  MOVLW  40
04FE:  MOVLB  4
0500:  MOVWF  xB3
0502:  MOVLB  0
0504:  RCALL  0464
....................    for(i=0;i<64;i++)   
0506:  MOVLB  4
0508:  CLRF   xA3
050A:  MOVF   xA3,W
050C:  SUBLW  3F
050E:  BNC   0532
....................      lcd_data(lcd_ma_8doan[i]);   
0510:  CLRF   03
0512:  MOVF   xA3,W
0514:  MOVFF  FF2,4A4
0518:  BCF    FF2.7
051A:  MOVLB  0
051C:  RCALL  0084
051E:  MOVLB  4
0520:  BTFSC  xA4.7
0522:  BSF    FF2.7
0524:  MOVWF  xA4
0526:  MOVWF  xB2
0528:  MOVLB  0
052A:  RCALL  04F2
052C:  MOVLB  4
052E:  INCF   xA3,F
0530:  BRA    050A
0532:  MOVLB  0
0534:  GOTO   343A (RETURN)
.................... }          
.................... //xxxxxxxxxxxxxxxxxxxxxxxxxxxxxxxxxxxxxxxxxxxxxxxxxxxxxxxx   
.................... //ham 613: hien thi so to tai toa do x,y 
.................... //xxxxxxxxxxxxxxxxxxxxxxxxxxxxxxxxxxxxxxxxxxxxxxxxxxxxxxxx  
.................... void lcd_hien_thi_so_to(si8 so, x, y)  
.................... {                         
....................    usi8 i; 
....................    lcd_goto_xy(x,y); 
*
293C:  MOVFF  4A6,4B0
2940:  MOVFF  4A7,4B1
2944:  CALL   0710
....................    for(i=0;i<6;i++) 
2948:  MOVLB  4
294A:  CLRF   xA8
294C:  MOVF   xA8,W
294E:  SUBLW  05
2950:  BNC   29B2
....................    {                                                            
....................       if(i==3) lcd_goto_xy(x+1,y); 
2952:  MOVF   xA8,W
2954:  SUBLW  03
2956:  BNZ   296C
2958:  MOVLW  01
295A:  ADDWF  xA6,W
295C:  MOVWF  xA9
295E:  MOVWF  xB0
2960:  MOVFF  4A7,4B1
2964:  MOVLB  0
2966:  CALL   0710
296A:  MOVLB  4
....................       lcd_data(lcd_so_to[so][i]); 
296C:  MOVFF  4A5,4C0
2970:  MOVLW  06
2972:  MOVWF  xC1
2974:  MOVLB  0
2976:  CALL   1238
297A:  MOVF   01,W
297C:  MOVLB  4
297E:  CLRF   xAA
2980:  MOVWF  xA9
2982:  CLRF   03
2984:  MOVF   xA8,W
2986:  ADDWF  xA9,W
2988:  MOVWF  01
298A:  MOVF   xAA,W
298C:  ADDWFC 03,F
298E:  MOVF   01,W
2990:  MOVFF  FF2,4A9
2994:  BCF    FF2.7
2996:  MOVLB  0
2998:  CALL   0038
299C:  MOVLB  4
299E:  BTFSC  xA9.7
29A0:  BSF    FF2.7
29A2:  MOVWF  xA9
29A4:  MOVWF  xB2
29A6:  MOVLB  0
29A8:  CALL   04F2
29AC:  MOVLB  4
29AE:  INCF   xA8,F
29B0:  BRA    294C
....................    }                         
29B2:  MOVLB  0
29B4:  RETURN 0
.................... }  
.................... //xxxxxxxxxxxxxxxxxxxxxxxxxxxxxxxxxxxxxxxxxxxxxxxxxxxxxxxx   
.................... //ham 614: xoa so to tai toa do x,y 
.................... //xxxxxxxxxxxxxxxxxxxxxxxxxxxxxxxxxxxxxxxxxxxxxxxxxxxxxxxx  
.................... void lcd_xoa_so_to(si8 x, y) 
.................... {   
....................    usi8 i; 
....................    lcd_goto_xy(x,y);          
....................    for(i=0;i<6;i++) 
....................    {             
....................       if(i==3) lcd_goto_xy(x+1,y);     
....................       lcd_data(' '); 
....................    } 
.................... }  
.................... //xxxxxxxxxxxxxxxxxxxxxxxxxxxxxxxxxxxxxxxxxxxxxxxxxxxxxxxx   
.................... //ham 615: hien thi so hex toa do x,y 
.................... //xxxxxxxxxxxxxxxxxxxxxxxxxxxxxxxxxxxxxxxxxxxxxxxxxxxxxxxx  
.................... void lcd_hthi_byte(usi8 sh,x,y)  
.................... {   
....................    usi8 bh,bl; 
....................    lcd_goto_xy(x,y); 
....................    bh=sh/16; bl=sh%16;                                                 
....................    if(bh>9) lcd_data(bh+0x37); 
....................    else     lcd_data(bh+0x30); 
....................    if(bl>9) lcd_data(bl+0x37); 
....................    else     lcd_data(bl+0x30); 
.................... }  
.................... //xxxxxxxxxxxxxxxxxxxxxxxxxxxxxxxxxxxxxxxxxxxxxxxxxxxxxxxx   
.................... //ham 616: giai ma hien thi 2 so tai toa do x,y 
.................... //xxxxxxxxxxxxxxxxxxxxxxxxxxxxxxxxxxxxxxxxxxxxxxxxxxxxxxxx  
.................... void lcd_gm_ht_2so_nho_xvn(usi16 so,usi8 x,usi8 y,int1 xvn)       
.................... {                            
....................    usi8 ch,dv;           
....................    lcd_goto_xy(x,y);                    
....................    ch = so/10%10+0x30;  dv = so%10+0x30; 
....................    if(xvn)  
....................    { 
....................       if(ch==0x30) ch=" "; 
....................    } 
....................    lcd_data(ch);   
....................    lcd_data(dv);    
.................... } 
.................... //xxxxxxxxxxxxxxxxxxxxxxxxxxxxxxxxxxxxxxxxxxxxxxxxxxxxxxxx   
.................... //ham 617: giai ma hien thi 3 so tai toa do x,y 
.................... //xxxxxxxxxxxxxxxxxxxxxxxxxxxxxxxxxxxxxxxxxxxxxxxxxxxxxxxx  
.................... void lcd_gm_ht_3so_nho_xvn(usi16 so,usi8 x,usi8 y,int1 xvn)       
.................... {                            
....................    usi8 tr,ch,dv;           
....................    lcd_goto_xy(x,y);                    
....................    tr = so/100%10+0x30;  
....................    ch = so/10%10+0x30;         
....................    dv = so%10+0x30; 
....................    if(xvn)  
....................    { 
....................       if(tr==0x30) 
....................       {      
....................          tr=" "; 
....................          if(ch==0x30) ch=" "; 
....................       } 
....................    } 
....................    lcd_data(tr);     
....................    lcd_data(ch);   
....................    lcd_data(dv);    
.................... } 
.................... //xxxxxxxxxxxxxxxxxxxxxxxxxxxxxxxxxxxxxxxxxxxxxxxxxxxxxxxx   
.................... //ham 618: giai ma hien thi 4 so tai toa do x,y 
.................... //xxxxxxxxxxxxxxxxxxxxxxxxxxxxxxxxxxxxxxxxxxxxxxxxxxxxxxxx  
.................... void lcd_gm_ht_4so_nho_xvn(usi16 so,usi8 x,usi8 y,int1 xvn)       
.................... {                            
....................    usi8 ng,tr,ch,dv;           
....................    lcd_goto_xy(x,y);                 
....................    ng = so/1000%10+0x30;     
....................    tr = so/100%10+0x30;  
....................    ch = so/10%10+0x30;         
....................    dv = so%10+0x30; 
....................    if(xvn)  
....................    { 
....................       if(ng==0x30) 
....................       {   
....................          ng=" "; 
....................          if(tr==0x30) 
....................          {      
....................             tr=" "; 
....................             if(ch==0x30) ch=" "; 
....................          } 
....................       } 
....................    } 
....................    lcd_data(ng);  lcd_data(tr);     
....................    lcd_data(ch);  lcd_data(dv);    
.................... } 
.................... //xxxxxxxxxxxxxxxxxxxxxxxxxxxxxxxxxxxxxxxxxxxxxxxxxxxxxxxx   
.................... //ham 619: giai ma hien thi 5 so tai toa do x,y 
.................... //xxxxxxxxxxxxxxxxxxxxxxxxxxxxxxxxxxxxxxxxxxxxxxxxxxxxxxxx  
.................... void lcd_gm_ht_5so_nho_xvn(usi16 so,usi8 x,usi8 y)       
.................... {                            
....................    usi8 cn,ng,tr,ch,dv;           
....................    lcd_goto_xy(x,y); 
....................    cn = so/10000%10+0x30;     
....................    ng = so/1000%10+0x30;     
....................    tr = so/100%10+0x30;  
....................    ch = so/10%10+0x30;         
....................    dv = so%10+0x30; 
....................    if(cn==0x30) 
....................    { 
....................      cn=" "; 
....................      if(ng==0x30) 
....................       {   
....................         ng=" "; 
....................         if(tr==0x30) 
....................         {      
....................         tr=" "; 
....................         if(ch==0x30) ch=" "; 
....................       } 
....................       } 
....................    } 
....................    lcd_data(cn); 
....................    lcd_data(ng);  lcd_data(tr);     
....................    lcd_data(ch);  lcd_data(dv);    
.................... } 
.................... //xxxxxxxxxxxxxxxxxxxxxxxxxxxxxxxxxxxxxxxxxxxxxxxxxxxxxxxx   
.................... //ham 620: giai ma hien thi 2 so to tai toa do x,y 
.................... //xxxxxxxxxxxxxxxxxxxxxxxxxxxxxxxxxxxxxxxxxxxxxxxxxxxxxxxx  
.................... void lcd_gm_ht_2so_to_xvn(usi16 so,usi8 x,usi8 y,int1 xvn) 
.................... {  
....................    usi8 ch,dv;     
....................    lcd_goto_xy(x,y); 
....................    ch = so/10%10;         
....................    dv = so%10; 
....................    lcd_hien_thi_so_to(ch,x,y);                
....................    lcd_hien_thi_so_to(dv,x,y+3);   
....................    if((ch==0)&&(xvn)) lcd_xoa_so_to(x,y); 
.................... } 
.................... //xxxxxxxxxxxxxxxxxxxxxxxxxxxxxxxxxxxxxxxxxxxxxxxxxxxxxxxx   
.................... //ham 621: giai ma hien thi 3 so to tai toa do x,y 
.................... //xxxxxxxxxxxxxxxxxxxxxxxxxxxxxxxxxxxxxxxxxxxxxxxxxxxxxxxx  
.................... void lcd_gm_ht_3so_to_xvn(usi16 so,usi8 x,usi8 y,int1 xvn) 
.................... {  
....................    usi8 tr,ch,dv;           
....................    lcd_goto_xy(x,y);                    
....................    tr = so/100%10;  
....................    ch = so/10%10;         
....................    dv = so%10; 
....................    lcd_hien_thi_so_to(tr,x,y);                
....................    lcd_hien_thi_so_to(ch,x,y+3);   
....................    lcd_hien_thi_so_to(dv,x,y+6); 
....................    if((tr==0)&&(xvn)) 
....................    {      
....................       lcd_xoa_so_to(x,y); 
....................       if(ch==0) lcd_xoa_so_to(x,y+3); 
....................    } 
.................... } 
.................... //xxxxxxxxxxxxxxxxxxxxxxxxxxxxxxxxxxxxxxxxxxxxxxxxxxxxxxxx   
.................... //ham 622: giai ma hien thi 4 so to tai toa do x,y 
.................... //xxxxxxxxxxxxxxxxxxxxxxxxxxxxxxxxxxxxxxxxxxxxxxxxxxxxxxxx  
.................... void lcd_gm_ht_4so_to_xvn(usi16 so,usi8 x,usi8 y,int1 xvn) 
.................... {  
....................    usi8 ng,tr,ch,dv;           
....................    lcd_goto_xy(x,y);                    
....................    ng = so/1000%10;  
....................    tr = so/100%10;  
....................    ch = so/10%10;         
....................    dv = so%10; 
....................    lcd_hien_thi_so_to(ng,x,y);                
....................    lcd_hien_thi_so_to(tr,x,y+3);   
....................    lcd_hien_thi_so_to(ch,x,y+6); 
....................    lcd_hien_thi_so_to(dv,x,y+9);   
....................    if((ng==0)&&(xvn)) 
....................    {      
....................       lcd_xoa_so_to(x,y); 
....................       if(tr==0)  
....................      { 
....................       lcd_xoa_so_to(x,y+3); 
....................       if(ch==0) lcd_xoa_so_to(x,y+6); 
....................      } 
....................    } 
.................... } 
.................... //xxxxxxxxxxxxxxxxxxxxxxxxxxxxxxxxxxxxxxxxxxxxxxxxxxxxxxxx   
.................... //ham 623: giai ma hien thi 4 so to tai toa do x,y 
.................... //xxxxxxxxxxxxxxxxxxxxxxxxxxxxxxxxxxxxxxxxxxxxxxxxxxxxxxxx  
.................... void lcd_gm_ht_5so_to_xvn(usi16 so,usi8 x,usi8 y,int1 xvn) 
.................... {  
....................    usi8 cn,ng,tr,ch,dv;  
....................  
....................       lcd_goto_xy(x,y); 
....................       ng = so/1000%10;  
....................       ng = so/1000%10;  
....................       tr = so/100%10;  
....................       ch = so/10%10;         
....................       dv = so%10; 
....................       lcd_hien_thi_so_to(cn,x,y);                
....................       lcd_hien_thi_so_to(ng,x,y+3);   
....................       lcd_hien_thi_so_to(tr,x,y+6); 
....................       lcd_hien_thi_so_to(ch,x,y+9);  
....................       lcd_hien_thi_so_to(dv,x,y+12); 
....................       if((cn==0)&&(xvn)) 
....................       {      
....................          lcd_xoa_so_to(x,y); 
....................          if(ng==0)  
....................          { 
....................             lcd_xoa_so_to(x,y+3); 
....................             if(tr==0)  
....................             { 
....................                lcd_xoa_so_to(x,y+6); 
....................                if(ch==0) lcd_xoa_so_to(x,y+9); 
....................             } 
....................          } 
....................       } 
.................... } 
.................... //xxxxxxxxxxxxxxxxxxxxxxxxxxxxxxxxxxxxxxxxxxxxxxxxxxxxxxxx   
.................... //ham 624: giai ma hien thi 4 so to tai toa do x,y 
.................... //xxxxxxxxxxxxxxxxxxxxxxxxxxxxxxxxxxxxxxxxxxxxxxxxxxxxxxxx  
.................... void lcd_hien_thi_2so_tp_nho(usi8 tp,usi8 x, y) 
.................... {    
....................    lcd_goto_xy(x,y); 
....................    lcd_data(".");                                         
....................    lcd_data(tp/10%10+0x30); 
....................    lcd_data(tp%10+0x30);    
.................... }   
....................  
.................... void lcd_hien_thi_3so_tp_nho(usi16 tp,usi8 x, y) 
.................... {    
....................    lcd_goto_xy(x,y); 
....................    lcd_data(".");    
....................    lcd_data(tp/100+0x30); 
....................    lcd_data(tp/10%10+0x30); 
....................    lcd_data(tp%10+0x30);    
.................... } 
....................  
.................... void lcd_hien_thi_1so_tp_nho(usi8 tp,usi8 x, y) 
.................... {    
....................    lcd_goto_xy(x,y); 
....................    lcd_data(".");                                         
....................    //lcd_data(tp/10%10+0x30); 
....................    lcd_data(tp%10+0x30);    
.................... }   
....................  
....................  
.................... #include <tv_dht11.c>                                             
.................... //xxxxxxxxxxxxxxxxxxxxxxxxxxxxxxxxxxxxxxxxxxxxxxxxxxxxxxxx 
.................... //NGUYEN DINH PHU SU PHAM KY THUAT TP HCM 
.................... //xxxxxxxxxxxxxxxxxxxxxxxxxxxxxxxxxxxxxxxxxxxxxxxxxxxxxxxx 
....................  
.................... #define dht11_pin_low()    output_drive(dht11); output_low(dht11) 
.................... #define dht11_pin_high()   output_drive(dht11); output_high(dht11) 
.................... #define dht11_pin_float()  output_float(dht11) 
.................... #define dht11_pin_read()   input_state(dht11)   
.................... //xxxxxxxxxxxxxxxxxxxxxxxxxxxxxxxxxxxxxxxxxxxxxxxxxxxxxxx 
.................... //ham bat dau giao tiep dht11 
.................... //xxxxxxxxxxxxxxxxxxxxxxxxxxxxxxxxxxxxxxxxxxxxxxxxxxxxxxx   
.................... void dht11_start()         
.................... {                                 
....................    dht11_pin_low(); 
....................    delay_ms(20);                                        
....................    dht11_pin_high(); 
....................    dht11_pin_float(); 
....................    delay_us(40);    
.................... }  
.................... //xxxxxxxxxxxxxxxxxxxxxxxxxxxxxxxxxxxxxxxxxxxxxxxxxxxxxxx 
.................... //ham kiem tra dap ung cua DHT11:do thuc te cac thong so 
.................... //xxxxxxxxxxxxxxxxxxxxxxxxxxxxxxxxxxxxxxxxxxxxxxxxxxxxxxx   
.................... int1 dht11_check_response()         
.................... {                                 
....................    unsigned int8 cnt=0;    
....................    int1 tt=1, tt1=1; 
....................    do 
....................    { 
....................       if(dht11_pin_read()==0) cnt++; //       
....................       else                    tt=0;  //het o muc 0,xung ln 1,        
....................    }while ((cnt<200)&&(tt==1));      //dung: cnt<200 v tt=1; sai  
....................                                                 
....................    cnt=0; tt1=1; 
....................    do 
....................    { 
....................       if(dht11_pin_read()==1) cnt++;        
....................       else                    tt1=0;  //het o muc 1, xung xuong muc 0        
....................    }while ((cnt<200)&&(tt1==1));               
....................    return tt;  
.................... }        
.................... //xxxxxxxxxxxxxxxxxxxxxxxxxxxxxxxxxxxxxxxxxxxxxxxxxxxxxxx 
.................... //ham doc 5 byte cua DHT11 
.................... //xxxxxxxxxxxxxxxxxxxxxxxxxxxxxxxxxxxxxxxxxxxxxxxxxxxxxxx   
.................... unsigned int8 dht11_read()         
.................... {                                                                                
....................    unsigned int8 kq,j;     
....................    for(j=0;j<8;j++)                                                
....................    {                                                          
....................       while(!dht11_pin_read());  //doi het muc 0     
....................       delay_us(30); 
....................       if(dht11_pin_read()==1)  
....................       {              
....................          kq = (kq<<1)+1;     
....................          delay_us(40);           //bit 1 thi them delay 
....................       }                           
....................       else kq = kq<<1;   
....................    }     
....................    return kq;  
.................... }   
.................... //xxxxxxxxxxxxxxxxxxxxxxxxxxxxxxxxxxxxxxxxxxxxxxxxxxxxxxx 
.................... //ham hien thi thong bao tren lcd khong co dht11 
.................... //xxxxxxxxxxxxxxxxxxxxxxxxxxxxxxxxxxxxxxxxxxxxxxxxxxxxxxx   
.................... void hien_thi_no_dht11()  
.................... {  
....................    lcd_goto_xy(0,0);                                                         
....................    lcd_data("NO DHT11");                                            
.................... }               
.................... //xxxxxxxxxxxxxxxxxxxxxxxxxxxxxxxxxxxxxxxxxxxxxxxxxxxxxxx 
.................... //ham hien thi thong bao check sum sai 
.................... //xxxxxxxxxxxxxxxxxxxxxxxxxxxxxxxxxxxxxxxxxxxxxxxxxxxxxxx   
.................... void hien_thi_sai_dht11()          
.................... {  
....................    lcd_goto_xy(0,0);                                                         
....................    lcd_data("DOC SAI DU LIEU DHT11");  
.................... } 
....................  
.................... #include <tv_08_relay_triac_buzzer_dc.c>   
.................... //xxxxxxxxxxxxxxxxxxxxxxxxxxxxxxxxxxxxxxxxxxxxxxxxxxxxxxxx 
.................... //NGUYEN DINH PHU SU PHAM KY THUAT TP HCM 
.................... //xxxxxxxxxxxxxxxxxxxxxxxxxxxxxxxxxxxxxxxxxxxxxxxxxxxxxxxx 
....................  
.................... //xxxxxxxxxxxxxxxxxxxxxxxxxxxxxxxxxxxxxxxxxxxxxxxxxxxxxxxx 
.................... //ham 801: dk relay,triac, buzzer, dong co, sim 
.................... //xxxxxxxxxxxxxxxxxxxxxxxxxxxxxxxxxxxxxxxxxxxxxxxxxxxxxxxx 
.................... void xuat_buzzer_relay() 
.................... {      
....................    unsigned int8 rbdc1,rbdc2; 
....................    rbdc1=rbdc; rbdc2=rbdc>>8;       
*
0A6E:  MOVFF  04,4A3
0A72:  MOVFF  05,4A4
....................    xuat_1byte(rbdc2);      xuat_1byte(rbdc1);             
0A76:  MOVFF  4A4,4BC
0A7A:  RCALL  031E
0A7C:  MOVFF  4A3,4BC
0A80:  RCALL  031E
....................    output_high(rck_rlb);    
0A82:  BCF    F95.3
0A84:  BSF    F8C.3
....................    output_low(rck_rlb); 
0A86:  BCF    F95.3
0A88:  BCF    F8C.3
0A8A:  RETURN 0
.................... }                                    
.................... //xxxxxxxxxxxxxxxxxxxxxxxxxxxxxxxxxxxxxxxxxxxxxxxxxxxxxxxx 
.................... //ham 802: dk buzzer on 
.................... //xxxxxxxxxxxxxxxxxxxxxxxxxxxxxxxxxxxxxxxxxxxxxxxxxxxxxxxx 
.................... void buzzer_on() 
.................... {     
....................    buzzer=1; 
....................    xuat_buzzer_relay();          
.................... } 
.................... //xxxxxxxxxxxxxxxxxxxxxxxxxxxxxxxxxxxxxxxxxxxxxxxxxxxxxxxx 
.................... //ham 803: dk buzzer off 
.................... //xxxxxxxxxxxxxxxxxxxxxxxxxxxxxxxxxxxxxxxxxxxxxxxxxxxxxxxx 
.................... void buzzer_off() 
.................... {      
....................    buzzer=0; 
....................    xuat_buzzer_relay(); 
.................... }   
.................... //xxxxxxxxxxxxxxxxxxxxxxxxxxxxxxxxxxxxxxxxxxxxxxxxxxxxxxxx 
.................... //ham 804: dk buzzer on roi off de tao bip 
.................... //xxxxxxxxxxxxxxxxxxxxxxxxxxxxxxxxxxxxxxxxxxxxxxxxxxxxxxxx 
.................... void buzzer_on_off(usi16 dl) 
.................... {      
....................    buzzer=1; 
....................    xuat_buzzer_relay(); 
....................    delay_ms(dl); 
....................    buzzer=0; 
....................    xuat_buzzer_relay(); 
.................... }   
.................... //xxxxxxxxxxxxxxxxxxxxxxxxxxxxxxxxxxxxxxxxxxxxxxxxxxxxxxxx 
.................... //ham 805: dk Relay 1 on 
.................... //xxxxxxxxxxxxxxxxxxxxxxxxxxxxxxxxxxxxxxxxxxxxxxxxxxxxxxxx 
.................... void relay_1_on() 
.................... {     
....................    relay_1=1; 
....................    xuat_buzzer_relay();          
.................... } 
.................... //xxxxxxxxxxxxxxxxxxxxxxxxxxxxxxxxxxxxxxxxxxxxxxxxxxxxxxxx 
.................... //ham 806: dk Relay 1 off 
.................... //xxxxxxxxxxxxxxxxxxxxxxxxxxxxxxxxxxxxxxxxxxxxxxxxxxxxxxxx 
.................... void relay_1_off() 
.................... {     
....................    relay_1=0; 
....................    xuat_buzzer_relay();          
.................... } 
.................... //xxxxxxxxxxxxxxxxxxxxxxxxxxxxxxxxxxxxxxxxxxxxxxxxxxxxxxxx 
.................... //ham 807: dk Relay 2 on 
.................... //xxxxxxxxxxxxxxxxxxxxxxxxxxxxxxxxxxxxxxxxxxxxxxxxxxxxxxxx 
.................... void relay_2_on() 
.................... {     
....................    relay_2=1; 
....................    xuat_buzzer_relay();          
.................... } 
.................... //xxxxxxxxxxxxxxxxxxxxxxxxxxxxxxxxxxxxxxxxxxxxxxxxxxxxxxxx 
.................... //ham 808: dk Relay 2 off 
.................... //xxxxxxxxxxxxxxxxxxxxxxxxxxxxxxxxxxxxxxxxxxxxxxxxxxxxxxxx 
.................... void relay_2_off() 
.................... {     
....................    relay_2=0; 
....................    xuat_buzzer_relay();          
.................... } 
.................... //xxxxxxxxxxxxxxxxxxxxxxxxxxxxxxxxxxxxxxxxxxxxxxxxxxxxxxxx 
.................... //ham 809: dk 2 Relay ON 
.................... //xxxxxxxxxxxxxxxxxxxxxxxxxxxxxxxxxxxxxxxxxxxxxxxxxxxxxxxx 
.................... void relay_1_relay_2_on() 
.................... {     
....................    relay_1=1;  relay_2=1; 
....................    xuat_buzzer_relay();          
.................... } 
.................... //xxxxxxxxxxxxxxxxxxxxxxxxxxxxxxxxxxxxxxxxxxxxxxxxxxxxxxxx 
.................... //ham 810: dk 2 Relay Off 
.................... //xxxxxxxxxxxxxxxxxxxxxxxxxxxxxxxxxxxxxxxxxxxxxxxxxxxxxxxx 
.................... void relay_1_relay_2_off() 
.................... {     
....................    relay_1=0;  relay_2=0; 
....................    xuat_buzzer_relay();          
.................... } 
.................... //xxxxxxxxxxxxxxxxxxxxxxxxxxxxxxxxxxxxxxxxxxxxxxxxxxxxxxxx 
.................... //ham 811: dk triac 1 on 
.................... //xxxxxxxxxxxxxxxxxxxxxxxxxxxxxxxxxxxxxxxxxxxxxxxxxxxxxxxx 
.................... void triac_1_on() 
.................... {     
....................    triac_1=1; 
....................    xuat_buzzer_relay();          
.................... } 
.................... //xxxxxxxxxxxxxxxxxxxxxxxxxxxxxxxxxxxxxxxxxxxxxxxxxxxxxxxx 
.................... //ham 812: dk triac 1 off 
.................... //xxxxxxxxxxxxxxxxxxxxxxxxxxxxxxxxxxxxxxxxxxxxxxxxxxxxxxxx 
.................... void triac_1_off() 
.................... {     
....................    triac_1=0; 
....................    xuat_buzzer_relay();          
.................... } 
.................... //xxxxxxxxxxxxxxxxxxxxxxxxxxxxxxxxxxxxxxxxxxxxxxxxxxxxxxxx 
.................... //ham 813: dk triac 2 on 
.................... //xxxxxxxxxxxxxxxxxxxxxxxxxxxxxxxxxxxxxxxxxxxxxxxxxxxxxxxx 
.................... void triac_2_on() 
.................... {     
....................    triac_2=1; 
....................    xuat_buzzer_relay();          
.................... } 
.................... //xxxxxxxxxxxxxxxxxxxxxxxxxxxxxxxxxxxxxxxxxxxxxxxxxxxxxxxx 
.................... //ham 814: dk triac 2 off 
.................... //xxxxxxxxxxxxxxxxxxxxxxxxxxxxxxxxxxxxxxxxxxxxxxxxxxxxxxxx 
.................... void triac_2_off()               
.................... {                                                        
....................    triac_2=0; 
....................    xuat_buzzer_relay();          
.................... }        
....................  
.................... #include <tv_07_adc_cb.c>                                           
.................... //xxxxxxxxxxxxxxxxxxxxxxxxxxxxxxxxxxxxxxxxxxxxxxxxxxxxxxxx 
.................... //NGUYEN DINH PHU SU PHAM KY THUAT TP HCM 
.................... //xxxxxxxxxxxxxxxxxxxxxxxxxxxxxxxxxxxxxxxxxxxxxxxxxxxxxxxx 
....................  
.................... //xxxxxxxxxxxxxxxxxxxxxxxxxxxxxxxxxxxxxxxxxxxxxxxxxxxxxxxx 
.................... //xxxxxxxxxxxxxxxxxxxxxxxxxxxxxxxxxxxxxxxxxxxxxxxxxxxxxxxx 
.................... //ham 701: chuyen doi theo kenh va so lan, tra ve T/F  
.................... //xxxxxxxxxxxxxxxxxxxxxxxxxxxxxxxxxxxxxxxxxxxxxxxxxxxxxxxx    
.................... //xxxxxxxxxxxxxxxxxxxxxxxxxxxxxxxxxxxxxxxxxxxxxxxxxxxxxxxx  
.................... //dinh nghia cac kenh ADC noi voi cac cam bien  
.................... #define chan_lm35a   0                         
.................... #define chan_lm35b   1 
.................... #define chan_cbkc    2 
.................... //xxxxxxxxxxxxxxxxxxxxxxxxxxxxxxxxxxxxxxxxxxxxxxxxxxxxxxxx   
.................... float h701_adc_read(usi8 solan,chan_i)                       
.................... { 
....................    float kq_adc; 
....................    set_adc_channel(chan_i);                
*
2A56:  MOVLB  4
2A58:  RLCF   xA9,W
2A5A:  MOVWF  00
2A5C:  RLCF   00,F
2A5E:  MOVLW  FC
2A60:  ANDWF  00,F
2A62:  MOVF   FC2,W
2A64:  ANDLW  C3
2A66:  IORWF  00,W
2A68:  MOVWF  FC2
....................    delay_us(20);                                           
2A6A:  MOVLW  20
2A6C:  MOVWF  00
2A6E:  DECFSZ 00,F
2A70:  BRA    2A6E
2A72:  BRA    2A74
2A74:  NOP   
....................    kq_adc = 0;              
2A76:  CLRF   xAD
2A78:  CLRF   xAC
2A7A:  CLRF   xAB
2A7C:  CLRF   xAA
....................    for(int8 i=0;i<solan;i++)   
2A7E:  CLRF   xAE
2A80:  MOVF   xA8,W
2A82:  SUBWF  xAE,W
2A84:  BC    2ADA
....................    { 
....................       kq_adc = kq_adc + read_adc();                         
2A86:  BSF    FC2.1
2A88:  BTFSC  FC2.1
2A8A:  BRA    2A88
2A8C:  MOVFF  FC4,03
2A90:  MOVFF  FC3,4E4
2A94:  MOVFF  FC4,4E5
2A98:  MOVLB  0
2A9A:  CALL   1A1E
2A9E:  BCF    FD8.1
2AA0:  MOVFF  4AD,4E7
2AA4:  MOVFF  4AC,4E6
2AA8:  MOVFF  4AB,4E5
2AAC:  MOVFF  4AA,4E4
2AB0:  MOVFF  03,4EB
2AB4:  MOVFF  02,4EA
2AB8:  MOVFF  01,4E9
2ABC:  MOVFF  00,4E8
2AC0:  CALL   1A54
2AC4:  MOVFF  03,4AD
2AC8:  MOVFF  02,4AC
2ACC:  MOVFF  01,4AB
2AD0:  MOVFF  00,4AA
2AD4:  MOVLB  4
2AD6:  INCF   xAE,F
2AD8:  BRA    2A80
....................    } 
....................    kq_adc = kq_adc/solan;      
2ADA:  CLRF   xE5
2ADC:  MOVFF  4A8,4E4
2AE0:  MOVLB  0
2AE2:  CALL   1A1E
2AE6:  MOVFF  4AD,4B2
2AEA:  MOVFF  4AC,4B1
2AEE:  MOVFF  4AB,4B0
2AF2:  MOVFF  4AA,4AF
2AF6:  MOVFF  03,4B6
2AFA:  MOVFF  02,4B5
2AFE:  MOVFF  01,4B4
2B02:  MOVFF  00,4B3
2B06:  CALL   1808
2B0A:  MOVFF  03,4AD
2B0E:  MOVFF  02,4AC
2B12:  MOVFF  01,4AB
2B16:  MOVFF  00,4AA
....................    return kq_adc;  
2B1A:  MOVFF  4AA,00
2B1E:  MOVFF  4AB,01
2B22:  MOVFF  4AC,02
2B26:  MOVFF  4AD,03
2B2A:  GOTO   2C30 (RETURN)
.................... } 
.................... //xxxxxxxxxxxxxxxxxxxxxxxxxxxxxxxxxxxxxxxxxxxxxxxxxxxxxxxx 
.................... //ham 702: tach so thuc thanh phan nguyen va thap phan 
.................... //xxxxxxxxxxxxxxxxxxxxxxxxxxxxxxxxxxxxxxxxxxxxxxxxxxxxxxxx   
.................... usi16 so_ng,so_tp; 
.................... void float_to_ng_2so_tp(float st)                       
.................... {    
....................    so_ng = st/1;       //nguyen                           
2B2E:  MOVFF  4AB,4B2
2B32:  MOVFF  4AA,4B1
2B36:  MOVFF  4A9,4B0
2B3A:  MOVFF  4A8,4AF
2B3E:  MOVLB  4
2B40:  CLRF   xB6
2B42:  CLRF   xB5
2B44:  CLRF   xB4
2B46:  MOVLW  7F
2B48:  MOVWF  xB3
2B4A:  MOVLB  0
2B4C:  CALL   1808
2B50:  MOVFF  03,4E3
2B54:  MOVFF  02,4E2
2B58:  MOVFF  01,4E1
2B5C:  MOVFF  00,4E0
2B60:  CALL   19E2
2B64:  MOVFF  02,2C
2B68:  MOVFF  01,2B
....................    st = st-so_ng;      //tphan 
2B6C:  MOVFF  2C,4E5
2B70:  MOVFF  2B,4E4
2B74:  CALL   1A1E
2B78:  BSF    FD8.1
2B7A:  MOVFF  4AB,4E7
2B7E:  MOVFF  4AA,4E6
2B82:  MOVFF  4A9,4E5
2B86:  MOVFF  4A8,4E4
2B8A:  MOVFF  03,4EB
2B8E:  MOVFF  02,4EA
2B92:  MOVFF  01,4E9
2B96:  MOVFF  00,4E8
2B9A:  CALL   1A54
2B9E:  MOVFF  03,4AB
2BA2:  MOVFF  02,4AA
2BA6:  MOVFF  01,4A9
2BAA:  MOVFF  00,4A8
....................    st = st*100;                                                          
2BAE:  MOVFF  4AB,4E7
2BB2:  MOVFF  4AA,4E6
2BB6:  MOVFF  4A9,4E5
2BBA:  MOVFF  4A8,4E4
2BBE:  MOVLB  4
2BC0:  CLRF   xEB
2BC2:  CLRF   xEA
2BC4:  MOVLW  48
2BC6:  MOVWF  xE9
2BC8:  MOVLW  85
2BCA:  MOVWF  xE8
2BCC:  MOVLB  0
2BCE:  CALL   1712
2BD2:  MOVFF  03,4AB
2BD6:  MOVFF  02,4AA
2BDA:  MOVFF  01,4A9
2BDE:  MOVFF  00,4A8
....................    so_tp = st/1;    
2BE2:  MOVFF  4AB,4B2
2BE6:  MOVFF  4AA,4B1
2BEA:  MOVFF  4A9,4B0
2BEE:  MOVFF  4A8,4AF
2BF2:  MOVLB  4
2BF4:  CLRF   xB6
2BF6:  CLRF   xB5
2BF8:  CLRF   xB4
2BFA:  MOVLW  7F
2BFC:  MOVWF  xB3
2BFE:  MOVLB  0
2C00:  CALL   1808
2C04:  MOVFF  03,4E3
2C08:  MOVFF  02,4E2
2C0C:  MOVFF  01,4E1
2C10:  MOVFF  00,4E0
2C14:  CALL   19E2
2C18:  MOVFF  02,2E
2C1C:  MOVFF  01,2D
2C20:  GOTO   2C8A (RETURN)
.................... }  
.................... //xxxxxxxxxxxxxxxxxxxxxxxxxxxxxxxxxxxxxxxxxxxxxxxxxxxxxxxx    
.................... //xxxxxxxxxxxxxxxxxxxxxxxxxxxxxxxxxxxxxxxxxxxxxxxxxxxxxxxx 
.................... //ham 703: do nhiet lm35a, lm35b, dkhien den, bao dong 
.................... //xxxxxxxxxxxxxxxxxxxxxxxxxxxxxxxxxxxxxxxxxxxxxxxxxxxxxxxx    
.................... //xxxxxxxxxxxxxxxxxxxxxxxxxxxxxxxxxxxxxxxxxxxxxxxxxxxxxxxx    
.................... //!#define nd_tren  34                                                       
.................... //!#define nd_duoi  32     
.................... unsigned int16 nd_tren=34, nd_duoi=32; 
.................... int1 ttqn=0,buz_ena=0;              
.................... void so_sanh_1nd_dk_buzzer(usi16 nd1)                         
.................... {                                    
....................    if((nd1>nd_tren)&&(ttqn==0))         
....................    { 
....................       ttqn = 1;                                                               
....................       if(buz_ena)   buzzer_on();                                    
....................       triac_2_off();  
....................    }                                                                            
....................    else if((nd1<nd_tren)&&(ttqn==1)) 
....................    { 
....................       ttqn = 0;  
....................       buzzer_off(); 
....................    } 
....................    else if((nd1<nd_duoi)&&(ttqn==0))   
....................       triac_2_on(); 
.................... }    
....................  
.................... void so_sanh_1nd(usi16 nd1) 
.................... { 
....................    if((nd1>nd_tren)&&(ttqn==0))         
....................    { 
....................       ttqn = 1;                                                               
....................       if(buz_ena)   buzzer_on();                                    
....................       triac_2_off(); //triac 2 dieu khien den gia nhiet 
....................    }                                                                            
....................    else if((nd1<nd_tren)&&(ttqn==1)) 
....................    { 
....................       ttqn = 0;  
....................       if(buz_ena)   buzzer_off();//tat bao dong 
....................    } 
....................    else if((nd1<nd_duoi)&&(ttqn==0))   
....................       triac_2_on(); //mo den gia nhiet 
....................    xuat_32led_don_1dw(0x000ff000); 
.................... } 
....................  
.................... void so_sanh_and_2nd(usi16 nd1, usi16 nd2) 
.................... { 
....................    if((nd1>nd_tren)&&(nd2>nd_tren)&&(ttqn==0))         
....................    { 
....................       ttqn = 1;                                                               
....................       if(buz_ena)   buzzer_on();                                    
....................       triac_2_off(); //triac 2 dieu khien den gia nhiet 
....................    }                                                                            
....................    else if((nd1<nd_tren)&&(nd2<nd_tren)&&(ttqn==1)) 
....................    { 
....................       ttqn = 0;  
....................       if(buz_ena)   buzzer_off();//tat bao dong 
....................    } 
....................    else if((nd1<nd_duoi)&&(nd2<nd_duoi)&&(ttqn==0))   
....................       triac_2_on(); //mo den gia nhiet 
....................    xuat_32led_don_1dw(0x000ff000); 
.................... } 
....................  
.................... void so_sanh_or_2nd(usi16 nd1, usi16 nd2) 
.................... { 
....................    if(((nd1>nd_tren)||(nd2>nd_tren))&&(ttqn==0))         
....................    { 
....................       ttqn = 1;                                                               
....................       if(buz_ena)   buzzer_on();                                    
....................       triac_2_off(); //triac 2 dieu khien den gia nhiet 
....................    }                                                                            
....................    else if(((nd1<nd_tren)&&(nd2<nd_tren))&&(ttqn==1)) 
....................    { 
....................       ttqn = 0;  
....................       if(buz_ena)   buzzer_off();//tat bao dong 
....................    } 
....................    else if(((nd1<nd_duoi)||(nd2<nd_duoi))&&(ttqn==0))   
....................       triac_2_on(); //mo den gia nhiet 
....................    xuat_32led_don_1dw(0x000ff000); 
.................... } 
....................  
.................... //ham so sanh nhiet do dieu khien buzzer, den (nd1,nd2,sel) 
.................... void so_sanh_nd_dk_buzzer(usi16 nd1, usi16 nd2, int8 sel) 
.................... { 
....................    if(sel==1)        so_sanh_1nd(nd1); 
....................    else if(sel==2)   so_sanh_and_2nd(nd1,nd2); 
....................    else if(sel==3)   so_sanh_or_2nd(nd1,nd2); 
.................... } 
....................  
.................... //xxxxxxxxxxxxxxxxxxxxxxxxxxxxxxxxxxxxxxxxxxxxxxxxxxxxxxxx     
.................... //xxxxxxxxxxxxxxxxxxxxxxxxxxxxxxxxxxxxxxxxxxxxxxxxxxxxxxxx 
.................... //bai 711: doc gia tri cua joystick hien thi lcd           
.................... //xxxxxxxxxxxxxxxxxxxxxxxxxxxxxxxxxxxxxxxxxxxxxxxxxxxxxxxx 
.................... //xxxxxxxxxxxxxxxxxxxxxxxxxxxxxxxxxxxxxxxxxxxxxxxxxxxxxxxx    
.................... //!void h711_lcd_hien_thi_joystick(usi8 x,y)                                  
.................... //!{                                              
.................... //!   lcd_goto_xy(0,0);                                                         
.................... //!   lcd_data("JOYSTICK"); 
.................... //!   lcd_goto_xy(1,4);                                                         
.................... //!   lcd_data("VRX:"); 
.................... //!   lcd_goto_xy(3,4);                                                         
.................... //!   lcd_data("VRY:"); 
.................... //!}  
.................... //! 
.................... //xxxxxxxxxxxxxxxxxxxxxxxxxxxxxxxxxxxxxxxxxxxxxxxxxxxxxxxx 
.................... //vrx noi kenh thu 1 AN1, vry noi voi an2 
.................... //cho phep hien thi 2 so thap phan tuy thuoc vao http 
.................... //dung bien nguyen tam de khi bang thi khong can hthi lai 
.................... //xxxxxxxxxxxxxxxxxxxxxxxxxxxxxxxxxxxxxxxxxxxxxxxxxxxxxxxx 
.................... //!usi16 vrx_ng,vrx_ngt; 
.................... //!void h711_adc_js_vrx_doc_xuly(usi8 solan)                                      
.................... //!{                                               
.................... //!   float vrx; 
.................... //!   vrx=h701_adc_read(solan,chan_js_vrx); 
.................... //!   h701_foat_to_ng_2so_tp(vrx);       
.................... //!   vrx_ng = so_ng; 
.................... //!} 
.................... //!//xxxxxxxxxxxxxxxxxxxxxxxxxxxxxxxxxxxxxxxxxxxxxxxxxxxxxxxx 
.................... //!void h711_adc_js_vrx_ht_lcd_7doan(usi8 x,y,z,int1 ht_l7d,ht_lcd)                                      
.................... //!{                                                  
.................... //!   if(vrx_ngt!=vrx_ng) 
.................... //!   { 
.................... //!      vrx_ngt=vrx_ng; 
.................... //!      if(ht_l7d)   
.................... //!      { 
.................... //!         giaima_bin_4so_vitri_vn(vrx_ng,z,cx_vn);  //4 
.................... //!         xuat_8led_7doan();  
.................... //!      } 
.................... //!      if(ht_lcd) lcd_gm_ht_4so_to_xvn(vrx_ng,x,y,kx_vn);//0,8 
.................... //!   }           
.................... //!}   
.................... //!//xxxxxxxxxxxxxxxxxxxxxxxxxxxxxxxxxxxxxxxxxxxxxxxxxxxxxxxx 
.................... //!void h711_adc_js_vrx_all(usi8 solan, x,y,z,int1 ht_l7d,ht_lcd)                                      
.................... //!{                                                  
.................... //!     h711_adc_js_vrx_doc_xuly(solan); 
.................... //!     h711_adc_js_vrx_ht_lcd_7doan(x,y,z,ht_l7d,ht_lcd); 
.................... //!}   
.................... //! 
.................... //!//xxxxxxxxxxxxxxxxxxxxxxxxxxxxxxxxxxxxxxxxxxxxxxxxxxxxxxxx 
.................... //!usi16 vry_ng,vry_ngt; 
.................... //!void h712_adc_js_vry_doc_xuly(usi8 solan)                                      
.................... //!{                                            
.................... //!   float vry;   
.................... //!   vry=h701_adc_read(solan,chan_js_vry); 
.................... //!   h701_foat_to_ng_2so_tp(vry);       
.................... //!   vry_ng = so_ng; 
.................... //!} 
.................... //! 
.................... //!void h712_adc_js_vry_ht_lcd_7doan(usi8 x,y,z,int1 ht_l7d,ht_lcd)                                      
.................... //!{                                              
.................... //!   if(vry_ngt!=vry_ng) 
.................... //!   { 
.................... //!      vry_ngt=vry_ng; 
.................... //!      if(ht_l7d)   
.................... //!      {   
.................... //!         giaima_bin_4so_vitri_vn(vry_ng,z,cx_vn);//0 
.................... //!         xuat_8led_7doan(); 
.................... //!      }                   
.................... //!      if(ht_lcd) lcd_gm_ht_4so_to_xvn(vry_ng,x,y,kx_vn);//2,8 
.................... //!   }                              
.................... //!}   
.................... //!  
.................... //!void h712_adc_js_vry_all(usi8 solan,x,y,z,int1 ht_l7d,ht_lcd )                                      
.................... //!{  
.................... //!   h712_adc_js_vry_doc_xuly(solan); 
.................... //!   h712_adc_js_vry_ht_lcd_7doan(x,y,z,ht_l7d,ht_lcd); 
.................... //!}      
....................  
.................... //xxxxxxxxxxxxxxxxxxxxxxxxxxxxxxxxxxxxxxxxxxxxxxxxxxxxxxxx 
.................... //ham kiem tra phim on                           
.................... //neu co nhan thi dao bit tt_on_off va tra ve co nhan 
.................... //neu khong nhan tra ve tt khong nhan 
.................... //xxxxxxxxxxxxxxxxxxxxxxxxxxxxxxxxxxxxxxxxxxxxxxxxxxxxxxxx      
.................... //!int1 phim_on_off_btn_joy()    
.................... //!{                      
.................... //!   if(phim_bt_joy_c1(c_ktnp,0)==co_nhan)    
.................... //!   { 
.................... //!      tt_on_off = ~tt_on_off; 
.................... //!      return co_nhan;    
.................... //!   }                                     
.................... //!   else   return khong_nhan;                    
.................... //!}   
.................... //!//xxxxxxxxxxxxxxxxxxxxxxxxxxxxxxxxxxxxxxxxxxxxxxxxxxxxxxxx 
.................... //!void h713_32led_on_off_btj()        
.................... //!{                               
.................... //!   tt_1btn = phim_on_off_btn_joy(); 
.................... //!   if(tt_1btn==co_nhan)               
.................... //!      h323_dk_32led_theo_tt_on_off(); 
.................... //!}             
....................  
....................  
.................... //!void b711_adc_joystick(usi8 solan,x,y,z,int1 ht_l7d,ht_lcd)                                      
.................... //!{                                            
.................... //!   h711_adc_js_vrx_all(solan,x,y,z,ht_l7d,ht_lcd);                                                                 
.................... //!   h711_adc_js_vry_all(solan);                       
.................... //!   h711_32led_on_off_btj();              
.................... //!}   
....................  
.................... //xxxxxxxxxxxxxxxxxxxxxxxxxxxxxxxxxxxxxxxxxxxxxxxxxxxxxxxx     
.................... //xxxxxxxxxxxxxxxxxxxxxxxxxxxxxxxxxxxxxxxxxxxxxxxxxxxxxxxx 
.................... //bai 711: doc gia tri cua joystick hien thi lcd           
.................... //xxxxxxxxxxxxxxxxxxxxxxxxxxxxxxxxxxxxxxxxxxxxxxxxxxxxxxxx 
.................... //xxxxxxxxxxxxxxxxxxxxxxxxxxxxxxxxxxxxxxxxxxxxxxxxxxxxxxxx    
....................  
.................... //xxxxxxxxxxxxxxxxxxxxxxxxxxxxxxxxxxxxxxxxxxxxxxxxxxxxxxxx 
.................... //ham kiem tra phim on                           
.................... //neu co nhan thi dao bit tt_on_off va tra ve co nhan 
.................... //neu khong nhan tra ve tt khong nhan 
.................... //xxxxxxxxxxxxxxxxxxxxxxxxxxxxxxxxxxxxxxxxxxxxxxxxxxxxxxxx                                                    
....................                                                                     
.................... //xxxxxxxxxxxxxxxxxxxxxxxxxxxxxxxxxxxxxxxxxxxxxxxxxxxxxxxx     
.................... //xxxxxxxxxxxxxxxxxxxxxxxxxxxxxxxxxxxxxxxxxxxxxxxxxxxxxxxx 
.................... //ham 712: do nhiet lm35a, dkhien den, bao dong           
.................... //xxxxxxxxxxxxxxxxxxxxxxxxxxxxxxxxxxxxxxxxxxxxxxxxxxxxxxxx 
.................... //xxxxxxxxxxxxxxxxxxxxxxxxxxxxxxxxxxxxxxxxxxxxxxxxxxxxxxxx 
.................... //!void b712_adc_lm35a_lm35b_joystick()                                      
.................... //!{ 
.................... //!          
.................... //!}  
.................... //!  
.................... //xxxxxxxxxxxxxxxxxxxxxxxxxxxxxxxxxxxxxxxxxxxxxxxxxxxxxxxx       
.................... //ham 712: do nhiet lm35a, lm35b, dkhien den, bao dong 
.................... //xxxxxxxxxxxxxxxxxxxxxxxxxxxxxxxxxxxxxxxxxxxxxxxxxxxxxxxx    
....................      
.................... //xxxxxxxxxxxxxxxxxxxxxxxxxxxxxxxxxxxxxxxxxxxxxxxxxxxxxxxx   
.................... //xxxxxxxxxxxxxxxxxxxxxxxxxxxxxxxxxxxxxxxxxxxxxxxxxxxxxxxx 
.................... //ham 721: do nhiet lm35a, lm35b, dkhien den, bao dong 
.................... //xxxxxxxxxxxxxxxxxxxxxxxxxxxxxxxxxxxxxxxxxxxxxxxxxxxxxxxx   
.................... //xxxxxxxxxxxxxxxxxxxxxxxxxxxxxxxxxxxxxxxxxxxxxxxxxxxxxxxx  
.................... //!void h721_lcd_ht_text_cbkc_gp2d12()                             
.................... //!{                                              
.................... //!   lcd_goto_xy(0,0);                                                         
.................... //!   lcd_data("Cam bien khoang cach");  
.................... //!   lcd_goto_xy(1,0);                                                         
.................... //!   lcd_data("SHARP GP2D12:10-80cm");     
.................... //!}   
.................... //!//xxxxxxxxxxxxxxxxxxxxxxxxxxxxxxxxxxxxxxxxxxxxxxxxxxxxxxxx  
.................... //!usi16 kc_ng,kc_tp,kc_ngt=0; 
.................... //!void h721_adc_cbkc_gp2d12_doc_xuly(usi8 sl)                                      
.................... //!{                 
.................... //!   float kc;   
.................... //!   kc=h701_adc_read(sl,chan_cbkc); 
.................... //!   kc = pow(4277/kc,1.106);                                     
.................... //!   if(kc>80) kc=80;   
.................... //!   h701_foat_to_ng_2so_tp(kc);       
.................... //!   kc_ng = so_ng;                               
.................... //!   kc_tp = so_tp;  
.................... //!}     
.................... //!//xxxxxxxxxxxxxxxxxxxxxxxxxxxxxxxxxxxxxxxxxxxxxxxxxxxxxxxx 
.................... //!void h721_adc_cbkc_gp2d12_ht_lcd_7doan(usi8 x,y,z,int1 ht_l7d,ht_lcd,ht_tp)                                      
.................... //!{                 
.................... //!   if(kc_ngt!=kc_ng) 
.................... //!   { 
.................... //!      kc_ngt=kc_ng;       
.................... //!      if(ht_l7d)  
.................... //!      { 
.................... //!         giaima_bin_2so_vitri_vn(kc_ng,z,cx_vn);//3 
.................... //!         xuat_8led_7doan(); 
.................... //!      } 
.................... //!      if(ht_lcd) lcd_gm_ht_2so_to_xvn(kc_ng,x,y,kx_vn);//2,0 
.................... //!   } 
.................... //!   if(ht_tp) lcd_hien_thi_2so_tp_nho(kc_tp,x+1,y+6);   
.................... //!} 
.................... //!//xxxxxxxxxxxxxxxxxxxxxxxxxxxxxxxxxxxxxxxxxxxxxxxxxxxxxxxx 
.................... //!void b721_adc_cbkc_gp2d12_all(usi8 solan,x,y,z,int1 ht_l7d,ht_lcd,ht_tp)                                      
.................... //!{ 
.................... //!   h721_adc_cbkc_gp2d12_doc_xuly(solan); 
.................... //!   h721_adc_cbkc_gp2d12_ht_lcd_7doan(x,y,z,ht_l7d,ht_lcd,ht_tp); 
.................... //!}     
.................... //xxxxxxxxxxxxxxxxxxxxxxxxxxxxxxxxxxxxxxxxxxxxxxxxxxxxxxxx   
.................... //xxxxxxxxxxxxxxxxxxxxxxxxxxxxxxxxxxxxxxxxxxxxxxxxxxxxxxxx 
.................... //ham 721: do nhiet lm35a, lm35b, dkhien den, bao dong 
.................... //xxxxxxxxxxxxxxxxxxxxxxxxxxxxxxxxxxxxxxxxxxxxxxxxxxxxxxxx   
.................... //xxxxxxxxxxxxxxxxxxxxxxxxxxxxxxxxxxxxxxxxxxxxxxxxxxxxxxxx   
....................   
.................... //!void b722_adc_lm35a_lm35a_joystick_cbkc()                                      
.................... //!{                                                         
.................... //!      giaima_bin_2so_vitri_vn(lm35b/1,2,kx_vn);                                               
.................... //!      giaima_bin_2so_vitri_vn(lm35a/1,0,kx_vn);                 
.................... //!      xuat_8led_7doan();                                                  
.................... //!      h701_lcd_hien_thi_so_tp(lm35a,1,0,sole_1);   
.................... //!      h701_lcd_hien_thi_so_tp(lm35b,1,7,sole_1);     
.................... //!      h701_lcd_hien_thi_so_tp(vrx,3,0,sole_1);          
.................... //!      h701_lcd_hien_thi_so_tp(vry,3,7,sole_1);           
.................... //!      h701_lcd_hien_thi_so_tp(cb_kc,1,14,sole_1);                           
.................... //!}      
.................... //xxxxxxxxxxxxxxxxxxxxxxxxxxxxxxxxxxxxxxxxxxxxxxxxxxxxxxxx 
.................... //ham 721: do nhiet lm35a, lm35b, dkhien den, bao dong 
.................... //xxxxxxxxxxxxxxxxxxxxxxxxxxxxxxxxxxxxxxxxxxxxxxxxxxxxxxxx   
.................... //!//xxxxxxxxxxxxxxxxxxxxxxxxxxxxxxxxxxxxxxxxxxxxxxxxxxxxxxxx 
.................... //!void h731_lcd_hien_thi_hcsr04(usi8 x,y)                             
.................... //!{                                              
.................... //!   lcd_goto_xy(x,y);                                                         
.................... //!   lcd_data("HCSR04");                                            
.................... //!}               
.................... //!void h731_hcsr04_do_khoangcach()                               
.................... //!{                                                              
.................... //!   output_high(trig);       
.................... //!   delay_us(20);    
.................... //!   output_low(trig);           
.................... //!                                            
.................... //!   set_timer3(0);                                           
.................... //!   while(!(input(echo)));          
.................... //!   setup_timer_3(t3_internal|t3_div_by_8);   
.................... //!                                 
.................... //!   while(input(echo));                                    
.................... //!   setup_timer_3(t3_disabled); 
.................... //!                                                  
.................... //!} 
.................... //! 
.................... //!usi16 gt_t3,kcsa_ng,kcsa_tp,kcsa_ngt=0; 
.................... //!void h731_cbkc_hc04_do_xuly()                                      
.................... //!{                   
.................... //!   float kcsa;   
.................... //!   h731_hcsr04_do_khoangcach(); 
.................... //!   gt_t3 = get_timer3(); 
.................... //!  
.................... //!   kcsa = gt_t3*1.6;                                               
.................... //!   kcsa = (kcsa/58); 
.................... //!    
.................... //!   h701_foat_to_ng_2so_tp(kcsa);       
.................... //!   kcsa_ng = so_ng; 
.................... //!   kcsa_tp = so_tp;  
.................... //!} 
.................... //! 
.................... //!void h731_cbkc_hc04_ht_lcd_7doan(usi8 x,y,z,int1 ht_l7d,ht_lcd)                                      
.................... //!{                     
.................... //!   if(kcsa_ngt!=kcsa_ng) 
.................... //!   { 
.................... //!      kcsa_ngt=kcsa_ng; 
.................... //!      if(ht_l7d)         
.................... //!      {   
.................... //!         giaima_bin_4so_vitri_vn(kcsa_ng,z,cx_vn); //0 
.................... //!         xuat_8led_7doan(); 
.................... //!      } 
.................... //!      if(ht_lcd)lcd_gm_ht_4so_to_xvn(kcsa_ng,x,y,kx_vn);//2,8 
.................... //!   }   
.................... //!} 
.................... //! 
.................... //!void h731_cbkc_hc04_all(usi8 x,y,z,int1 ht_l7d,ht_lcd)                                      
.................... //!{     
.................... //!   h731_cbkc_hc04_do_xuly(); 
.................... //!   h731_cbkc_hc04_ht_lcd_7doan(x,y,z,ht_l7d,ht_lcd); 
.................... //!} 
.................... //!//xxxxxxxxxxxxxxxxxxxxxxxxxxxxxxxxxxxxxxxxxxxxxxxxxxxxxxxx 
.................... //! 
.................... //!//xxxxxxxxxxxxxxxxxxxxxxxxxxxxxxxxxxxxxxxxxxxxxxxxxxxxxxxx 
.................... //!void b761_ket_hop_5_module()                             
.................... //!{                                                                   
.................... //!     //b622_glcd_dem_giay_kim_c1();      
.................... //!     //b536_lcd_dem_xung_timer0_so_to(); 
.................... //!     b424_gpg_3bt(20,10);                  
.................... //!     b351_32led_4yc_tu_dong_if();             
....................      //h761_adc_lm35a_lm35b_joystick_cbkc_hc04();   
.................... //!}                                                  
.................... //!//xxxxxxxxxxxxxxxxxxxxxxxxxxxxxxxxxxxxxxxxxxxxxxxxxxxxxxxx 
.................... //!//bai 643: ham chinh ket hop 32 led, 8 led 7doan, lcd, glcd         
.................... //!//xxxxxxxxxxxxxxxxxxxxxxxxxxxxxxxxxxxxxxxxxxxxxxxxxxxxxxxx   
.................... //!void b742_lcd_dem_xung_timer0_so_to()                                                   
.................... //!{                                                                       
.................... //!   t0 = get_timer0();                                       
.................... //!   if(t0!=t0_tam)               
.................... //!   {                                                          
.................... //!      giaima_bin_3so_vitri_vn(t0,0,cx_vn);            
.................... //!      h536_giai_ma_ht_so_to(t0);  
.................... //!      //h603_glcd_giai_ma_hien_thi(glcd_addr_line1,t0);  
.................... //!      t0_tam = t0;                    
.................... //!   }                                                                                
.................... //!   if (t0>=120)   set_timer0(0);                                                  
.................... //!}  
.................... //!  
.................... //!void b742_ket_hop_5_module()                             
.................... //!{                                                                   
.................... //!     //b622_glcd_dem_giay_kim_c1(); 
.................... //!      
.................... //!     b742_lcd_dem_xung_timer0_so_to(); 
.................... //!     b424_gpg_3bt(20,10);                  
.................... //!     b351_32led_4yc_tu_dong_if();                                               
.................... //!} 
.................... //!  
.................... //!           
....................  
.................... #include <tv_07_ds18b20.c>  
.................... //xxxxxxxxxxxxxxxxxxxxxxxxxxxxxxxxxxxxxxxxxxxxxxxxxxxxxxxx 
.................... //NGUYEN DINH PHU SU PHAM KY THUAT TP HCM 
.................... //xxxxxxxxxxxxxxxxxxxxxxxxxxxxxxxxxxxxxxxxxxxxxxxxxxxxxxxx 
....................  
.................... //xxxxxxxxxxxxxxxxxxxxxxxxxxxxxxxxxxxxxxxxxxxxxxxxxxxxxxxx 
.................... //dinh nghia chan giao tiep, thu vien, cac lenh ds13b20       
.................... //xxxxxxxxxxxxxxxxxxxxxxxxxxxxxxxxxxxxxxxxxxxxxxxxxxxxxxxx  
.................... #define  touch_pin pin_a5   
.................... #include <touch.c>                               
.................... /////////////////////////////////////////////////////////////////////////// 
.................... ////                        Dallas Touch Driver                        //// 
.................... ////                                                                   //// 
.................... ////                                                                   //// 
.................... ////  data = touch_read_bit()     Reads one bit from a touch device    //// 
.................... ////                                                                   //// 
.................... ////  data = touch_read_BYTE()    Reads one byte from a touch device.  //// 
.................... ////                                                                   //// 
.................... ////  ok = touch_write_bit(data)  Writes one bit to a touch device     //// 
.................... ////                              and returns true if all went ok.     //// 
.................... ////                              A false indicates a collision with   //// 
.................... ////                              another device.                      //// 
.................... ////                                                                   //// 
.................... ////  ok = touch_write_byte(data) Writes one byte to a touch device    //// 
.................... ////                              and returns true if all went ok.     //// 
.................... ////                              A false indicates a collision with   //// 
.................... ////                              another device.                      //// 
.................... ////                                                                   //// 
.................... ////  present = touch_present()   Issues a reset and returns true      //// 
.................... ////                              if the touch device is there.        //// 
.................... ////                                                                   //// 
.................... ////  reset_pulse()               Issues a reset and waits for a       //// 
.................... ////                              present pulse.                       //// 
.................... ////                                                                   //// 
.................... /////////////////////////////////////////////////////////////////////////// 
.................... ////        (C) Copyright 1996,2010 Custom Computer Services           //// 
.................... //// This source code may only be used by licensed users of the CCS C  //// 
.................... //// compiler.  This source code may only be distributed to other      //// 
.................... //// licensed users of the CCS C compiler.  No other use, reproduction //// 
.................... //// or distribution is permitted without written permission.          //// 
.................... //// Derivative programs created using this software in object code    //// 
.................... //// form are not restricted in any way.                               //// 
.................... /////////////////////////////////////////////////////////////////////////// 
....................  
.................... #ifndef  TOUCH_C 
.................... #define  TOUCH_C 
....................  
.................... #ifndef TOUCH_PIN 
....................    #define TOUCH_PIN  PIN_B0 
.................... #endif 
....................  
.................... #define TOUCH_PIN_LOW()    output_drive(TOUCH_PIN); output_low(TOUCH_PIN) 
.................... #define TOUCH_PIN_HIGH()    output_drive(TOUCH_PIN); output_high(TOUCH_PIN) 
.................... #define TOUCH_PIN_FLOAT()  output_float(TOUCH_PIN) 
.................... #define TOUCH_PIN_READ()      input_state(TOUCH_PIN) 
....................  
.................... ///////////////////////////// 
.................... ////                     //// 
.................... //// Function Prototypes //// 
.................... ////                     //// 
.................... ///////////////////////////// 
....................  
.................... /* 
.................... int1 touch_read_bit() 
.................... This will read back a bit from the DS1993 
.................... PARAMS: none 
.................... RETURNS: A bit from the DS1993 
.................... */ 
.................... int1 touch_read_bit(); 
....................  
.................... /* 
.................... BYTE touch_read_byte() 
.................... This will read back a byte from the DS1993 
.................... PARAMS: none 
.................... RETURNS: A byte from the DS1993 
.................... */ 
.................... BYTE touch_read_byte(); 
....................  
.................... /* 
.................... BOOLEAN touch_write_bit(int1 data) 
.................... This will write a bit to the DS1993 
.................... PARAMS: The bit to write 
.................... RETURNS: True if completed successfully, false if otherwise 
.................... */ 
.................... BOOLEAN touch_write_bit(int1 data); 
....................  
.................... /* 
.................... BOOLEAN touch_write_byte(BYTE data) 
.................... This will write a byte to the DS1993 
.................... PARAMS: The byte to write 
.................... RETURNS: True if completed successfully, false if otherwise 
.................... */ 
.................... BOOLEAN touch_write_byte(BYTE data); 
....................  
.................... /* 
.................... BOOLEAN touch_present() 
.................... This will evaluate whether or not there is a touch present on the DS1993 
.................... PARAMS: none 
.................... RETURNS: True if a touch is present, false if otherwise 
.................... */ 
.................... BOOLEAN touch_present(); 
....................  
.................... /* 
.................... void reset_pulse() 
.................... This will send the DS1993 a reset pulse 
.................... PARAMS: none 
.................... RETURNS: none 
.................... */ 
.................... void reset_pulse(); 
....................  
.................... ////////////////////////////////// 
.................... ////                          //// 
.................... //// Function Implementations //// 
.................... ////                          //// 
.................... ////////////////////////////////// 
....................  
.................... /* 
.................... int1 touch_read_bit() 
.................... This will read back a bit from the DS1993 
.................... PARAMS: none 
.................... RETURNS: A bit from the DS1993 
.................... */ 
.................... int1 touch_read_bit() 
.................... { 
....................    int1 data; 
....................  
....................    TOUCH_PIN_LOW(); 
*
06A6:  BCF    F92.5
06A8:  BCF    F92.5
06AA:  BCF    F89.5
....................    delay_us(14); 
06AC:  MOVLW  16
06AE:  MOVWF  00
06B0:  DECFSZ 00,F
06B2:  BRA    06B0
06B4:  BRA    06B6
06B6:  NOP   
....................    TOUCH_PIN_FLOAT(); 
06B8:  BSF    F92.5
....................    delay_us(5); 
06BA:  MOVLW  07
06BC:  MOVWF  00
06BE:  DECFSZ 00,F
06C0:  BRA    06BE
06C2:  BRA    06C4
06C4:  NOP   
....................    data = TOUCH_PIN_READ(); 
06C6:  MOVLB  4
06C8:  BCF    xB4.0
06CA:  BTFSC  F80.5
06CC:  BSF    xB4.0
....................    delay_us(100); 
06CE:  MOVLW  A6
06D0:  MOVWF  00
06D2:  DECFSZ 00,F
06D4:  BRA    06D2
06D6:  NOP   
....................  
....................    return data; 
06D8:  MOVLW  00
06DA:  BTFSC  xB4.0
06DC:  MOVLW  01
06DE:  MOVWF  01
06E0:  MOVLB  0
06E2:  GOTO   06F6 (RETURN)
.................... } 
....................  
.................... /* 
.................... BYTE touch_read_byte() 
.................... This will read back a byte from the DS1993 
.................... PARAMS: none 
.................... RETURNS: A byte from the DS1993 
.................... */ 
.................... BYTE touch_read_byte() 
.................... { 
....................    BYTE i,data; 
....................  
....................    for(i=1; i <= 8; ++i) 
06E6:  MOVLW  01
06E8:  MOVLB  4
06EA:  MOVWF  xB2
06EC:  MOVF   xB2,W
06EE:  SUBLW  08
06F0:  BNC   0708
....................       shift_right(&data, 1, touch_read_bit()); 
06F2:  MOVLB  0
06F4:  BRA    06A6
06F6:  MOVF   01,F
06F8:  BNZ   06FE
06FA:  BCF    FD8.0
06FC:  BRA    0700
06FE:  BSF    FD8.0
0700:  MOVLB  4
0702:  RRCF   xB3,F
0704:  INCF   xB2,F
0706:  BRA    06EC
....................  
....................    return data; 
0708:  MOVFF  4B3,01
070C:  MOVLB  0
070E:  RETURN 0
.................... } 
....................  
.................... /* 
.................... BOOLEAN touch_write_bit(int1 data) 
.................... This will write a bit to the DS1993 
.................... PARAMS: The bit to write 
.................... RETURNS: True if completed successfully, false if otherwise 
.................... */ 
.................... BOOLEAN touch_write_bit(int1 data) 
.................... { 
....................    TOUCH_PIN_LOW(); 
*
05B2:  BCF    F92.5
05B4:  BCF    F92.5
05B6:  BCF    F89.5
....................    delay_us(10); 
05B8:  MOVLW  10
05BA:  MOVWF  00
05BC:  DECFSZ 00,F
05BE:  BRA    05BC
05C0:  NOP   
....................    if(data) 
05C2:  MOVLB  4
05C4:  MOVF   xB3,F
05C6:  BZ    05E4
....................    { 
....................       TOUCH_PIN_HIGH(); 
05C8:  BCF    F92.5
05CA:  BCF    F92.5
05CC:  BSF    F89.5
....................       delay_us(10); 
05CE:  MOVLW  10
05D0:  MOVWF  00
05D2:  DECFSZ 00,F
05D4:  BRA    05D2
05D6:  NOP   
....................       if(!TOUCH_PIN_READ()) 
05D8:  BTFSC  F80.5
05DA:  BRA    05E2
....................          return FALSE; 
05DC:  MOVLW  00
05DE:  MOVWF  01
05E0:  BRA    0620
....................    } 
05E2:  BRA    05FE
....................    else 
....................    { 
....................       TOUCH_PIN_LOW(); 
05E4:  BCF    F92.5
05E6:  BCF    F92.5
05E8:  BCF    F89.5
....................       delay_us(10); 
05EA:  MOVLW  10
05EC:  MOVWF  00
05EE:  DECFSZ 00,F
05F0:  BRA    05EE
05F2:  NOP   
....................       if(TOUCH_PIN_READ()) 
05F4:  BTFSS  F80.5
05F6:  BRA    05FE
....................          return FALSE; 
05F8:  MOVLW  00
05FA:  MOVWF  01
05FC:  BRA    0620
....................    } 
....................    delay_us(50); 
05FE:  MOVLW  52
0600:  MOVWF  00
0602:  DECFSZ 00,F
0604:  BRA    0602
0606:  BRA    0608
0608:  NOP   
....................    TOUCH_PIN_HIGH(); 
060A:  BCF    F92.5
060C:  BCF    F92.5
060E:  BSF    F89.5
....................    delay_us(50); 
0610:  MOVLW  52
0612:  MOVWF  00
0614:  DECFSZ 00,F
0616:  BRA    0614
0618:  BRA    061A
061A:  NOP   
....................    return TRUE; 
061C:  MOVLW  01
061E:  MOVWF  01
0620:  MOVLB  0
0622:  GOTO   0644 (RETURN)
.................... } 
....................  
.................... /* 
.................... BOOLEAN touch_write_byte(BYTE data) 
.................... This will write a byte to the DS1993 
.................... PARAMS: The byte to write 
.................... RETURNS: True if completed successfully, false if otherwise 
.................... */ 
.................... BOOLEAN touch_write_byte(BYTE data) 
.................... { 
....................    BYTE i; 
....................  
....................    for(i=1; i<=8; ++i) 
0626:  MOVLW  01
0628:  MOVLB  4
062A:  MOVWF  xB1
062C:  MOVF   xB1,W
062E:  SUBLW  08
0630:  BNC   0654
....................       if(!touch_write_bit(shift_right(&data, 1, 0))) 
0632:  BCF    FD8.0
0634:  RRCF   xB0,F
0636:  MOVLW  00
0638:  BTFSC  FD8.0
063A:  MOVLW  01
063C:  MOVWF  xB2
063E:  MOVWF  xB3
0640:  MOVLB  0
0642:  BRA    05B2
0644:  MOVF   01,F
0646:  BNZ   064E
....................          return FALSE; 
0648:  MOVLW  00
064A:  MOVWF  01
064C:  BRA    065A
064E:  MOVLB  4
0650:  INCF   xB1,F
0652:  BRA    062C
....................  
....................    return TRUE; 
0654:  MOVLW  01
0656:  MOVWF  01
0658:  MOVLB  0
065A:  RETURN 0
.................... } 
....................  
.................... /* 
.................... BOOLEAN touch_present() 
.................... This will evaluate whether or not there is a touch present on the DS1993 
.................... PARAMS: none 
.................... RETURNS: True if a touch is present, false if otherwise 
.................... */ 
.................... BOOLEAN touch_present() 
.................... { 
....................    BOOLEAN present; 
....................    TOUCH_PIN_LOW(); 
*
0558:  BCF    F92.5
055A:  BCF    F92.5
055C:  BCF    F89.5
....................    delay_us(500); 
055E:  MOVLW  02
0560:  MOVLB  4
0562:  MOVWF  xB1
0564:  MOVLW  F9
0566:  MOVWF  xB2
0568:  MOVLB  0
056A:  RCALL  0538
056C:  MOVLB  4
056E:  DECFSZ xB1,F
0570:  BRA    0564
....................    TOUCH_PIN_FLOAT(); 
0572:  BSF    F92.5
....................    delay_us(5); 
0574:  MOVLW  07
0576:  MOVWF  00
0578:  DECFSZ 00,F
057A:  BRA    0578
057C:  BRA    057E
057E:  NOP   
....................  
....................    if(!TOUCH_PIN_READ()) 
0580:  BTFSC  F80.5
0582:  BRA    058A
....................       return FALSE; 
0584:  MOVLW  00
0586:  MOVWF  01
0588:  BRA    05AE
....................  
....................    delay_us(65); 
058A:  MOVLW  6B
058C:  MOVWF  00
058E:  DECFSZ 00,F
0590:  BRA    058E
0592:  BRA    0594
0594:  NOP   
....................    present = !TOUCH_PIN_READ(); 
0596:  BCF    xB0.0
0598:  BTFSS  F80.5
059A:  BSF    xB0.0
....................    delay_us(240); 
059C:  MOVLW  F0
059E:  MOVWF  xB2
05A0:  MOVLB  0
05A2:  RCALL  0538
....................    return present; 
05A4:  MOVLW  00
05A6:  MOVLB  4
05A8:  BTFSC  xB0.0
05AA:  MOVLW  01
05AC:  MOVWF  01
05AE:  MOVLB  0
05B0:  RETURN 0
.................... } 
....................  
.................... /* 
.................... void reset_pulse() 
.................... This will send the DS1993 a reset pulse 
.................... PARAMS: none 
.................... RETURNS: none 
.................... */ 
.................... void reset_pulse() 
.................... { 
....................    TOUCH_PIN_LOW(); 
....................    delay_us(500); 
....................    TOUCH_PIN_FLOAT(); 
....................    delay_us(5); 
....................    while(!touch_present()); 
.................... } 
....................  
....................  
.................... #endif 
....................  
.................... #define  search_rom       0xf0 
.................... #define  read_rom         0x33 
.................... #define  match_rom        0x55     
.................... #define  skip_rom         0xcc 
.................... #define  alarm_search     0xec 
.................... #define  read_scratchpad  0xbe  
.................... #define  write_scratchpad 0x4e                                
.................... #define  copy_scratchpad  0x48   
.................... #define  convert_t        0x44  
.................... //xxxxxxxxxxxxxxxxxxxxxxxxxxxxxxxxxxxxxxxxxxxxxxxxxxxxxxxx 
.................... //Thong bao khong co ds13b20       
.................... //xxxxxxxxxxxxxxxxxxxxxxxxxxxxxxxxxxxxxxxxxxxxxxxxxxxxxxxx  
.................... void ds18b20_no_ds18b()  
.................... {    
....................    lcd_goto_xy(0,0);        
*
0754:  MOVLB  4
0756:  CLRF   xB0
0758:  CLRF   xB1
075A:  MOVLB  0
075C:  RCALL  0710
....................    lcd_data("NO DS18B20");  
075E:  MOVLW  12
0760:  MOVWF  FF6
0762:  MOVLW  03
0764:  MOVWF  FF7
0766:  BRA    0732
0768:  RETURN 0
.................... }  
.................... //xxxxxxxxxxxxxxxxxxxxxxxxxxxxxxxxxxxxxxxxxxxxxxxxxxxxxxxx 
.................... //ham khoi tao ds13b20       
.................... //xxxxxxxxxxxxxxxxxxxxxxxxxxxxxxxxxxxxxxxxxxxxxxxxxxxxxxxx  
.................... void ds18b20_khoi_tao() 
.................... {                          
....................    touch_present(); 
*
065C:  RCALL  0558
....................    touch_write_byte(skip_rom);       
065E:  MOVLW  CC
0660:  MOVLB  4
0662:  MOVWF  xB0
0664:  MOVLB  0
0666:  RCALL  0626
....................    touch_write_byte(write_scratchpad);                      
0668:  MOVLW  4E
066A:  MOVLB  4
066C:  MOVWF  xB0
066E:  MOVLB  0
0670:  RCALL  0626
....................    touch_write_byte(0x0);        
0672:  MOVLB  4
0674:  CLRF   xB0
0676:  MOVLB  0
0678:  RCALL  0626
....................    touch_write_byte(0x0);     
067A:  MOVLB  4
067C:  CLRF   xB0
067E:  MOVLB  0
0680:  RCALL  0626
....................    touch_write_byte(0x7f); //12 bit 
0682:  MOVLW  7F
0684:  MOVLB  4
0686:  MOVWF  xB0
0688:  MOVLB  0
068A:  RCALL  0626
....................  
....................    touch_present();    
068C:  RCALL  0558
....................    touch_write_byte(skip_rom); 
068E:  MOVLW  CC
0690:  MOVLB  4
0692:  MOVWF  xB0
0694:  MOVLB  0
0696:  RCALL  0626
....................    touch_write_byte(convert_t);      
0698:  MOVLW  44
069A:  MOVLB  4
069C:  MOVWF  xB0
069E:  MOVLB  0
06A0:  RCALL  0626
06A2:  GOTO   343E (RETURN)
.................... } 
.................... //xxxxxxxxxxxxxxxxxxxxxxxxxxxxxxxxxxxxxxxxxxxxxxxxxxxxxxxx 
.................... //doc nhiet do tu ds13b20, tra ve nhiet do la 16 bit     
.................... //xxxxxxxxxxxxxxxxxxxxxxxxxxxxxxxxxxxxxxxxxxxxxxxxxxxxxxxx                                                  
.................... unsigned int16 ds18b20_read_temp()                                         
.................... {                                     
....................    unsigned int8  bl,bh;                                                              
....................    unsigned int16 w;  
....................    touch_write_byte(skip_rom); 
*
28B4:  MOVLW  CC
28B6:  MOVLB  4
28B8:  MOVWF  xB0
28BA:  MOVLB  0
28BC:  CALL   0626
....................    touch_write_byte(read_scratchpad);                  
28C0:  MOVLW  BE
28C2:  MOVLB  4
28C4:  MOVWF  xB0
28C6:  MOVLB  0
28C8:  CALL   0626
....................    bl = touch_read_byte(); 
28CC:  CALL   06E6
28D0:  MOVFF  01,4A3
....................    bh = touch_read_byte();                              
28D4:  CALL   06E6
28D8:  MOVFF  01,4A4
....................    w  = make16(bh,bl);                                                           
28DC:  MOVFF  4A4,4A6
28E0:  MOVFF  4A3,4A5
....................                                                          
....................    touch_present();    
28E4:  CALL   0558
....................    touch_write_byte(skip_rom); 
28E8:  MOVLW  CC
28EA:  MOVLB  4
28EC:  MOVWF  xB0
28EE:  MOVLB  0
28F0:  CALL   0626
....................    touch_write_byte(convert_t);  
28F4:  MOVLW  44
28F6:  MOVLB  4
28F8:  MOVWF  xB0
28FA:  MOVLB  0
28FC:  CALL   0626
....................    return w; 
2900:  MOVLB  4
2902:  MOVFF  4A5,01
2906:  MOVFF  4A6,02
290A:  MOVLB  0
290C:  GOTO   2A1E (RETURN)
.................... }   
.................... //xxxxxxxxxxxxxxxxxxxxxxxxxxxxxxxxxxxxxxxxxxxxxxxxxxxxxxxx 
.................... //ham doc ma ROM cua DS18b20 va hien thi tai hang x, cot y  
.................... //xxxxxxxxxxxxxxxxxxxxxxxxxxxxxxxxxxxxxxxxxxxxxxxxxxxxxxxx     
.................... void ds18b20_doc_rom(usi8 x,y)   
.................... {     
....................    unsigned int8 rom_code[8];        
....................    unsigned int8 xh,xl; 
....................    signed int8 i; 
....................    if(touch_present()) 
*
076A:  RCALL  0558
076C:  MOVF   01,F
076E:  BZ    082E
....................    { 
....................       touch_write_byte(read_rom);                                                                             
0770:  MOVLW  33
0772:  MOVLB  4
0774:  MOVWF  xB0
0776:  MOVLB  0
0778:  RCALL  0626
....................       for(i=0;i<8;i++)                  
077A:  MOVLB  4
077C:  CLRF   xAF
077E:  BTFSC  xAF.7
0780:  BRA    0788
0782:  MOVF   xAF,W
0784:  SUBLW  07
0786:  BNC   07B2
....................       rom_code[i] = touch_read_byte();                                  
0788:  CLRF   03
078A:  MOVF   xAF,W
078C:  ADDLW  A5
078E:  MOVWF  01
0790:  MOVLW  04
0792:  ADDWFC 03,F
0794:  MOVFF  01,4B0
0798:  MOVFF  03,4B1
079C:  MOVLB  0
079E:  RCALL  06E6
07A0:  MOVFF  4B1,FEA
07A4:  MOVFF  4B0,FE9
07A8:  MOVFF  01,FEF
07AC:  MOVLB  4
07AE:  INCF   xAF,F
07B0:  BRA    077E
....................       lcd_goto_xy(x,y);      
07B2:  MOVFF  4A3,4B0
07B6:  MOVFF  4A4,4B1
07BA:  MOVLB  0
07BC:  RCALL  0710
....................       for(i=7;i>-1;i--)  
07BE:  MOVLW  07
07C0:  MOVLB  4
07C2:  MOVWF  xAF
07C4:  MOVF   xAF,W
07C6:  XORLW  80
07C8:  SUBLW  7F
07CA:  BC    082A
....................       { 
....................          xh=rom_code[i]/16;               
07CC:  CLRF   03
07CE:  MOVF   xAF,W
07D0:  ADDLW  A5
07D2:  MOVWF  FE9
07D4:  MOVLW  04
07D6:  ADDWFC 03,W
07D8:  MOVWF  FEA
07DA:  SWAPF  FEF,W
07DC:  MOVWF  xAD
07DE:  MOVLW  0F
07E0:  ANDWF  xAD,F
....................          if(xh>9) xh=xh+0x37; 
07E2:  MOVF   xAD,W
07E4:  SUBLW  09
07E6:  BC    07EE
07E8:  MOVLW  37
07EA:  ADDWF  xAD,F
07EC:  BRA    07F2
....................          else     xh=xh+0x30;           
07EE:  MOVLW  30
07F0:  ADDWF  xAD,F
....................          xl=rom_code[i]%16;               
07F2:  CLRF   03
07F4:  MOVF   xAF,W
07F6:  ADDLW  A5
07F8:  MOVWF  FE9
07FA:  MOVLW  04
07FC:  ADDWFC 03,W
07FE:  MOVWF  FEA
0800:  MOVF   FEF,W
0802:  ANDLW  0F
0804:  MOVWF  xAE
....................          if(xl>9) xl=xl+0x37; 
0806:  MOVF   xAE,W
0808:  SUBLW  09
080A:  BC    0812
080C:  MOVLW  37
080E:  ADDWF  xAE,F
0810:  BRA    0816
....................          else     xl=xl+0x30; 
0812:  MOVLW  30
0814:  ADDWF  xAE,F
....................                         
....................          lcd_data(xh); 
0816:  MOVFF  4AD,4B2
081A:  MOVLB  0
081C:  RCALL  04F2
....................          lcd_data(xl);          
081E:  MOVFF  4AE,4B2
0822:  RCALL  04F2
0824:  MOVLB  4
0826:  DECF   xAF,F
0828:  BRA    07C4
....................       }         
....................    } 
082A:  BRA    0832
082C:  MOVLB  0
....................    else ds18b20_no_ds18b();      
082E:  RCALL  0754
0830:  MOVLB  4
0832:  MOVLB  0
0834:  GOTO   344C (RETURN)
.................... } 
....................  
.................... #include <tv_07_i2c_at24cxx.c>     
.................... //xxxxxxxxxxxxxxxxxxxxxxxxxxxxxxxxxxxxxxxxxxxxxxxxxxxxxxxx 
.................... //NGUYEN DINH PHU SU PHAM KY THUAT TP HCM 
.................... //xxxxxxxxxxxxxxxxxxxxxxxxxxxxxxxxxxxxxxxxxxxxxxxxxxxxxxxx 
....................  
.................... #define at24_addr_wr 0xa0 
.................... #define at24_addr_rd 0xa1 
.................... //xxxxxxxxxxxxxxxxxxxxxxxxxxxxxxxxxxxxxxxxxxxxxxxxxxxxxxxx 
.................... //ham reset  
.................... //xxxxxxxxxxxxxxxxxxxxxxxxxxxxxxxxxxxxxxxxxxxxxxxxxxxxxxxx 
.................... void at24_reset() 
.................... {                 
....................    i2c_start();          
....................    i2c_stop(); 
.................... } 
.................... //xxxxxxxxxxxxxxxxxxxxxxxxxxxxxxxxxxxxxxxxxxxxxxxxxxxxxxxx 
.................... //ham khoi tao ghi 
.................... //xxxxxxxxxxxxxxxxxxxxxxxxxxxxxxxxxxxxxxxxxxxxxxxxxxxxxxxx 
.................... void at24_khoi_tao_ghi(usi16 addr) 
.................... {                  
....................    i2c_start();                        
....................    i2c_write(at24_addr_wr);   
....................    i2c_write(addr>>8);          
....................    i2c_write(addr);          
.................... } 
.................... //xxxxxxxxxxxxxxxxxxxxxxxxxxxxxxxxxxxxxxxxxxxxxxxxxxxxxxxx 
.................... //ham khoi tao doc 
.................... //xxxxxxxxxxxxxxxxxxxxxxxxxxxxxxxxxxxxxxxxxxxxxxxxxxxxxxxx     
.................... void at24_khoi_tao_doc(usi16 addr) 
.................... {    
....................    i2c_start(); 
....................    i2c_write(at24_addr_wr);   
....................    i2c_write(addr>>8);         
....................    i2c_write(addr);            
....................    i2c_start();                 
....................    i2c_write(at24_addr_rd);   
.................... }     
.................... //xxxxxxxxxxxxxxxxxxxxxxxxxxxxxxxxxxxxxxxxxxxxxxxxxxxxxxxx 
.................... //ham ghi 1byte 
.................... //xxxxxxxxxxxxxxxxxxxxxxxxxxxxxxxxxxxxxxxxxxxxxxxxxxxxxxxx 
.................... void at24_ghi_1byte(usi16 addr,usi8 data_1byte) 
.................... {           
....................    i2c_start();                      
....................    i2c_write(at24_addr_wr);   
....................    i2c_write(addr>>8);          
....................    i2c_write(addr);    
....................    i2c_write(data_1byte);    
....................    i2c_stop(); 
.................... } 
.................... //xxxxxxxxxxxxxxxxxxxxxxxxxxxxxxxxxxxxxxxxxxxxxxxxxxxxxxxx 
.................... //ham doc 1 byte 
.................... //xxxxxxxxxxxxxxxxxxxxxxxxxxxxxxxxxxxxxxxxxxxxxxxxxxxxxxxx 
.................... unsigned int8 at24_doc_1byte(usi16 addr) 
.................... {    
....................    unsigned int8 data_1byte; 
....................    i2c_start();            
....................    i2c_write(at24_addr_wr);   
....................    i2c_write(addr>>8);         
....................    i2c_write(addr);            
....................    i2c_start();                 
....................    i2c_write(at24_addr_rd);   
....................    data_1byte = i2c_read(0); 
....................    i2c_stop(); 
....................    return(data_1byte); 
.................... }   
....................  
....................  
.................... //!#include <tv_08_step_motor.c>     
.................... //!#include <tv_08_dc_motor.c>  
.................... #include <tv_09_matran_led_mbi.c> 
.................... //xxxxxxxxxxxxxxxxxxxxxxxxxxxxxxxxxxxxxxxxxxxxxxxxxxxxxxxx 
.................... //NGUYEN DINH PHU SU PHAM KY THUAT TP HCM 
.................... //xxxxxxxxxxxxxxxxxxxxxxxxxxxxxxxxxxxxxxxxxxxxxxxxxxxxxxxx 
....................  
.................... //xxxxxxxxxxxxxxxxxxxxxxxxxxxxxxxxxxxxxxxxxxxxxxxxxxxxxxxx 
.................... //ham xuat 2 byte 
.................... //xxxxxxxxxxxxxxxxxxxxxxxxxxxxxxxxxxxxxxxxxxxxxxxxxxxxxxxx 
.................... void xuat_2byte(unsigned int16 v) 
.................... { 
....................    int8 i; 
....................    #bit msb = v.15 
....................    for(i=0;i<16;i++) 
....................    {                                                  
....................       output_bit(ssdo,msb);     
....................       output_low(ssck);    
....................       output_high(ssck); 
....................       v= v<<1;          
....................    } 
.................... } 
.................... //xxxxxxxxxxxxxxxxxxxxxxxxxxxxxxxxxxxxxxxxxxxxxxxxxxxxxxxx 
.................... //chuong trinh con xuat ra led ma tran 
.................... //xxxxxxxxxxxxxxxxxxxxxxxxxxxxxxxxxxxxxxxxxxxxxxxxxxxxxxxx 
.................... void xuat_matranled( usi16 mahang,usi16 macot1, 
....................                      usi16 macot2,usi16 macot3) 
.................... {       
....................    xuat_2byte(macot3);   
....................    xuat_2byte(macot2); 
....................    xuat_2byte(macot1);   
....................    xuat_2byte(mahang); 
....................        
....................    output_high(rck_mtl);  
....................    output_low(rck_mtl); 
.................... } 
.................... //xxxxxxxxxxxxxxxxxxxxxxxxxxxxxxxxxxxxxxxxxxxx 
.................... //chuong trinh con xuat ra led ma tran 
.................... //xxxxxxxxxxxxxxxxxxxxxxxxxxxxxxxxxxxxxxxxxxxx 
.................... // void tat_matranled() 
.................... // {       
....................    // xuat_2byte(0); xuat_2byte(0); 
....................    // xuat_2byte(0); xuat_2byte(0);            
....................    // output_high(rck_matranled);  
....................    // output_low(rck_matranled); 
.................... // } 
.................... //xxxxxxxxxxxxxxxxxxxxxxxxxxxxxxxxxxxxxxxxxxxxxxxxxxxxxxxx 
.................... //hieu chinh 4bit cao 
.................... //xxxxxxxxxxxxxxxxxxxxxxxxxxxxxxxxxxxxxxxxxxxxxxxxxxxxxxxx 
.................... unsigned  int8 hieu_chinh_4bit_cao(unsigned int8 xzy) 
.................... { 
....................    int1  btg; 
....................    unsigned int8   bx;    
....................    #bit bit4  = bx.4 
....................    #bit bit5  = bx.5 
....................    #bit bit6  = bx.6 
....................    #bit bit7  = bx.7 
....................    bx=xzy; 
....................    btg=bit4;   bit4=bit7;  bit7=btg; 
....................    btg=bit5;   bit5=bit6;  bit6=btg;       
....................    return(bx);   
.................... }    
....................  
....................  
....................  
.................... #include <tv_08_dc_motor.c> 
.................... int1 dcmotor_tn = 0, dcmotor_onoff=0; 
.................... //xxxxxxxxxxxxxxxxxxxxxxxxxxxxxxxxxxxxxxxxxxxxxxx 
.................... //cac ham cho dk dong co dc on off 
.................... //xxxxxxxxxxxxxxxxxxxxxxxxxxxxxxxxxxxxxxxxxxxxxxx  
.................... void dc_motor_enable() 
.................... { 
....................    dc_enable=1; 
*
0A8C:  BSF    04.5
....................    xuat_buzzer_relay(); 
0A8E:  RCALL  0A6E
0A90:  GOTO   347C (RETURN)
.................... } 
.................... void dc_motor_disable() 
.................... { 
....................    dc_enable=0; 
....................    xuat_buzzer_relay(); 
.................... } 
....................  
.................... void dc_motor_quay_thuan() 
.................... {                          
....................    output_high(pin_c1); 
....................    output_low(pin_c2); 
.................... }                                                                                      
....................  
.................... void dc_motor_quay_nghich() 
.................... { 
....................    output_low(pin_c1);                
....................    output_high(pin_c2); 
.................... } 
....................  
.................... void dc_motor_stop()                                                       
.................... { 
....................    output_low(pin_c1); 
0A94:  BCF    F94.1
0A96:  BCF    F8B.1
....................    output_low(pin_c2);   
0A98:  BCF    F94.2
0A9A:  BCF    F8B.2
0A9C:  GOTO   34C0 (RETURN)
.................... }  
....................  
.................... void dc_motor_run() 
.................... { 
....................    if(dcmotor_onoff) 
....................    { 
....................       if(dcmotor_tn) dc_motor_quay_thuan(); 
....................       else           dc_motor_quay_nghich(); 
....................    } 
....................    else              dc_motor_stop();       
.................... }          
.................... //xxxxxxxxxxxxxxxxxxxxxxxxxxxxxxxxxxxxxxxxxxxxxxx 
.................... //cac ham cho dk dong co dc bang pwm 
.................... //xxxxxxxxxxxxxxxxxxxxxxxxxxxxxxxxxxxxxxxxxxxxxxx 
.................... unsigned int16    pwm_duty;  
.................... void dc_motor_ktao_ccp1_thuan() 
.................... {      
....................    setup_ccp2(ccp_off);       
*
3148:  MOVLW  F0
314A:  ANDWF  FBA,F
....................    setup_ccp1(ccp_pwm); 
314C:  BCF    F94.2
314E:  BCF    F8B.2
3150:  MOVLW  0C
3152:  MOVWF  FBD
3154:  CLRF   FB7
3156:  CLRF   FB6
....................    output_low(pin_c1);       
3158:  BCF    F94.1
315A:  BCF    F8B.1
315C:  GOTO   317E (RETURN)
.................... } 
....................  
.................... void dc_motor_ktao_ccp2_nghich() 
.................... {             
....................    setup_ccp1(ccp_off);       
3160:  MOVLW  F0
3162:  ANDWF  FBD,F
....................    setup_ccp2(ccp_pwm); 
3164:  BCF    F94.1
3166:  BCF    F8B.1
3168:  MOVLW  0C
316A:  MOVWF  FBA
....................    output_low(pin_c2); 
316C:  BCF    F94.2
316E:  BCF    F8B.2
3170:  GOTO   317E (RETURN)
.................... } 
....................  
.................... void dc_motor_ktao_ccpx() 
.................... {          
....................    if(dcmotor_tn) dc_motor_ktao_ccp1_thuan(); 
3174:  BTFSS  33.2
3176:  BRA    317C
3178:  BRA    3148
317A:  BRA    317E
....................    else           dc_motor_ktao_ccp2_nghich();             
317C:  BRA    3160
317E:  RETURN 0
.................... } 
....................  
.................... void dc_motor_set_pwmx_duty() 
.................... {                                      
....................    if(dcmotor_tn) set_pwm1_duty(pwm_duty); 
*
30F4:  BTFSS  33.2
30F6:  BRA    3120
30F8:  MOVFF  35,02
30FC:  MOVFF  34,01
3100:  RRCF   02,F
3102:  RRCF   01,F
3104:  RRCF   02,F
3106:  RRCF   01,F
3108:  RRCF   02,F
310A:  MOVFF  01,FBE
310E:  RRCF   02,F
3110:  RRCF   02,W
3112:  ANDLW  30
3114:  MOVWF  00
3116:  MOVF   FBD,W
3118:  ANDLW  CF
311A:  IORWF  00,W
311C:  MOVWF  FBD
311E:  BRA    3146
....................    else           set_pwm2_duty(pwm_duty);      
3120:  MOVFF  35,02
3124:  MOVFF  34,01
3128:  RRCF   02,F
312A:  RRCF   01,F
312C:  RRCF   02,F
312E:  RRCF   01,F
3130:  RRCF   02,F
3132:  MOVFF  01,FBB
3136:  RRCF   02,F
3138:  RRCF   02,W
313A:  ANDLW  30
313C:  MOVWF  00
313E:  MOVF   FBA,W
3140:  ANDLW  CF
3142:  IORWF  00,W
3144:  MOVWF  FBA
3146:  RETURN 0
.................... }                                                        
....................  
.................... void dc_motor_pwm_ccp1_ccp2_stop() 
.................... {          
....................    pwm_duty=0;             
*
3180:  CLRF   35
3182:  CLRF   34
....................    setup_ccp1(ccp_off); 
3184:  MOVLW  F0
3186:  ANDWF  FBD,F
....................    setup_ccp2(ccp_off); 
3188:  ANDWF  FBA,F
....................    dc_motor_ktao_ccpx(); 
318A:  RCALL  3174
....................    dc_motor_set_pwmx_duty(); 
318C:  RCALL  30F4
318E:  RETURN 0
.................... } 
....................  
....................  
.................... #include <tv_08_step_motor.c> 
.................... //thu vien dieu khien dong co buoc  
.................... //nguyen dinh phu - dai hoc su pham ky thuat tp hcm 
.................... //cac ham dieu khien step motor                 
....................                                      
.................... unsigned int16 stepmotor_fs[]={0x1d,0x17,0x1b,0x0f}; 
.................... unsigned int16 stepmotor_hs[]={0x1d,0x15,0x17,0x13,0x1b,0x0b,0x0f,0x0d}; 
....................                                                                  
.................... unsigned int8 stepmotor_i=0, stepmotor_delay; 
.................... int1 stepmotor_tn=0,stepmotor_onoff=0;  
.................... int1 stepmotor_fh=1;             
....................                                
.................... void step_motor_quay_thuan_fs()                                     
.................... {                                                      
....................    rbdc=rbdc & 0xffe0;            
*
32E4:  MOVLW  E0
32E6:  ANDWF  04,F
....................    rbdc=rbdc|stepmotor_fs[stepmotor_i]; 
32E8:  BCF    FD8.0
32EA:  RLCF   4E,W
32EC:  CLRF   03
32EE:  ADDLW  36
32F0:  MOVWF  FE9
32F2:  MOVLW  00
32F4:  ADDWFC 03,W
32F6:  MOVWF  FEA
32F8:  MOVFF  FEC,03
32FC:  MOVF   FED,F
32FE:  MOVF   FEF,W
3300:  IORWF  04,F
3302:  MOVF   03,W
3304:  IORWF  05,F
....................    xuat_buzzer_relay();       
3306:  CALL   0A6E
....................    stepmotor_i++; 
330A:  INCF   4E,F
....................    stepmotor_i = stepmotor_i & 0x03; 
330C:  MOVLW  03
330E:  ANDWF  4E,F
3310:  GOTO   334E (RETURN)
.................... } 
.................... void step_motor_quay_nghich_fs() 
.................... { 
....................    rbdc=rbdc & 0xffe0;            
3314:  MOVLW  E0
3316:  ANDWF  04,F
....................    rbdc=rbdc|stepmotor_fs[stepmotor_i]; 
3318:  BCF    FD8.0
331A:  RLCF   4E,W
331C:  CLRF   03
331E:  ADDLW  36
3320:  MOVWF  FE9
3322:  MOVLW  00
3324:  ADDWFC 03,W
3326:  MOVWF  FEA
3328:  MOVFF  FEC,03
332C:  MOVF   FED,F
332E:  MOVF   FEF,W
3330:  IORWF  04,F
3332:  MOVF   03,W
3334:  IORWF  05,F
....................    xuat_buzzer_relay(); 
3336:  CALL   0A6E
....................    stepmotor_i--; 
333A:  DECF   4E,F
....................    stepmotor_i = stepmotor_i & 0x03; 
333C:  MOVLW  03
333E:  ANDWF  4E,F
3340:  GOTO   334E (RETURN)
.................... }                                                
.................... void step_motor_run_tn_fs() 
.................... { 
....................    if(stepmotor_tn) step_motor_quay_thuan_fs(); 
3344:  BTFSS  33.4
3346:  BRA    334C
3348:  BRA    32E4
334A:  BRA    334E
....................    else             step_motor_quay_nghich_fs();            
334C:  BRA    3314
334E:  GOTO   3672 (RETURN)
.................... }        
....................                                      
.................... void step_motor_quay_thuan_hs() 
.................... { 
....................    rbdc=rbdc & 0xffe0;            
....................    rbdc=rbdc|stepmotor_hs[stepmotor_i]; 
....................    xuat_buzzer_relay(); 
....................    stepmotor_i++; 
....................    stepmotor_i = stepmotor_i & 0x07; 
.................... }                                                
.................... void step_motor_quay_nghich_hs() 
.................... {      
....................    rbdc=rbdc & 0xffe0; 
....................    rbdc=rbdc|stepmotor_hs[stepmotor_i]; 
....................    xuat_buzzer_relay(); 
....................    stepmotor_i--; 
....................    stepmotor_i = stepmotor_i & 0x07; 
.................... } 
.................... void step_motor_run_tn_hs() 
.................... {   
....................    if(stepmotor_tn) step_motor_quay_thuan_hs(); 
....................    else             step_motor_quay_nghich_hs(); 
.................... }                                                                            
....................  
.................... void step_motor_run_fs_hs() 
.................... { 
....................    if(stepmotor_fh) step_motor_run_tn_fs(); 
....................    else             step_motor_run_tn_hs();            
.................... }   
....................  
....................  
....................        
....................  
.................... #define solan 100 
.................... #include <tv_06_glcd.c> 
.................... //xxxxxxxxxxxxxxxxxxxxxxxxxxxxxxxxxxxxxxxxxxxxxxxxxxxxxxxx 
.................... //NGUYEN DINH PHU SU PHAM KY THUAT TP HCM 
.................... //xxxxxxxxxxxxxxxxxxxxxxxxxxxxxxxxxxxxxxxxxxxxxxxxxxxxxxxx 
....................  
.................... //xxxxxxxxxxxxxxxxxxxxxxxxxxxxxxxxxxxxxxxxxxxxxxxxxxxxxxxx 
.................... //dinh nghia bien dieu khien GLCD va cac bit cua bien       
.................... //xxxxxxxxxxxxxxxxxxxxxxxxxxxxxxxxxxxxxxxxxxxxxxxxxxxxxxxx  
.................... unsigned int8 glcd_ctr;    
.................... #bit glcd_p    = glcd_ctr.5            
.................... #bit glcd_rs   = glcd_ctr.4 
.................... #bit glcd_rw   = glcd_ctr.3 
.................... #bit glcd_e    = glcd_ctr.2 
.................... #bit glcd_nc   = glcd_ctr.1 
.................... #bit glcd_psb  = glcd_ctr.0                              
.................... //xxxxxxxxxxxxxxxxxxxxxxxxxxxxxxxxxxxxxxxxxxxxxxxxxxxxxxxx 
.................... //Dinh nghia cac lenh dieu khien cua GLCD 
.................... //xxxxxxxxxxxxxxxxxxxxxxxxxxxxxxxxxxxxxxxxxxxxxxxxxxxxxxxx  
.................... #define glcd_text_mode      0x30 
.................... #define glcd_graphic_mode   0x36                      
....................  
.................... #define glcd_clear_display  0x01 
.................... #define glcd_cursor_display 0x0c 
.................... #define glcd_entry_mode     0x06 
....................  
.................... #define glcd_addr_line0     0x80 
.................... #define glcd_addr_line1     0x90 
.................... #define glcd_addr_line2     0x88 
.................... #define glcd_addr_line3     0x98 
.................... //xxxxxxxxxxxxxxxxxxxxxxxxxxxxxxxxxxxxxxxxxxxxxxxxxxxxxxxx   
.................... //ham 621: xuat data/lenh ra glcd 
.................... //xxxxxxxxxxxxxxxxxxxxxxxxxxxxxxxxxxxxxxxxxxxxxxxxxxxxxxxx    
.................... void glcd_xuat_db(int8 db) 
.................... { 
....................    glcd_e=1; xuat_glcd(glcd_ctr,db);  
*
0AB4:  BSF    50.2
0AB6:  MOVFF  50,4BA
0ABA:  MOVFF  4B9,4BB
0ABE:  RCALL  0AA0
....................    delay_us(20); 
0AC0:  MOVLW  20
0AC2:  MOVWF  00
0AC4:  DECFSZ 00,F
0AC6:  BRA    0AC4
0AC8:  BRA    0ACA
0ACA:  NOP   
....................    glcd_e=0; xuat_glcd(glcd_ctr,db);   
0ACC:  BCF    50.2
0ACE:  MOVFF  50,4BA
0AD2:  MOVFF  4B9,4BB
0AD6:  RCALL  0AA0
0AD8:  RETURN 0
.................... }                                  
.................... //xxxxxxxxxxxxxxxxxxxxxxxxxxxxxxxxxxxxxxxxxxxxxxxxxxxxxxxx   
.................... //ham 622: xuat lenh ra glcd     
.................... //xxxxxxxxxxxxxxxxxxxxxxxxxxxxxxxxxxxxxxxxxxxxxxxxxxxxxxxx   
.................... void glcd_command(int8 db)    
.................... { 
....................    glcd_rs = 0; 
0ADA:  BCF    50.4
....................    glcd_xuat_db(db);       
0ADC:  MOVFF  4B8,4B9
0AE0:  RCALL  0AB4
0AE2:  RETURN 0
.................... } 
.................... //xxxxxxxxxxxxxxxxxxxxxxxxxxxxxxxxxxxxxxxxxxxxxxxxxxxxxxxx   
.................... //ham 623: xuat data ra glcd 
.................... //xxxxxxxxxxxxxxxxxxxxxxxxxxxxxxxxxxxxxxxxxxxxxxxxxxxxxxxx  
.................... void glcd_data(int8 db)                  
.................... { 
....................    glcd_rs = 1;      
*
2D2A:  BSF    50.4
....................    glcd_xuat_db(db);      
2D2C:  MOVFF  4A6,4B9
2D30:  CALL   0AB4
2D34:  RETURN 0
.................... }  
.................... //xxxxxxxxxxxxxxxxxxxxxxxxxxxxxxxxxxxxxxxxxxxxxxxxxxxxxxxx   
.................... //ham 624: khoi tao GLCD  
.................... //xxxxxxxxxxxxxxxxxxxxxxxxxxxxxxxxxxxxxxxxxxxxxxxxxxxxxxxx    
.................... void setup_glcd (int8 glcd_fs_mode) 
.................... {                      
....................    glcd_psb = 1; 
*
0AE4:  BSF    50.0
....................    glcd_nc = 1;                              
0AE6:  BSF    50.1
....................    glcd_e  = 0; 
0AE8:  BCF    50.2
....................    glcd_rw = 0;           
0AEA:  BCF    50.3
....................    glcd_p =0;          
0AEC:  BCF    50.5
....................    glcd_command(glcd_fs_mode);          
0AEE:  MOVFF  4B7,4B8
0AF2:  RCALL  0ADA
....................    delay_us(10); 
0AF4:  MOVLW  10
0AF6:  MOVWF  00
0AF8:  DECFSZ 00,F
0AFA:  BRA    0AF8
0AFC:  NOP   
....................    glcd_command(glcd_cursor_display);        
0AFE:  MOVLW  0C
0B00:  MOVLB  4
0B02:  MOVWF  xB8
0B04:  MOVLB  0
0B06:  RCALL  0ADA
....................    delay_us(10);     
0B08:  MOVLW  10
0B0A:  MOVWF  00
0B0C:  DECFSZ 00,F
0B0E:  BRA    0B0C
0B10:  NOP   
....................    glcd_command(glcd_clear_display);       
0B12:  MOVLW  01
0B14:  MOVLB  4
0B16:  MOVWF  xB8
0B18:  MOVLB  0
0B1A:  RCALL  0ADA
....................    delay_ms(10);                                           
0B1C:  MOVLW  0A
0B1E:  MOVLB  4
0B20:  MOVWF  xB8
0B22:  MOVLB  0
0B24:  RCALL  046E
....................    glcd_command(glcd_entry_mode);       
0B26:  MOVLW  06
0B28:  MOVLB  4
0B2A:  MOVWF  xB8
0B2C:  MOVLB  0
0B2E:  RCALL  0ADA
....................    delay_us(10);                                                
0B30:  MOVLW  10
0B32:  MOVWF  00
0B34:  DECFSZ 00,F
0B36:  BRA    0B34
0B38:  NOP   
0B3A:  RETURN 0
.................... } 
.................... //xxxxxxxxxxxxxxxxxxxxxxxxxxxxxxxxxxxxxxxxxxxxxxxxxxxxxxxx   
.................... //ham 608: xuat data ra glcd 
.................... //xxxxxxxxxxxxxxxxxxxxxxxxxxxxxxxxxxxxxxxxxxxxxxxxxxxxxxxx  
.................... void glcd_clear()                  
.................... {    
....................    glcd_command(glcd_clear_display);       
....................    delay_ms(10);      
.................... }   
.................... void glcd_text_or_graphic(int8 x)                  
.................... {                                    
....................    glcd_command(x);          
....................    delay_us(10);      
.................... } 
.................... //xxxxxxxxxxxxxxxxxxxxxxxxxxxxxxxxxxxxxxxxxxxxxxxxxxxxxxxx 
.................... //dinh nghia cac hang so kich thuoc hinh anh cua GLCD        
.................... //xxxxxxxxxxxxxxxxxxxxxxxxxxxxxxxxxxxxxxxxxxxxxxxxxxxxxxxx      
.................... #define glcd_ngang  16 //16x16=256 pixel 
.................... #define glcd_doc    32 //32 hang 
.................... #define glcd_width  128 //danh cho thu vien graphic.c 
.................... int8 doc, ngang; 
.................... //xxxxxxxxxxxxxxxxxxxxxxxxxxxxxxxxxxxxxxxxxxxxxxxxxxxxxxxx 
.................... //xay dung loai du lieu dots: dung de xu diem anh 
.................... //dang word va byte de de truy xuat 
.................... //xxxxxxxxxxxxxxxxxxxxxxxxxxxxxxxxxxxxxxxxxxxxxxxxxxxxxxxx                               
.................... typedef union  
.................... {  
....................   unsigned int16 word;  
....................   unsigned int8 nbyte[2];  
.................... } dots;      
....................  
.................... //xxxxxxxxxxxxxxxxxxxxxxxxxxxxxxxxxxxxxxxxxxxxxxxxxxxxxxxx 
.................... //xay dung loai du lieu gd_ram kieu co cau truc "struct"       
.................... //xxxxxxxxxxxxxxxxxxxxxxxxxxxxxxxxxxxxxxxxxxxxxxxxxxxxxxxx      
.................... typedef struct  
.................... {  
....................   int1 refresh;  
....................   dots pixel[glcd_doc][glcd_ngang];     
.................... } gd_ram;       
.................... gd_ram gdram_vdk;  
.................... //xxxxxxxxxxxxxxxxxxxxxxxxxxxxxxxxxxxxxxxxxxxxxxxxxxxxxxxx 
.................... //ham 610: xoa vung nho gdram_vdk cung mau glcd_color   
.................... //nhung chua xuat ra GLCD  
.................... //xxxxxxxxxxxxxxxxxxxxxxxxxxxxxxxxxxxxxxxxxxxxxxxxxxxxxxxx    
.................... void glcd_mau_nen(int1 glcd_color)  
.................... {   
....................   int16 d;  
....................   if(glcd_color)  d=0xffff; else d=0; 
*
0B5E:  MOVLB  4
0B60:  MOVF   xB7,F
0B62:  BZ    0B6A
0B64:  SETF   xB9
0B66:  SETF   xB8
0B68:  BRA    0B6E
0B6A:  CLRF   xB9
0B6C:  CLRF   xB8
....................   for (doc=0; doc<glcd_doc; doc++)  
0B6E:  CLRF   51
0B70:  MOVF   51,W
0B72:  SUBLW  1F
0B74:  BNC   0BD2
....................   {  
....................     for (ngang=0; ngang<glcd_ngang; ngang++)  
0B76:  CLRF   52
0B78:  MOVF   52,W
0B7A:  SUBLW  0F
0B7C:  BNC   0BCE
....................     {  
....................       gdram_vdk.pixel[doc][ngang].word = d;  
0B7E:  CLRF   xD8
0B80:  MOVFF  51,4D7
0B84:  CLRF   xDA
0B86:  MOVLW  20
0B88:  MOVWF  xD9
0B8A:  MOVLB  0
0B8C:  RCALL  0B3C
0B8E:  MOVFF  02,03
0B92:  MOVF   01,W
0B94:  ADDLW  01
0B96:  MOVLB  4
0B98:  MOVWF  xBA
0B9A:  MOVLW  00
0B9C:  ADDWFC 02,W
0B9E:  MOVWF  xBB
0BA0:  CLRF   03
0BA2:  MOVFF  52,02
0BA6:  BCF    FD8.0
0BA8:  RLCF   02,F
0BAA:  RLCF   03,F
0BAC:  MOVF   02,W
0BAE:  ADDWF  xBA,F
0BB0:  MOVF   03,W
0BB2:  ADDWFC xBB,F
0BB4:  MOVLW  53
0BB6:  ADDWF  xBA,W
0BB8:  MOVWF  FE9
0BBA:  MOVLW  00
0BBC:  ADDWFC xBB,W
0BBE:  MOVWF  FEA
0BC0:  MOVFF  4B9,FEC
0BC4:  MOVF   FED,F
0BC6:  MOVFF  4B8,FEF
0BCA:  INCF   52,F
0BCC:  BRA    0B78
....................     }  
0BCE:  INCF   51,F
0BD0:  BRA    0B70
....................   }  
....................   gdram_vdk.refresh = true;  
0BD2:  BSF    53.0
0BD4:  MOVLB  0
0BD6:  RETURN 0
.................... }  
.................... //xxxxxxxxxxxxxxxxxxxxxxxxxxxxxxxxxxxxxxxxxxxxxxxxxxxxxxxx 
.................... //ham 610: lam 1 pixel co mau la color nhung chua xuat ra GLCD       
.................... //xxxxxxxxxxxxxxxxxxxxxxxxxxxxxxxxxxxxxxxxxxxxxxxxxxxxxxxx    
.................... void glcd_pixel(int8 x, int8 y, int1 color)                      
.................... {  
....................   int8  b;  
....................   if(y>31){x += 128; y-= 32;};                  
*
0E3C:  MOVLB  4
0E3E:  MOVF   xD4,W
0E40:  SUBLW  1F
0E42:  BC    0E4C
0E44:  MOVLW  80
0E46:  ADDWF  xD3,F
0E48:  MOVLW  20
0E4A:  SUBWF  xD4,F
....................   doc = y;  
0E4C:  MOVFF  4D4,51
....................   ngang = x/16;                                          
0E50:  SWAPF  xD3,W
0E52:  MOVWF  52
0E54:  MOVLW  0F
0E56:  ANDWF  52,F
....................   b = 15 - (x % 16);    
0E58:  MOVF   xD3,W
0E5A:  ANDLW  0F
0E5C:  XORLW  FF
0E5E:  ADDLW  10
0E60:  MOVWF  xD6
....................   if(color==1) bit_set(gdram_vdk.pixel[doc][ngang].word,b);  
0E62:  DECFSZ xD5,W
0E64:  BRA    0ED0
0E66:  CLRF   xD8
0E68:  MOVFF  51,4D7
0E6C:  CLRF   xDA
0E6E:  MOVLW  20
0E70:  MOVWF  xD9
0E72:  MOVLB  0
0E74:  RCALL  0B3C
0E76:  MOVFF  02,03
0E7A:  MOVF   01,W
0E7C:  ADDLW  01
0E7E:  MOVLB  4
0E80:  MOVWF  xD7
0E82:  MOVLW  00
0E84:  ADDWFC 02,W
0E86:  MOVWF  xD8
0E88:  CLRF   03
0E8A:  MOVFF  52,02
0E8E:  BCF    FD8.0
0E90:  RLCF   02,F
0E92:  RLCF   03,F
0E94:  MOVF   02,W
0E96:  ADDWF  xD7,F
0E98:  MOVF   03,W
0E9A:  ADDWFC xD8,F
0E9C:  MOVLW  53
0E9E:  ADDWF  xD7,W
0EA0:  MOVWF  01
0EA2:  MOVLW  00
0EA4:  ADDWFC xD8,W
0EA6:  MOVWF  03
0EA8:  MOVFF  01,FE9
0EAC:  MOVWF  FEA
0EAE:  CLRF   03
0EB0:  MOVLW  01
0EB2:  MOVWF  02
0EB4:  MOVF   xD6,W
0EB6:  MOVWF  00
0EB8:  BZ    0EC4
0EBA:  BCF    FD8.0
0EBC:  RLCF   02,F
0EBE:  RLCF   03,F
0EC0:  DECFSZ 00,F
0EC2:  BRA    0EBA
0EC4:  MOVF   02,W
0EC6:  IORWF  FEF,F
0EC8:  MOVF   03,W
0ECA:  IORWF  FEC,W
0ECC:  MOVWF  FEF
0ECE:  BRA    0F42
....................   else         bit_clear(gdram_vdk.pixel[doc][ngang].word,b);  
0ED0:  CLRF   xD8
0ED2:  MOVFF  51,4D7
0ED6:  CLRF   xDA
0ED8:  MOVLW  20
0EDA:  MOVWF  xD9
0EDC:  MOVLB  0
0EDE:  RCALL  0B3C
0EE0:  MOVFF  02,03
0EE4:  MOVF   01,W
0EE6:  ADDLW  01
0EE8:  MOVLB  4
0EEA:  MOVWF  xD7
0EEC:  MOVLW  00
0EEE:  ADDWFC 02,W
0EF0:  MOVWF  xD8
0EF2:  CLRF   03
0EF4:  MOVFF  52,02
0EF8:  BCF    FD8.0
0EFA:  RLCF   02,F
0EFC:  RLCF   03,F
0EFE:  MOVF   02,W
0F00:  ADDWF  xD7,F
0F02:  MOVF   03,W
0F04:  ADDWFC xD8,F
0F06:  MOVLW  53
0F08:  ADDWF  xD7,W
0F0A:  MOVWF  01
0F0C:  MOVLW  00
0F0E:  ADDWFC xD8,W
0F10:  MOVWF  03
0F12:  MOVFF  01,FE9
0F16:  MOVWF  FEA
0F18:  CLRF   03
0F1A:  MOVLW  01
0F1C:  MOVWF  02
0F1E:  MOVF   xD6,W
0F20:  MOVWF  00
0F22:  BZ    0F2E
0F24:  BCF    FD8.0
0F26:  RLCF   02,F
0F28:  RLCF   03,F
0F2A:  DECFSZ 00,F
0F2C:  BRA    0F24
0F2E:  MOVF   02,W
0F30:  XORLW  FF
0F32:  MOVWF  00
0F34:  MOVLW  FF
0F36:  XORWF  03,F
0F38:  MOVF   00,W
0F3A:  ANDWF  FEF,F
0F3C:  MOVF   03,W
0F3E:  ANDWF  FEC,W
0F40:  MOVWF  FEF
....................   gdram_vdk.refresh = true;      
0F42:  BSF    53.0
0F44:  MOVLB  0
0F46:  RETURN 0
.................... }  
.................... //xxxxxxxxxxxxxxxxxxxxxxxxxxxxxxxxxxxxxxxxxxxxxxxxxxxxxxxx 
.................... //ham 610: ham xuat toan bo du lieu 16x32=512word ra GLCD       
.................... //xxxxxxxxxxxxxxxxxxxxxxxxxxxxxxxxxxxxxxxxxxxxxxxxxxxxxxxx    
.................... void gdram_vdk_to_gdram_glcd_all()  
.................... {  
....................   if(gdram_vdk.refresh)  
*
2D36:  BTFSS  53.0
2D38:  BRA    2E20
....................   {  
....................     for(doc=0; doc<glcd_doc; doc++)  
2D3A:  CLRF   51
2D3C:  MOVF   51,W
2D3E:  SUBLW  1F
2D40:  BNC   2E1E
....................     {  
....................       glcd_command(0x80+doc);   // set vertical address.  
2D42:  MOVLW  80
2D44:  ADDWF  51,W
2D46:  MOVLB  4
2D48:  MOVWF  xA3
2D4A:  MOVWF  xB8
2D4C:  MOVLB  0
2D4E:  CALL   0ADA
....................       glcd_command(0x80+0);   // set horizontal address.  
2D52:  MOVLW  80
2D54:  MOVLB  4
2D56:  MOVWF  xB8
2D58:  MOVLB  0
2D5A:  CALL   0ADA
....................  
....................       for(ngang=0; ngang<glcd_ngang; ngang++)  
2D5E:  CLRF   52
2D60:  MOVF   52,W
2D62:  SUBLW  0F
2D64:  BNC   2E1A
....................       {                                   
....................         glcd_data(gdram_vdk.pixel[doc][ngang].nbyte[1]);     
2D66:  MOVLB  4
2D68:  CLRF   xD8
2D6A:  MOVFF  51,4D7
2D6E:  CLRF   xDA
2D70:  MOVLW  20
2D72:  MOVWF  xD9
2D74:  MOVLB  0
2D76:  CALL   0B3C
2D7A:  MOVFF  02,03
2D7E:  MOVF   01,W
2D80:  ADDLW  01
2D82:  MOVLB  4
2D84:  MOVWF  xA3
2D86:  MOVLW  00
2D88:  ADDWFC 02,W
2D8A:  MOVWF  xA4
2D8C:  CLRF   03
2D8E:  MOVFF  52,02
2D92:  BCF    FD8.0
2D94:  RLCF   02,F
2D96:  RLCF   03,F
2D98:  MOVF   02,W
2D9A:  ADDWF  xA3,F
2D9C:  MOVF   03,W
2D9E:  ADDWFC xA4,F
2DA0:  MOVLW  01
2DA2:  ADDWF  xA3,W
2DA4:  MOVWF  01
2DA6:  MOVLW  00
2DA8:  ADDWFC xA4,W
2DAA:  MOVWF  03
2DAC:  MOVF   01,W
2DAE:  ADDLW  53
2DB0:  MOVWF  FE9
2DB2:  MOVLW  00
2DB4:  ADDWFC 03,W
2DB6:  MOVWF  FEA
2DB8:  MOVFF  FEF,4A3
2DBC:  MOVFF  4A3,4A6
2DC0:  MOVLB  0
2DC2:  RCALL  2D2A
....................         glcd_data(gdram_vdk.pixel[doc][ngang].nbyte[0]);     
2DC4:  MOVLB  4
2DC6:  CLRF   xD8
2DC8:  MOVFF  51,4D7
2DCC:  CLRF   xDA
2DCE:  MOVLW  20
2DD0:  MOVWF  xD9
2DD2:  MOVLB  0
2DD4:  CALL   0B3C
2DD8:  MOVFF  02,03
2DDC:  MOVF   01,W
2DDE:  ADDLW  01
2DE0:  MOVLB  4
2DE2:  MOVWF  xA3
2DE4:  MOVLW  00
2DE6:  ADDWFC 02,W
2DE8:  MOVWF  xA4
2DEA:  CLRF   03
2DEC:  MOVFF  52,02
2DF0:  BCF    FD8.0
2DF2:  RLCF   02,F
2DF4:  RLCF   03,F
2DF6:  MOVF   02,W
2DF8:  ADDWF  xA3,F
2DFA:  MOVF   03,W
2DFC:  ADDWFC xA4,F
2DFE:  MOVLW  53
2E00:  ADDWF  xA3,W
2E02:  MOVWF  FE9
2E04:  MOVLW  00
2E06:  ADDWFC xA4,W
2E08:  MOVWF  FEA
2E0A:  MOVFF  FEF,4A5
2E0E:  MOVFF  4A5,4A6
2E12:  MOVLB  0
2E14:  RCALL  2D2A
2E16:  INCF   52,F
2E18:  BRA    2D60
....................       }  
2E1A:  INCF   51,F
2E1C:  BRA    2D3C
....................     }  
....................     gdram_vdk.refresh = false;  
2E1E:  BCF    53.0
....................   }  
2E20:  GOTO   365C (RETURN)
.................... }  
.................... //xxxxxxxxxxxxxxxxxxxxxxxxxxxxxxxxxxxxxxxxxxxxxxxxxxxxxxxx 
.................... //ham 610: ham xuat 1 vung du lieu bat dau tai (x,y)  
.................... //va rong va cao ra GLCD 
.................... //xxxxxxxxxxxxxxxxxxxxxxxxxxxxxxxxxxxxxxxxxxxxxxxxxxxxxxxx  
.................... void gdram_vdk_to_gdram_glcd_area(int8 x,int8 y,int8 rong, int8 cao) 
.................... {                                                  
....................   int8 hesox,hesoy;  
....................   if (gdram_vdk.refresh)  
....................   {        
....................       if(((rong+x)/16)!=0) rong=((rong)/16)+1; 
....................       else                 rong=((rong)/16);  
....................       x = x/16; 
....................       for(doc=y;doc<(y+cao);doc++)  
....................       {  
....................          if(doc>31) 
....................             {   
....................                hesoy = doc-32; 
....................                hesox = 8+x; 
....................                } 
....................          else  
....................          { 
....................             hesoy = doc; 
....................             hesox = x; 
....................             } 
....................          glcd_command(0x80+hesoy);    
....................          glcd_command(0x80+hesox);   
....................        
....................          for(ngang=hesox; ngang<(hesox+rong); ngang++)  
....................          {  
....................             glcd_data( gdram_vdk.pixel[hesoy][ngang].nbyte[1]);   // write high byte.  
....................             glcd_data( gdram_vdk.pixel[hesoy][ngang].nbyte[0]);   // write low byte.  
....................          }  
....................        }  
....................     gdram_vdk.refresh = false;  
....................   }       
.................... } 
.................... //xxxxxxxxxxxxxxxxxxxxxxxxxxxxxxxxxxxxxxxxxxxxxxxxxxxxxxxx 
.................... //vung du lieu nhi phan cua anh logo spkt 
.................... //xxxxxxxxxxxxxxxxxxxxxxxxxxxxxxxxxxxxxxxxxxxxxxxxxxxxxxxx    
....................  
.................... /*const unsigned char logo_spk [] = { 
.................... 0x00, 0x00, 0x00, 0x00, 0x00, 0x00, 0x00, 0x00, 0x00, 0x00, 0x00, 0x00, 0x00, 0x00, 0x00, 0x00, 
.................... 0x00, 0x00, 0x00, 0x00, 0x00, 0x00, 0x00, 0x00, 0x00, 0x00, 0x00, 0x01, 0x80, 0x00, 0x00, 0x00, 
.................... 0x00, 0x00, 0x00, 0x01, 0x80, 0x00, 0x00, 0x00, 0x00, 0x00, 0x00, 0x01, 0x80, 0x00, 0x00, 0x00, 
.................... 0x00, 0x00, 0x00, 0x07, 0xe0, 0x00, 0x00, 0x00, 0x00, 0x00, 0x00, 0x07, 0xa0, 0x00, 0x00, 0x00, 
.................... 0x00, 0x00, 0x00, 0x03, 0x20, 0x00, 0x00, 0x00, 0x00, 0x00, 0x00, 0x03, 0x20, 0x00, 0x00, 0x00, 
....................                                                                     
.................... 0x00, 0x00, 0x00, 0x02, 0x20, 0x00, 0x00, 0x00, 0x00, 0x00, 0x00, 0x02, 0x30, 0x00, 0x00, 0x00, 
.................... 0x00, 0x00, 0x00, 0x02, 0x30, 0x00, 0x00, 0x00, 0x00, 0x7f, 0x00, 0x00, 0x30, 0x00, 0x7e, 0x00, 
.................... 0x00, 0xfe, 0x00, 0x07, 0xe0, 0x00, 0x3f, 0x00, 0x01, 0xf8, 0x00, 0x03, 0xe0, 0x00, 0x1f, 0x80, 
.................... 0x03, 0xf0, 0x00, 0x01, 0xc0, 0x00, 0x0f, 0xc0, 0x03, 0xe0, 0x00, 0x01, 0xc0, 0x00, 0x07, 0xe0, 
.................... 0x07, 0xc0, 0x00, 0x03, 0xc0, 0x00, 0x03, 0xf0, 0x0f, 0xc0, 0x00, 0x17, 0xf4, 0x00, 0x01, 0xf0, 
....................  
.................... 0x0f, 0x80, 0x00, 0x1d, 0x98, 0x00, 0x00, 0xf8, 0x1f, 0x00, 0x00, 0x11, 0x8c, 0x00, 0x00, 0xf8, 
.................... 0x1f, 0x01, 0x00, 0x31, 0x84, 0x00, 0x80, 0x7c, 0x3e, 0x06, 0x00, 0x31, 0x86, 0x00, 0x20, 0x7c, 
.................... 0x3e, 0x18, 0x00, 0x71, 0x86, 0x00, 0x1c, 0x3e, 0x3c, 0x43, 0x00, 0x31, 0x84, 0x00, 0xc3, 0x3e, 
.................... 0x7c, 0x0c, 0x00, 0x11, 0x8c, 0x00, 0x38, 0x1e, 0x7c, 0x31, 0x00, 0x1d, 0x98, 0x00, 0x86, 0x1f, 
.................... 0x78, 0xc6, 0x00, 0x1f, 0xfc, 0x00, 0x63, 0x1f, 0x78, 0x18, 0x00, 0x03, 0xc0, 0x00, 0x0c, 0x1f, 
....................  
.................... 0xf8, 0x63, 0x80, 0x01, 0x80, 0x00, 0xc7, 0x0f, 0xf9, 0x8e, 0x00, 0x00, 0x00, 0x00, 0x38, 0x8f, 
.................... 0xf8, 0x38, 0x80, 0x00, 0x00, 0x01, 0x0c, 0x0f, 0xf8, 0xc3, 0x80, 0x00, 0x00, 0x00, 0xe3, 0x8f, 
.................... 0xf9, 0x8e, 0x00, 0x00, 0x00, 0x00, 0x30, 0xcf, 0xf8, 0x38, 0xf8, 0x00, 0x00, 0x1f, 0x9e, 0x0f, 
.................... 0xf8, 0xe3, 0xfe, 0x00, 0x00, 0x7f, 0xe3, 0x8f, 0xf9, 0x9f, 0xff, 0xc0, 0x03, 0xff, 0xf9, 0xcf, 
.................... 0x78, 0xff, 0xff, 0xe0, 0x07, 0xff, 0xff, 0x0f, 0x78, 0x1f, 0xff, 0xe0, 0x07, 0xff, 0xfc, 0x1f, 
....................  
.................... 0x7c, 0x07, 0xff, 0xe0, 0x07, 0xff, 0xe0, 0x1f, 0x7c, 0x00, 0xff, 0xe0, 0x07, 0xff, 0x80, 0x1e, 
.................... 0x7c, 0x00, 0x1f, 0xe0, 0x07, 0xfc, 0x00, 0x3e, 0x3e, 0x01, 0xcf, 0xe0, 0x07, 0xf3, 0x80, 0x3e, 
.................... 0x3e, 0x01, 0xff, 0xe0, 0x03, 0xff, 0x80, 0x7c, 0x1f, 0x01, 0xff, 0xe0, 0x03, 0xff, 0xc0, 0x7c, 
.................... 0x1f, 0x01, 0xff, 0xc0, 0x03, 0xff, 0xc0, 0xf8, 0x0f, 0x83, 0xff, 0xc0, 0x01, 0xff, 0xc0, 0xf8, 
.................... 0x0f, 0x83, 0xff, 0xc0, 0x01, 0xff, 0xc1, 0xf0, 0x07, 0xc3, 0xff, 0x80, 0x01, 0xff, 0xe3, 0xf0, 
....................  
.................... 0x03, 0xe3, 0xff, 0x80, 0x01, 0xff, 0xe7, 0xe0, 0x03, 0xf7, 0xff, 0x80, 0x00, 0xff, 0xef, 0xc0, 
.................... 0x01, 0xff, 0xff, 0x80, 0x00, 0xff, 0xff, 0x80, 0x00, 0xff, 0xff, 0x00, 0x00, 0xff, 0xff, 0x80, 
.................... 0x00, 0x7f, 0xff, 0x00, 0x00, 0xff, 0xff, 0x00, 0x00, 0x3f, 0xff, 0x00, 0x00, 0xff, 0xfe, 0x00, 
.................... 0x00, 0x1f, 0xff, 0x00, 0x00, 0x7f, 0xf8, 0x00, 0x00, 0x0f, 0xfe, 0x00, 0x00, 0x7f, 0xf0, 0x00, 
.................... 0x00, 0x03, 0xff, 0x00, 0x00, 0x7f, 0xe0, 0x00, 0x00, 0x00, 0xff, 0xfc, 0x1f, 0xff, 0x80, 0x00, 
....................  
.................... 0x00, 0x00, 0x7f, 0xff, 0xff, 0xfe, 0x00, 0x00, 0x00, 0x00, 0x0f, 0xff, 0xff, 0xf8, 0x00, 0x00, 
.................... 0x00, 0x00, 0x01, 0xff, 0xff, 0xc0, 0x00, 0x00, 0x00, 0x00, 0x00, 0x0f, 0xf0, 0x00, 0x00, 0x00 
.................... };*/ 
.................... const unsigned char logo_spk [] = { /* 0X00,0X01,0X2A,0X00,0X40,0X00, */ 
.................... 0XFF,0XFF,0XDF,0XFF,0XFF,0XC0,0XFF,0XFF,0X8F,0XFF,0XFF,0XC0,0XFF,0XFF,0X07,0XFF, 
.................... 0XFF,0XC0,0XFF,0XFE,0X03,0XFF,0XFF,0XC0,0XFF,0XFC,0X03,0XFF,0XFF,0XC0,0XFF,0XF8, 
.................... 0X01,0XFF,0XFF,0XC0,0XFF,0XF8,0X00,0XFF,0XFF,0XC0,0XFF,0XFB,0X00,0XFF,0XFF,0XC0, 
.................... 0XFF,0XF1,0XC0,0X7F,0XFF,0XC0,0XFF,0XE0,0X00,0X3F,0XFF,0XC0,0XFF,0XE0,0X00,0X3F, 
.................... 0XFF,0XC0,0XFF,0XC0,0X00,0X1F,0XFF,0XC0,0XFF,0XC0,0X00,0X1F,0XFF,0XC0,0XFF,0XDF, 
.................... 0X00,0X0F,0XF7,0XC0,0XFF,0X8E,0X00,0X0F,0XE0,0X00,0XFF,0X8E,0X00,0X0F,0XF0,0X00, 
.................... 0XFF,0X80,0X00,0X0F,0XFC,0X00,0XFF,0X8F,0X80,0X07,0XFF,0XC0,0XFF,0X3F,0X80,0X07, 
.................... 0XDF,0XC0,0XFF,0XFF,0XFE,0X07,0XFF,0XC0,0X03,0XF7,0XFC,0X0F,0XFF,0XC0,0X01,0XF7, 
.................... 0XE0,0X0F,0XFF,0XC0,0X03,0XF7,0XC1,0X9F,0XFF,0XC0,0X03,0XFB,0XC0,0XCF,0XFF,0XC0, 
.................... 0X03,0XFB,0X82,0X1F,0XFF,0XC0,0X00,0XFF,0X80,0X3F,0XFF,0XC0,0X00,0X7F,0X80,0X3F, 
.................... 0XFF,0XC0,0X80,0X3F,0X00,0X3C,0X01,0XC0,0X80,0X1F,0X00,0X7C,0X00,0X00,0XC0,0X0F, 
.................... 0X81,0X40,0X00,0X00,0XE0,0X07,0X81,0XC0,0X00,0X00,0X18,0X03,0X87,0X80,0X00,0X00, 
.................... 0X00,0X01,0X8F,0X80,0X00,0X00,0X00,0X00,0X0F,0X80,0X00,0X00,0X00,0X00,0X0F,0XF9, 
.................... 0XFF,0XC0,0X00,0X00,0X0F,0XC0,0X17,0XC0,0X08,0X00,0X0F,0X00,0X03,0XC0,0X06,0X00, 
.................... 0X0E,0X00,0X01,0XC0,0X01,0X80,0X00,0X00,0X00,0XC0,0X00,0X60,0X04,0X00,0X00,0XC0, 
.................... 0X00,0X2C,0X00,0X00,0X00,0X40,0X40,0X13,0X00,0X00,0X00,0X00,0X20,0X08,0X80,0X00, 
.................... 0X00,0X00,0X00,0X04,0X00,0X00,0X00,0X00,0X00,0X02,0X00,0X00,0X00,0X00,0X00,0X03, 
.................... 0X00,0X00,0X00,0X00,0X02,0X01,0X00,0X00,0X00,0X00,0X01,0X00,0X80,0X00,0X00,0X00, 
.................... 0X00,0X00,0X00,0X00,0X00,0X00,0X80,0X00,0X00,0X00,0X00,0X00,0X80,0X3C,0X03,0X80, 
.................... 0X00,0X00,0X80,0X38,0X03,0XF8,0X00,0X00,0X80,0X32,0X00,0XF8,0X00,0X00,0XC0,0X27, 
.................... 0X00,0X70,0X00,0X00,0XE0,0X07,0X00,0X7E,0X00,0X00,0X70,0X3E,0X08,0X3F,0XFE,0X00, 
.................... 0X20,0X3C,0X08,0X0F,0XFF,0XC0,0X00,0X1C,0X00,0X07,0XFF,0XC0,0X00,0X1C,0X00,0X07, 
.................... 0XFF,0XC0,0XFF,0X8C,0X00,0X03,0XFF,0XC0,0XFF,0X8E,0X00,0X03,0XFF,0XC0,0XFF,0X9E, 
.................... 0X01,0X81,0XFF,0XC0,0XFF,0X8E,0X01,0X81,0XFF,0XC0,0XFF,0X8F,0X41,0XC1,0X7F,0XC0, 
.................... }; 
....................  
....................  
.................... //xxxxxxxxxxxxxxxxxxxxxxxxxxxxxxxxxxxxxxxxxxxxxxxxxxxxxxxx 
.................... //Ham xuat anh logo spk ra GLCD theo cach truc tiep 
.................... //xxxxxxxxxxxxxxxxxxxxxxxxxxxxxxxxxxxxxxxxxxxxxxxxxxxxxxxx                  
.................... //!void glcd_xuat_anh(int width,int height,int x,int y)  
.................... //!{                                         
.................... //!   unsigned int i=0, j=0, k=0;                                                    
.................... //!   unsigned int16 n=0;                                       
.................... //!   ngang=0;      n=0;                                  
.................... //!   for(j=0;j<height;j++)          //doc                               
.................... //!   {                            
.................... //!      if(j>31) {ngang=8; k=j-32;} 
.................... //!      else k=j;                                               
.................... //!      glcd_command(0x80+(y+k)); //vertical address.  
.................... //!      glcd_command(0x80+((x/16)+ngang));   //horizontal address. 
.................... //!                                                                                 
.................... //!      for(i=0;i<width/16;i++)  
.................... //!      {                                  
.................... //!         glcd_data(logo_spk[n]);    n++;                                                      
.................... //!         glcd_data(logo_spk[n]);    n++;                                    
.................... //!      }                                                         
.................... //!   }                                                           
.................... //!}     
.................... //xxxxxxxxxxxxxxxxxxxxxxxxxxxxxxxxxxxxxxxxxxxxxxxxxxxxxxxx 
.................... //Ham xuat anh logo spk ra GLCD 
.................... //xxxxxxxxxxxxxxxxxxxxxxxxxxxxxxxxxxxxxxxxxxxxxxxxxxxxxxxx                  
.................... //!void glcd_xuat_anh_ok(int width,int height,int x,int y)  
.................... //!{                        
.................... //!   unsigned int i=0, j=0, k=0;                                                    
.................... //!   unsigned int16 n=0;   
.................... //!   ngang=0;                                                  
.................... //!   for(j=0;j<height;j++)  //cot tinh theo pixel                                                                      
.................... //!   {                            
.................... //!      if(j>31) {ngang=8; k=j-32;}     //chuyen vung                        
.................... //!      else k=j;                                                
.................... //!      for(i=0;i<width/16;i++)                                    
.................... //!      {                                  
.................... //!         gdram_vdk.pixel[y+k][x/16+ngang+i].nbyte[1] = logo_spk[n];  
.................... //!         n++;                                                      
.................... //!         gdram_vdk.pixel[y+k][x/16+ngang+i].nbyte[0] = logo_spk[n];  
.................... //!         n++;                                    
.................... //!      }  
.................... //!   }                                                           
.................... //!}                                                                                        
.................... //xxxxxxxxxxxxxxxxxxxxxxxxxxxxxxxxxxxxxxxxxxxxxxxxxxxxxxxx 
.................... //Ham xuat anh logo spkt ra GLCD 
.................... //xxxxxxxxxxxxxxxxxxxxxxxxxxxxxxxxxxxxxxxxxxxxxxxxxxxxxxxx     
.................... void glcd_xuat_anh(int width,int height,int x,int y)  
.................... {                        
....................    unsigned int i=0, j=0, k=0;                                                    
....................    unsigned int16 n=0;  
....................    for(j=0;j<height;j++)                                      
....................    {     
....................       i=0; 
....................       do 
....................       {                                 
....................          for(k=8;k>0;k--) 
....................          {                   
....................             glcd_pixel(x+i,y+j,bit_test(logo_spk[n],(k-1)));  
....................             i++;                       
....................          }                  
....................          n++;            
....................       }while(i<width);   
....................    }  
.................... } 
....................  
.................... void glcd_xuat_anh_c3(int width,int height,int x,int y)  
.................... {                        
....................    unsigned int i=0, j=0, k=0;                                                    
....................    unsigned int16 count=0;  
....................    for(j=0;j<height;j++)                                      
....................    {     
....................       for(;i<width;)  
....................       {  
....................          for(k=8;k>0;k--) 
....................          { 
....................             glcd_pixel(x+i,y+j,bit_test(logo_spk[count],(k-1)));  
....................             i++;                         
....................          }  
....................          count++;            
....................       }                                    
....................       i=0;  
....................    }  
.................... } 
....................         
....................  
....................  
.................... #include <graphics.c>//duoi tv_pic_glcd 
.................... ///////////////////////////////////////////////////////////////////////// 
.................... ////                          graphics.c                             //// 
.................... ////                                                                 //// 
.................... ////   This file contains functions to draw lines, rectangles, bars, //// 
.................... ////   circles and text to a display. A function which draws a       //// 
.................... ////   single pixel must be defined before calling the functions in  //// 
.................... ////   this file. Call it glcd_pixel(x, y, color) where x is the     //// 
.................... ////   horizontal coordinate, y is the vertical coordinate, and      //// 
.................... ////   color is 1 bit to turn the pixel on or off.                   //// 
.................... ////                                                                 //// 
.................... ////   * Note: (0, 0) is treated as the upper left corner            //// 
.................... ////                                                                 //// 
.................... ///////////////////////////////////////////////////////////////////////// 
.................... ////                                                                 //// 
.................... ////  glcd_line(x1, y1, x2, y2, color)                               //// 
.................... ////     * Draws a line from the first point to the second point     //// 
.................... ////       with the given color                                      //// 
.................... ////       - color can be ON or OFF                                  //// 
.................... ////                                                                 //// 
.................... ////  glcd_rect(x1, y1, x2, y2, fill, color)                         //// 
.................... ////     * Draws a rectangle with one corner at point (x1,y1) and    //// 
.................... ////       the other corner at point (x2,y2)                         //// 
.................... ////       - fill can be YES or NO                                   //// 
.................... ////       - color can be ON or OFF                                  //// 
.................... ////                                                                 //// 
.................... ////  glcd_bar(x1, y1, x2, y2, width, color)                         //// 
.................... ////     * Draws a bar (wide line) from the first point to the       //// 
.................... ////       second point                                              //// 
.................... ////       - width is the number of pixels wide                      //// 
.................... ////       - color is ON or OFF                                      //// 
.................... ////                                                                 //// 
.................... ////  glcd_circle(x, y, radius, fill, color)                         //// 
.................... ////     * Draws a circle with center at (x,y)                       //// 
.................... ////       - fill can be YES or NO                                   //// 
.................... ////       - color can be ON or OFF                                  //// 
.................... ////                                                                 //// 
.................... ////  glcd_text57(x, y, textptr, size, color)                        //// 
.................... ////     * Write the null terminated text pointed to by textptr with //// 
.................... ////       the upper left coordinate of the first character at (x,y) //// 
.................... ////       Characters are 5 pixels wide and 7 pixels tall            //// 
.................... ////       - size is an integer that scales the size of the text     //// 
.................... ////       - color is ON or OFF                                      //// 
.................... ////     * Note - This function wraps characters to the next line    //// 
.................... ////              use #define GLCD_WIDTH to specify a display width  //// 
.................... ////                                                                 //// 
.................... ///////////////////////////////////////////////////////////////////////// 
.................... ////        (C) Copyright 1996, 2010 Custom Computer Services        //// 
.................... //// This source code may only be used by licensed users of the CCS  //// 
.................... //// C compiler.  This source code may only be distributed to other  //// 
.................... //// licensed users of the CCS C compiler.  No other use,            //// 
.................... //// reproduction or distribution is permitted without written       //// 
.................... //// permission.  Derivative programs created using this software    //// 
.................... //// in object code form are not restricted in any way.              //// 
.................... ///////////////////////////////////////////////////////////////////////// 
....................  
....................  
.................... ///////////////////////////////////////////////////////////////////////// 
.................... #ifndef GRAPHICS_DRAWING_FUNCTIONS 
.................... #define GRAPHICS_DRAWING_FUNCTIONS 
.................... ///////////////////////////////////////////////////////////////////////// 
....................  
....................  
.................... ///////////////////////////////////////////////////////////////////////// 
.................... #ifndef ON 
.................... #define ON  1 
.................... #endif 
....................  
.................... #ifndef OFF 
.................... #define OFF 0 
.................... #endif 
....................  
.................... #ifndef YES 
.................... #define YES 1 
.................... #endif 
....................  
.................... #ifndef NO 
.................... #define NO  0 
.................... #endif 
.................... ///////////////////////////////////////////////////////////////////////// 
....................  
....................  
.................... ///////////////////////////////////////////////////////////////////////// 
.................... //// Defines a 5x7 font 
.................... ///////////////////////////////////////////////////////////////////////// 
.................... const unsigned int8 FONT[51][5] ={0x00, 0x00, 0x00, 0x00, 0x00, // SPACE 
....................                          0x00, 0x00, 0x5F, 0x00, 0x00, // ! 
....................                          0x00, 0x03, 0x00, 0x03, 0x00, // " 
....................                          0x14, 0x3E, 0x14, 0x3E, 0x14, // # 
....................                          0x24, 0x2A, 0x7F, 0x2A, 0x12, // $ 
....................                          0x43, 0x33, 0x08, 0x66, 0x61, // % 
....................                          0x36, 0x49, 0x55, 0x22, 0x50, // & 
....................                          0x00, 0x05, 0x03, 0x00, 0x00, // ' 
....................                          0x00, 0x1C, 0x22, 0x41, 0x00, // ( 
....................                          0x00, 0x41, 0x22, 0x1C, 0x00, // ) 
....................                          0x14, 0x08, 0x3E, 0x08, 0x14, // * 
....................                          0x08, 0x08, 0x3E, 0x08, 0x08, // + 
....................                          0x00, 0x50, 0x30, 0x00, 0x00, // , 
....................                          0x08, 0x08, 0x08, 0x08, 0x08, // - 
....................                          0x00, 0x60, 0x60, 0x00, 0x00, // . 
....................                          0x20, 0x10, 0x08, 0x04, 0x02, // / 
....................                          0x3E, 0x51, 0x49, 0x45, 0x3E, // 0 
....................                          0x00, 0x04, 0x02, 0x7F, 0x00, // 1 
....................                          0x42, 0x61, 0x51, 0x49, 0x46, // 2 
....................                          0x22, 0x41, 0x49, 0x49, 0x36, // 3 
....................                          0x18, 0x14, 0x12, 0x7F, 0x10, // 4 
....................                          0x27, 0x45, 0x45, 0x45, 0x39, // 5 
....................                          0x3E, 0x49, 0x49, 0x49, 0x32, // 6 
....................                          0x01, 0x01, 0x71, 0x09, 0x07, // 7 
....................                          0x36, 0x49, 0x49, 0x49, 0x36, // 8 
....................                          0x26, 0x49, 0x49, 0x49, 0x3E, // 9 
....................                          0x00, 0x36, 0x36, 0x00, 0x00, // : 
....................                          0x00, 0x56, 0x36, 0x00, 0x00, // ; 
....................                          0x08, 0x14, 0x22, 0x41, 0x00, // < 
....................                          0x14, 0x14, 0x14, 0x14, 0x14, // = 
....................                          0x00, 0x41, 0x22, 0x14, 0x08, // > 
....................                          0x02, 0x01, 0x51, 0x09, 0x06, // ? 
....................                          0x3E, 0x41, 0x59, 0x55, 0x5E, // @ 
....................                          0x7E, 0x09, 0x09, 0x09, 0x7E, // A 
....................                          0x7F, 0x49, 0x49, 0x49, 0x36, // B 
....................                          0x3E, 0x41, 0x41, 0x41, 0x22, // C 
....................                          0x7F, 0x41, 0x41, 0x41, 0x3E, // D 
....................                          0x7F, 0x49, 0x49, 0x49, 0x41, // E 
....................                          0x7F, 0x09, 0x09, 0x09, 0x01, // F 
....................                          0x3E, 0x41, 0x41, 0x49, 0x3A, // G 
....................                          0x7F, 0x08, 0x08, 0x08, 0x7F, // H 
....................                          0x00, 0x41, 0x7F, 0x41, 0x00, // I 
....................                          0x30, 0x40, 0x40, 0x40, 0x3F, // J 
....................                          0x7F, 0x08, 0x14, 0x22, 0x41, // K 
....................                          0x7F, 0x40, 0x40, 0x40, 0x40, // L 
....................                          0x7F, 0x02, 0x0C, 0x02, 0x7F, // M 
....................                          0x7F, 0x02, 0x04, 0x08, 0x7F, // N 
....................                          0x3E, 0x41, 0x41, 0x41, 0x3E, // O 
....................                          0x7F, 0x09, 0x09, 0x09, 0x06, // P 
....................                          0x1E, 0x21, 0x21, 0x21, 0x5E, // Q 
....................                          0x7F, 0x09, 0x09, 0x09, 0x76};// R 
....................  
.................... const unsigned int8 FONT2[44][5]={0x26, 0x49, 0x49, 0x49, 0x32, // S 
....................                          0x01, 0x01, 0x7F, 0x01, 0x01, // T 
....................                          0x3F, 0x40, 0x40, 0x40, 0x3F, // U 
....................                          0x1F, 0x20, 0x40, 0x20, 0x1F, // V 
....................                          0x7F, 0x20, 0x10, 0x20, 0x7F, // W 
....................                          0x41, 0x22, 0x1C, 0x22, 0x41, // X 
....................                          0x07, 0x08, 0x70, 0x08, 0x07, // Y 
....................                          0x61, 0x51, 0x49, 0x45, 0x43, // Z 
....................                          0x00, 0x7F, 0x41, 0x00, 0x00, // [ 
....................                          0x02, 0x04, 0x08, 0x10, 0x20, // \ 
....................                          0x00, 0x00, 0x41, 0x7F, 0x00, // ] 
....................                          0x04, 0x02, 0x01, 0x02, 0x04, // ^ 
....................                          0x40, 0x40, 0x40, 0x40, 0x40, // _ 
....................                          0x00, 0x01, 0x02, 0x04, 0x00, // ` 
....................                          0x20, 0x54, 0x54, 0x54, 0x78, // a 
....................                          0x7F, 0x44, 0x44, 0x44, 0x38, // b 
....................                          0x38, 0x44, 0x44, 0x44, 0x44, // c 
....................                          0x38, 0x44, 0x44, 0x44, 0x7F, // d 
....................                          0x38, 0x54, 0x54, 0x54, 0x18, // e 
....................                          0x04, 0x04, 0x7E, 0x05, 0x05, // f 
....................                          0x08, 0x54, 0x54, 0x54, 0x3C, // g 
....................                          0x7F, 0x08, 0x04, 0x04, 0x78, // h 
....................                          0x00, 0x44, 0x7D, 0x40, 0x00, // i 
....................                          0x20, 0x40, 0x44, 0x3D, 0x00, // j 
....................                          0x7F, 0x10, 0x28, 0x44, 0x00, // k 
....................                          0x00, 0x41, 0x7F, 0x40, 0x00, // l 
....................                          0x7C, 0x04, 0x78, 0x04, 0x78, // m 
....................                          0x7C, 0x08, 0x04, 0x04, 0x78, // n 
....................                          0x38, 0x44, 0x44, 0x44, 0x38, // o 
....................                          0x7C, 0x14, 0x14, 0x14, 0x08, // p 
....................                          0x08, 0x14, 0x14, 0x14, 0x7C, // q 
....................                          0x00, 0x7C, 0x08, 0x04, 0x04, // r 
....................                          0x48, 0x54, 0x54, 0x54, 0x20, // s 
....................                          0x04, 0x04, 0x3F, 0x44, 0x44, // t 
....................                          0x3C, 0x40, 0x40, 0x20, 0x7C, // u 
....................                          0x1C, 0x20, 0x40, 0x20, 0x1C, // v 
....................                          0x3C, 0x40, 0x30, 0x40, 0x3C, // w 
....................                          0x44, 0x28, 0x10, 0x28, 0x44, // x 
....................                          0x0C, 0x50, 0x50, 0x50, 0x3C, // y 
....................                          0x44, 0x64, 0x54, 0x4C, 0x44, // z 
....................                          0x00, 0x08, 0x36, 0x41, 0x41, // { 
....................                          0x00, 0x00, 0x7F, 0x00, 0x00, // | 
....................                          0x41, 0x41, 0x36, 0x08, 0x00, // } 
....................                          0x02, 0x01, 0x02, 0x04, 0x02};// ~ 
.................... ///////////////////////////////////////////////////////////////////////// 
....................  
....................  
.................... ///////////////////////////////////////////////////////////////////////// 
.................... // Purpose:       Draw a line on a graphic LCD using Bresenham's 
.................... //                line drawing algorithm 
.................... // Inputs:        (x1, y1) - the start coordinate 
.................... //                (x2, y2) - the end coordinate 
.................... //                color - ON or OFF 
.................... // Dependencies:  glcd_pixel() 
.................... ///////////////////////////////////////////////////////////////////////// 
.................... #ifdef LARGE_LCD 
.................... void glcd_line(unsigned int16 x1, unsigned int16 y1, unsigned int16 x2, iunsigned nt16 y2, int1 color) 
.................... #else 
.................... void glcd_line(unsigned int8 x1, unsigned int8 y1, unsigned int8 x2, unsigned int8 y2, int1 color) 
.................... #endif 
*
1102:  MOVLW  01
1104:  MOVLB  4
1106:  MOVWF  xCC
1108:  MOVWF  xCD
110A:  CLRF   xD2
.................... { 
....................    unsigned int16        dy, dx; 
....................    signed int8  addx=1, addy=1; 
....................    signed int16 P, diff; 
....................  
....................    #ifdef LARGE_LCD 
....................    unsigned int16 i=0; 
....................    dx = abs((signed int16)(x2 - x1)); 
....................    dy = abs((signed int16)(y2 - y1)); 
....................    #else 
....................    unsigned int8 i=0; 
....................    dx = abs((signed int8)(x2 - x1)); 
110C:  MOVF   xC3,W
110E:  SUBWF  xC5,W
1110:  MOVWF  xD3
1112:  MOVF   xD3,W
1114:  BTFSS  xD3.7
1116:  BRA    111E
1118:  MOVLW  00
111A:  BSF    FD8.0
111C:  SUBFWB xD3,W
111E:  CLRF   03
1120:  MOVWF  xCA
1122:  MOVFF  03,4CB
....................    dy = abs((signed int8)(y2 - y1)); 
1126:  MOVF   xC4,W
1128:  SUBWF  xC6,W
112A:  MOVWF  xD3
112C:  MOVF   xD3,W
112E:  BTFSS  xD3.7
1130:  BRA    1138
1132:  MOVLW  00
1134:  BSF    FD8.0
1136:  SUBFWB xD3,W
1138:  CLRF   03
113A:  MOVWF  xC8
113C:  MOVFF  03,4C9
....................    #endif 
....................  
....................    if(x1 > x2) 
1140:  MOVF   xC3,W
1142:  SUBWF  xC5,W
1144:  BC    1148
....................       addx = -1; 
1146:  SETF   xCC
....................    if(y1 > y2) 
1148:  MOVF   xC4,W
114A:  SUBWF  xC6,W
114C:  BC    1150
....................       addy = -1; 
114E:  SETF   xCD
....................  
....................    if(dx >= dy) 
1150:  MOVF   xC9,W
1152:  SUBWF  xCB,W
1154:  BNC   11CA
1156:  BNZ   115E
1158:  MOVF   xC8,W
115A:  SUBWF  xCA,W
115C:  BNC   11CA
....................    { 
....................       dy *= 2; 
115E:  BCF    FD8.0
1160:  RLCF   xC8,F
1162:  RLCF   xC9,F
....................       P = dy - dx; 
1164:  MOVF   xCA,W
1166:  SUBWF  xC8,W
1168:  MOVWF  00
116A:  MOVF   xCB,W
116C:  SUBWFB xC9,W
116E:  MOVFF  00,4CE
1172:  MOVWF  xCF
....................       diff = P - dx; 
1174:  MOVF   xCA,W
1176:  SUBWF  xCE,W
1178:  MOVWF  xD0
117A:  MOVF   xCB,W
117C:  SUBWFB xCF,W
117E:  MOVWF  xD1
....................  
....................       for(; i<=dx; ++i) 
1180:  MOVF   xCB,F
1182:  BNZ   118A
1184:  MOVF   xD2,W
1186:  SUBWF  xCA,W
1188:  BNC   11C8
....................       { 
....................          glcd_pixel(x1, y1, color); 
118A:  MOVFF  4C3,4D3
118E:  MOVFF  4C4,4D4
1192:  MOVFF  4C7,4D5
1196:  MOVLB  0
1198:  RCALL  0E3C
....................  
....................          if(P < 0) 
119A:  MOVLB  4
119C:  BTFSS  xCF.7
119E:  BRA    11B0
....................          { 
....................             P  += dy; 
11A0:  MOVF   xC8,W
11A2:  ADDWF  xCE,F
11A4:  MOVF   xC9,W
11A6:  ADDWFC xCF,F
....................             x1 += addx; 
11A8:  MOVF   xCC,W
11AA:  ADDWF  xC3,W
11AC:  MOVWF  xC3
....................          } 
11AE:  BRA    11C4
....................          else 
....................          { 
....................             P  += diff; 
11B0:  MOVF   xD0,W
11B2:  ADDWF  xCE,F
11B4:  MOVF   xD1,W
11B6:  ADDWFC xCF,F
....................             x1 += addx; 
11B8:  MOVF   xCC,W
11BA:  ADDWF  xC3,W
11BC:  MOVWF  xC3
....................             y1 += addy; 
11BE:  MOVF   xCD,W
11C0:  ADDWF  xC4,W
11C2:  MOVWF  xC4
....................          } 
11C4:  INCF   xD2,F
11C6:  BRA    1180
....................       } 
....................    } 
11C8:  BRA    1234
....................    else 
....................    { 
....................       dx *= 2; 
11CA:  BCF    FD8.0
11CC:  RLCF   xCA,F
11CE:  RLCF   xCB,F
....................       P = dx - dy; 
11D0:  MOVF   xC8,W
11D2:  SUBWF  xCA,W
11D4:  MOVWF  00
11D6:  MOVF   xC9,W
11D8:  SUBWFB xCB,W
11DA:  MOVFF  00,4CE
11DE:  MOVWF  xCF
....................       diff = P - dy; 
11E0:  MOVF   xC8,W
11E2:  SUBWF  xCE,W
11E4:  MOVWF  xD0
11E6:  MOVF   xC9,W
11E8:  SUBWFB xCF,W
11EA:  MOVWF  xD1
....................  
....................       for(; i<=dy; ++i) 
11EC:  MOVF   xC9,F
11EE:  BNZ   11F6
11F0:  MOVF   xD2,W
11F2:  SUBWF  xC8,W
11F4:  BNC   1234
....................       { 
....................          glcd_pixel(x1, y1, color); 
11F6:  MOVFF  4C3,4D3
11FA:  MOVFF  4C4,4D4
11FE:  MOVFF  4C7,4D5
1202:  MOVLB  0
1204:  RCALL  0E3C
....................  
....................          if(P < 0) 
1206:  MOVLB  4
1208:  BTFSS  xCF.7
120A:  BRA    121C
....................          { 
....................             P  += dx; 
120C:  MOVF   xCA,W
120E:  ADDWF  xCE,F
1210:  MOVF   xCB,W
1212:  ADDWFC xCF,F
....................             y1 += addy; 
1214:  MOVF   xCD,W
1216:  ADDWF  xC4,W
1218:  MOVWF  xC4
....................          } 
121A:  BRA    1230
....................          else 
....................          { 
....................             P  += diff; 
121C:  MOVF   xD0,W
121E:  ADDWF  xCE,F
1220:  MOVF   xD1,W
1222:  ADDWFC xCF,F
....................             x1 += addx; 
1224:  MOVF   xCC,W
1226:  ADDWF  xC3,W
1228:  MOVWF  xC3
....................             y1 += addy; 
122A:  MOVF   xCD,W
122C:  ADDWF  xC4,W
122E:  MOVWF  xC4
....................          } 
1230:  INCF   xD2,F
1232:  BRA    11EC
....................       } 
....................    } 
1234:  MOVLB  0
1236:  RETURN 0
.................... } 
....................  
....................  
.................... ///////////////////////////////////////////////////////////////////////// 
.................... // Purpose:       Draw a rectangle on a graphic LCD 
.................... // Inputs:        (x1, y1) - the start coordinate 
.................... //                (x2, y2) - the end coordinate 
.................... //                fill  - YES or NO 
.................... //                color - ON or OFF 
.................... // Dependencies:  glcd_pixel(), glcd_line() 
.................... ///////////////////////////////////////////////////////////////////////// 
.................... #ifdef LARGE_LCD 
.................... void glcd_rect(unsigned int16 x1, unsigned int16 y1, unsigned int16 x2, unsigned int16 y2, int1 fill, int1 color) 
.................... #else 
.................... void glcd_rect(unsigned int8 x1, unsigned int8 y1, unsigned int8 x2, unsigned int8 y2, int1 fill, int1 color) 
.................... #endif 
.................... { 
....................    if(fill) 
....................    { 
....................       #ifdef LARGE_LCD 
....................       unsigned int16 i, xmin, xmax, ymin, ymax; 
....................       #else 
....................       unsigned int8  i, xmin, xmax, ymin, ymax; 
....................       #endif 
....................  
....................       if(x1 < x2)                            //  Find x min and max 
....................       { 
....................          xmin = x1; 
....................          xmax = x2; 
....................       } 
....................       else 
....................       { 
....................          xmin = x2; 
....................          xmax = x1; 
....................       } 
....................  
....................       if(y1 < y2)                            // Find the y min and max 
....................       { 
....................          ymin = y1; 
....................          ymax = y2; 
....................       } 
....................       else 
....................       { 
....................          ymin = y2; 
....................          ymax = y1; 
....................       } 
....................  
....................       for(; xmin <= xmax; ++xmin) 
....................       { 
....................          for(i=ymin; i<=ymax; ++i) 
....................          { 
....................             glcd_pixel(xmin, i, color); 
....................          } 
....................       } 
....................    } 
....................    else 
....................    { 
....................       glcd_line(x1, y1, x2, y1, color);      // Draw the 4 sides 
....................       glcd_line(x1, y2, x2, y2, color); 
....................       glcd_line(x1, y1, x1, y2, color); 
....................       glcd_line(x2, y1, x2, y2, color); 
....................    } 
.................... } 
....................  
.................... ///////////////////////////////////////////////////////////////////////// 
.................... // Purpose:       Draw a bar (wide line) on a graphic LCD 
.................... // Inputs:        (x1, y1) - the start coordinate 
.................... //                (x2, y2) - the end coordinate 
.................... //                width  - The number of pixels wide 
.................... //                color - ON or OFF 
.................... ///////////////////////////////////////////////////////////////////////// 
.................... #ifdef LARGE_LCD 
.................... void glcd_bar(unsigned int16 x1, unsigned int16 y1, unsigned int16 x2, unsigned int16 y2, unsigned int8 width, int1 color) 
.................... #else 
.................... void glcd_bar(unsigned int8 x1, unsigned int8 y1, unsigned int8 x2, unsigned int8 y2, unsigned int8 width, int1 color) 
.................... #endif 
.................... { 
....................    unsigned int8         half_width; 
....................    signed int16 dy, dx; 
....................    signed int8  addx=1, addy=1, j; 
....................    signed int16 P, diff, c1, c2; 
....................  
....................    #ifdef LARGE_LCD 
....................    unsigned int16 i=0; 
....................    dx = abs((signed int16)(x2 - x1)); 
....................    dy = abs((signed int16)(y2 - y1)); 
....................    #else 
....................    unsigned int8 i=0; 
....................    dx = abs((signed int8)(x2 - x1)); 
....................    dy = abs((signed int8)(y2 - y1)); 
....................    #endif 
....................  
....................    half_width = width/2; 
....................    c1 = -(dx*x1 + dy*y1); 
....................    c2 = -(dx*x2 + dy*y2); 
....................  
....................    if(x1 > x2) 
....................    { 
....................       signed int16 temp; 
....................       temp = c1; 
....................       c1 = c2; 
....................       c2 = temp; 
....................       addx = -1; 
....................    } 
....................    if(y1 > y2) 
....................    { 
....................       signed int16 temp; 
....................       temp = c1; 
....................       c1 = c2; 
....................       c2 = temp; 
....................       addy = -1; 
....................    } 
....................  
....................    if(dx >= dy) 
....................    { 
....................       P = 2*dy - dx; 
....................       diff = P - dx; 
....................  
....................       for(i=0; i<=dx; ++i) 
....................       { 
....................          for(j=-half_width; j<half_width+width%2; ++j) 
....................          { 
....................                glcd_pixel(x1, y1+j, color); 
....................          } 
....................          if(P < 0) 
....................          { 
....................             P  += 2*dy; 
....................             x1 += addx; 
....................          } 
....................          else 
....................          { 
....................             P  += diff; 
....................             x1 += addx; 
....................             y1 += addy; 
....................          } 
....................       } 
....................    } 
....................    else 
....................    { 
....................       P = 2*dx - dy; 
....................       diff = P - dy; 
....................  
....................       for(i=0; i<=dy; ++i) 
....................       { 
....................          if(P < 0) 
....................          { 
....................             P  += 2*dx; 
....................             y1 += addy; 
....................          } 
....................          else 
....................          { 
....................             P  += diff; 
....................             x1 += addx; 
....................             y1 += addy; 
....................          } 
....................          for(j=-half_width; j<half_width+width%2; ++j) 
....................          { 
....................                glcd_pixel(x1+j, y1, color); 
....................          } 
....................       } 
....................    } 
.................... } 
....................  
....................  
.................... ///////////////////////////////////////////////////////////////////////// 
.................... // Purpose:       Draw a circle on a graphic LCD 
.................... // Inputs:        (x,y) - the center of the circle 
.................... //                radius - the radius of the circle 
.................... //                fill - YES or NO 
.................... //                color - ON or OFF 
.................... ///////////////////////////////////////////////////////////////////////// 
.................... #ifdef LARGE_LCD 
.................... void glcd_circle(unsigned int16 x, unsigned int16 y, unsigned int16 radius, int1 fill, int1 color) 
.................... #else 
.................... void glcd_circle(unsigned int8 x, unsigned int8 y, unsigned int8 radius, int1 fill, int1 color) 
.................... #endif 
.................... { 
....................    #ifdef LARGE_LCD 
....................    signed int16 a, b, P; 
....................    #else 
....................    signed int8  a, b, P; 
....................    #endif 
....................  
....................    a = 0; 
*
1286:  MOVLB  4
1288:  CLRF   xBC
....................    b = radius; 
128A:  MOVFF  4B9,4BD
....................    P = 1 - radius; 
128E:  MOVLW  01
1290:  BSF    FD8.0
1292:  SUBFWB xB9,W
1294:  MOVWF  xBE
....................  
....................    do 
....................    { 
....................       if(fill) 
1296:  MOVF   xBA,F
1298:  BZ    135C
....................       { 
....................          glcd_line(x-a, y+b, x+a, y+b, color); 
129A:  MOVF   xBC,W
129C:  SUBWF  xB7,W
129E:  MOVWF  xBF
12A0:  MOVF   xBD,W
12A2:  ADDWF  xB8,W
12A4:  MOVWF  xC0
12A6:  MOVF   xBC,W
12A8:  ADDWF  xB7,W
12AA:  MOVWF  xC1
12AC:  MOVF   xBD,W
12AE:  ADDWF  xB8,W
12B0:  MOVWF  xC2
12B2:  MOVFF  4BF,4C3
12B6:  MOVFF  4C0,4C4
12BA:  MOVFF  4C1,4C5
12BE:  MOVWF  xC6
12C0:  MOVFF  4BB,4C7
12C4:  MOVLB  0
12C6:  RCALL  1102
....................          glcd_line(x-a, y-b, x+a, y-b, color); 
12C8:  MOVLB  4
12CA:  MOVF   xBC,W
12CC:  SUBWF  xB7,W
12CE:  MOVWF  xBF
12D0:  MOVF   xBD,W
12D2:  SUBWF  xB8,W
12D4:  MOVWF  xC0
12D6:  MOVF   xBC,W
12D8:  ADDWF  xB7,W
12DA:  MOVWF  xC1
12DC:  MOVF   xBD,W
12DE:  SUBWF  xB8,W
12E0:  MOVWF  xC2
12E2:  MOVFF  4BF,4C3
12E6:  MOVFF  4C0,4C4
12EA:  MOVFF  4C1,4C5
12EE:  MOVWF  xC6
12F0:  MOVFF  4BB,4C7
12F4:  MOVLB  0
12F6:  RCALL  1102
....................          glcd_line(x-b, y+a, x+b, y+a, color); 
12F8:  MOVLB  4
12FA:  MOVF   xBD,W
12FC:  SUBWF  xB7,W
12FE:  MOVWF  xBF
1300:  MOVF   xBC,W
1302:  ADDWF  xB8,W
1304:  MOVWF  xC0
1306:  MOVF   xBD,W
1308:  ADDWF  xB7,W
130A:  MOVWF  xC1
130C:  MOVF   xBC,W
130E:  ADDWF  xB8,W
1310:  MOVWF  xC2
1312:  MOVFF  4BF,4C3
1316:  MOVFF  4C0,4C4
131A:  MOVFF  4C1,4C5
131E:  MOVWF  xC6
1320:  MOVFF  4BB,4C7
1324:  MOVLB  0
1326:  RCALL  1102
....................          glcd_line(x-b, y-a, x+b, y-a, color); 
1328:  MOVLB  4
132A:  MOVF   xBD,W
132C:  SUBWF  xB7,W
132E:  MOVWF  xBF
1330:  MOVF   xBC,W
1332:  SUBWF  xB8,W
1334:  MOVWF  xC0
1336:  MOVF   xBD,W
1338:  ADDWF  xB7,W
133A:  MOVWF  xC1
133C:  MOVF   xBC,W
133E:  SUBWF  xB8,W
1340:  MOVWF  xC2
1342:  MOVFF  4BF,4C3
1346:  MOVFF  4C0,4C4
134A:  MOVFF  4C1,4C5
134E:  MOVWF  xC6
1350:  MOVFF  4BB,4C7
1354:  MOVLB  0
1356:  RCALL  1102
....................       } 
1358:  BRA    143A
135A:  MOVLB  4
....................       else 
....................       { 
....................          glcd_pixel(a+x, b+y, color); 
135C:  MOVF   xB7,W
135E:  ADDWF  xBC,W
1360:  MOVWF  xBF
1362:  MOVF   xB8,W
1364:  ADDWF  xBD,W
1366:  MOVWF  xC0
1368:  MOVFF  4BF,4D3
136C:  MOVWF  xD4
136E:  MOVFF  4BB,4D5
1372:  MOVLB  0
1374:  RCALL  0E3C
....................          glcd_pixel(b+x, a+y, color); 
1376:  MOVLB  4
1378:  MOVF   xB7,W
137A:  ADDWF  xBD,W
137C:  MOVWF  xBF
137E:  MOVF   xB8,W
1380:  ADDWF  xBC,W
1382:  MOVWF  xC0
1384:  MOVFF  4BF,4D3
1388:  MOVWF  xD4
138A:  MOVFF  4BB,4D5
138E:  MOVLB  0
1390:  RCALL  0E3C
....................          glcd_pixel(x-a, b+y, color); 
1392:  MOVLB  4
1394:  MOVF   xBC,W
1396:  SUBWF  xB7,W
1398:  MOVWF  xBF
139A:  MOVF   xB8,W
139C:  ADDWF  xBD,W
139E:  MOVWF  xC0
13A0:  MOVFF  4BF,4D3
13A4:  MOVWF  xD4
13A6:  MOVFF  4BB,4D5
13AA:  MOVLB  0
13AC:  RCALL  0E3C
....................          glcd_pixel(x-b, a+y, color); 
13AE:  MOVLB  4
13B0:  MOVF   xBD,W
13B2:  SUBWF  xB7,W
13B4:  MOVWF  xBF
13B6:  MOVF   xB8,W
13B8:  ADDWF  xBC,W
13BA:  MOVWF  xC0
13BC:  MOVFF  4BF,4D3
13C0:  MOVWF  xD4
13C2:  MOVFF  4BB,4D5
13C6:  MOVLB  0
13C8:  RCALL  0E3C
....................          glcd_pixel(b+x, y-a, color); 
13CA:  MOVLB  4
13CC:  MOVF   xB7,W
13CE:  ADDWF  xBD,W
13D0:  MOVWF  xBF
13D2:  MOVF   xBC,W
13D4:  SUBWF  xB8,W
13D6:  MOVWF  xC0
13D8:  MOVFF  4BF,4D3
13DC:  MOVWF  xD4
13DE:  MOVFF  4BB,4D5
13E2:  MOVLB  0
13E4:  RCALL  0E3C
....................          glcd_pixel(a+x, y-b, color); 
13E6:  MOVLB  4
13E8:  MOVF   xB7,W
13EA:  ADDWF  xBC,W
13EC:  MOVWF  xBF
13EE:  MOVF   xBD,W
13F0:  SUBWF  xB8,W
13F2:  MOVWF  xC0
13F4:  MOVFF  4BF,4D3
13F8:  MOVWF  xD4
13FA:  MOVFF  4BB,4D5
13FE:  MOVLB  0
1400:  RCALL  0E3C
....................          glcd_pixel(x-a, y-b, color); 
1402:  MOVLB  4
1404:  MOVF   xBC,W
1406:  SUBWF  xB7,W
1408:  MOVWF  xBF
140A:  MOVF   xBD,W
140C:  SUBWF  xB8,W
140E:  MOVWF  xC0
1410:  MOVFF  4BF,4D3
1414:  MOVWF  xD4
1416:  MOVFF  4BB,4D5
141A:  MOVLB  0
141C:  RCALL  0E3C
....................          glcd_pixel(x-b, y-a, color); 
141E:  MOVLB  4
1420:  MOVF   xBD,W
1422:  SUBWF  xB7,W
1424:  MOVWF  xBF
1426:  MOVF   xBC,W
1428:  SUBWF  xB8,W
142A:  MOVWF  xC0
142C:  MOVFF  4BF,4D3
1430:  MOVWF  xD4
1432:  MOVFF  4BB,4D5
1436:  MOVLB  0
1438:  RCALL  0E3C
....................       } 
....................  
....................       if(P < 0) 
143A:  MOVLB  4
143C:  BTFSS  xBE.7
143E:  BRA    145C
....................          P += 3 + 2 * a++; 
1440:  MOVF   xBC,W
1442:  INCF   xBC,F
1444:  MOVWF  xBF
1446:  MOVLW  02
1448:  MOVWF  xC0
144A:  MOVFF  4BF,4C1
144E:  MOVLB  0
1450:  RCALL  1238
1452:  MOVF   01,W
1454:  ADDLW  03
1456:  MOVLB  4
1458:  ADDWF  xBE,F
145A:  BRA    147E
....................       else 
....................          P += 5 + 2 * (a++ - b--); 
145C:  MOVF   xBC,W
145E:  INCF   xBC,F
1460:  MOVWF  xBF
1462:  MOVF   xBD,W
1464:  DECF   xBD,F
1466:  SUBWF  xBF,W
1468:  MOVWF  xBF
146A:  MOVLW  02
146C:  MOVWF  xC0
146E:  MOVFF  4BF,4C1
1472:  MOVLB  0
1474:  RCALL  1238
1476:  MOVF   01,W
1478:  ADDLW  05
147A:  MOVLB  4
147C:  ADDWF  xBE,F
....................     } while(a <= b); 
147E:  MOVF   xBC,W
1480:  XORLW  80
1482:  MOVWF  00
1484:  MOVF   xBD,W
1486:  XORLW  80
1488:  SUBWF  00,W
148A:  BTFSC  FD8.2
148C:  BRA    1296
148E:  BTFSS  FD8.0
1490:  BRA    1296
1492:  MOVLB  0
1494:  RETURN 0
.................... } 
....................  
....................  
.................... ///////////////////////////////////////////////////////////////////////// 
.................... // Purpose:       Write text on a graphic LCD 
.................... // Inputs:        (x,y) - The upper left coordinate of the first letter 
.................... //                textptr - A pointer to an array of text to display 
.................... //                size - The size of the text: 1 = 5x7, 2 = 10x14, ... 
.................... //                color - ON or OFF 
.................... ///////////////////////////////////////////////////////////////////////// 
.................... #ifdef LARGE_LCD 
.................... void glcd_text57(unsigned int16 x, unsigned int16 y, char* textptr, unsigned int8 size, int1 color) 
.................... #else 
.................... void glcd_text57(unsigned int8 x, unsigned int8 y, char* textptr, unsigned int8 size, int1 color) 
.................... #endif 
.................... { 
....................    unsigned int8 j, k, l, m;                       // Loop counters 
....................    unsigned int8 pixelData[5];                     // Stores character data 
....................  
....................    for(; *textptr != '\0'; ++textptr, ++x)// Loop through the passed string 
*
0F48:  MOVFF  4BA,03
0F4C:  MOVLB  4
0F4E:  MOVFF  4B9,FE9
0F52:  MOVFF  4BA,FEA
0F56:  MOVF   FEF,F
0F58:  BTFSC  FD8.2
0F5A:  BRA    10FE
....................    { 
....................       if(*textptr < 'S') // Checks if the letter is in the first font array 
0F5C:  MOVFF  4BA,03
0F60:  MOVFF  4B9,FE9
0F64:  MOVFF  4BA,FEA
0F68:  MOVF   FEF,W
0F6A:  SUBLW  52
0F6C:  BNC   0FBC
....................          memcpy(pixelData, FONT[*textptr - ' '], 5); 
0F6E:  MOVFF  4BA,03
0F72:  MOVFF  4B9,FE9
0F76:  MOVFF  4BA,FEA
0F7A:  MOVLW  20
0F7C:  SUBWF  FEF,W
0F7E:  MULLW  05
0F80:  MOVF   FF3,W
0F82:  CLRF   03
0F84:  MOVWF  xC6
0F86:  MOVLW  04
0F88:  MOVWF  FEA
0F8A:  MOVLW  C1
0F8C:  MOVWF  FE9
0F8E:  CLRF   xCA
0F90:  MOVFF  4C6,4C9
0F94:  MOVFF  FF2,4C7
0F98:  BCF    FF2.7
0F9A:  MOVLW  05
0F9C:  MOVWF  01
0F9E:  CLRF   FF7
0FA0:  MOVF   xC6,W
0FA2:  MOVLB  0
0FA4:  CALL   00D4
0FA8:  TBLRD*-
0FAA:  TBLRD*+
0FAC:  MOVFF  FF5,FEE
0FB0:  DECFSZ 01,F
0FB2:  BRA    0FAA
0FB4:  MOVLB  4
0FB6:  BTFSC  xC7.7
0FB8:  BSF    FF2.7
0FBA:  BRA    1026
....................       else if(*textptr <= '~') // Check if the letter is in the second font array 
0FBC:  MOVFF  4BA,03
0FC0:  MOVFF  4B9,FE9
0FC4:  MOVFF  4BA,FEA
0FC8:  MOVF   FEF,W
0FCA:  SUBLW  7E
0FCC:  BNC   101C
....................          memcpy(pixelData, FONT2[*textptr - 'S'], 5); 
0FCE:  MOVFF  4BA,03
0FD2:  MOVFF  4B9,FE9
0FD6:  MOVFF  4BA,FEA
0FDA:  MOVLW  53
0FDC:  SUBWF  FEF,W
0FDE:  MULLW  05
0FE0:  MOVF   FF3,W
0FE2:  CLRF   03
0FE4:  MOVWF  xC6
0FE6:  MOVLW  04
0FE8:  MOVWF  FEA
0FEA:  MOVLW  C1
0FEC:  MOVWF  FE9
0FEE:  CLRF   xCA
0FF0:  MOVFF  4C6,4C9
0FF4:  MOVFF  FF2,4C7
0FF8:  BCF    FF2.7
0FFA:  MOVLW  05
0FFC:  MOVWF  01
0FFE:  CLRF   FF7
1000:  MOVF   xC6,W
1002:  MOVLB  0
1004:  CALL   01E4
1008:  TBLRD*-
100A:  TBLRD*+
100C:  MOVFF  FF5,FEE
1010:  DECFSZ 01,F
1012:  BRA    100A
1014:  MOVLB  4
1016:  BTFSC  xC7.7
1018:  BSF    FF2.7
101A:  BRA    1026
....................       else 
....................          memcpy(pixelData, FONT[0], 5);   // Default to space 
101C:  CLRF   xC1
101E:  CLRF   xC2
1020:  CLRF   xC3
1022:  CLRF   xC4
1024:  CLRF   xC5
....................  
....................       // Handles newline and carriage returns 
....................       switch(*textptr) 
1026:  MOVFF  4BA,03
102A:  MOVF   xB9,W
102C:  MOVWF  FE9
102E:  MOVFF  03,FEA
1032:  MOVF   FEF,W
1034:  XORLW  0A
1036:  MOVLB  0
1038:  BZ    1040
103A:  XORLW  07
103C:  BZ    1050
103E:  BRA    1058
....................       { 
....................          case '\n': 
....................             y += 7*size + 1; 
1040:  MOVLB  4
1042:  MOVF   xBB,W
1044:  MULLW  07
1046:  MOVF   FF3,W
1048:  ADDLW  01
104A:  ADDWF  xB8,F
....................             continue; 
104C:  BRA    10F0
104E:  MOVLB  0
....................          case '\r': 
....................             x = 0; 
1050:  MOVLB  4
1052:  CLRF   xB7
....................             continue; 
1054:  BRA    10F0
1056:  MOVLB  0
....................       } 
....................  
....................       if(x+5*size >= GLCD_WIDTH)          // Performs character wrapping 
1058:  MOVLB  4
105A:  MOVF   xBB,W
105C:  MULLW  05
105E:  MOVF   FF3,W
1060:  ADDWF  xB7,W
1062:  SUBLW  7F
1064:  BC    1072
....................       { 
....................          x = 0;                           // Set x at far left position 
1066:  CLRF   xB7
....................          y += 7*size + 1;                 // Set y at next position down 
1068:  MOVF   xBB,W
106A:  MULLW  07
106C:  MOVF   FF3,W
106E:  ADDLW  01
1070:  ADDWF  xB8,F
....................       } 
....................       for(j=0; j<5; ++j, x+=size)         // Loop through character byte data 
1072:  CLRF   xBD
1074:  MOVF   xBD,W
1076:  SUBLW  04
1078:  BNC   10F0
....................       { 
....................          for(k=0; k < 7; ++k)             // Loop through the vertical pixels 
107A:  CLRF   xBE
107C:  MOVF   xBE,W
107E:  SUBLW  06
1080:  BNC   10E8
....................          { 
....................             if(bit_test(pixelData[j], k)) // Check if the pixel should be set 
1082:  CLRF   03
1084:  MOVF   xBD,W
1086:  ADDLW  C1
1088:  MOVWF  FE9
108A:  MOVLW  04
108C:  ADDWFC 03,W
108E:  MOVWF  FEA
1090:  MOVFF  FEF,4C6
1094:  MOVFF  4C6,00
1098:  MOVF   xBE,W
109A:  MOVWF  01
109C:  BZ    10A6
109E:  BCF    FD8.0
10A0:  RRCF   00,F
10A2:  DECFSZ 01,F
10A4:  BRA    109E
10A6:  BTFSS  00.0
10A8:  BRA    10E4
....................             { 
....................                for(l=0; l < size; ++l)    // These two loops change the 
10AA:  CLRF   xBF
10AC:  MOVF   xBB,W
10AE:  SUBWF  xBF,W
10B0:  BC    10E4
....................                {                          // character's size 
....................                   for(m=0; m < size; ++m) 
10B2:  CLRF   xC0
10B4:  MOVF   xBB,W
10B6:  SUBWF  xC0,W
10B8:  BC    10E0
....................                   { 
....................                      glcd_pixel(x+m, y+k*size+l, color); // Draws the pixel 
10BA:  MOVF   xC0,W
10BC:  ADDWF  xB7,W
10BE:  MOVWF  xC6
10C0:  MOVF   xBE,W
10C2:  MULWF  xBB
10C4:  MOVF   FF3,W
10C6:  ADDWF  xB8,W
10C8:  ADDWF  xBF,W
10CA:  MOVWF  xC7
10CC:  MOVFF  4C6,4D3
10D0:  MOVWF  xD4
10D2:  MOVFF  4BC,4D5
10D6:  MOVLB  0
10D8:  RCALL  0E3C
10DA:  MOVLB  4
10DC:  INCF   xC0,F
10DE:  BRA    10B4
....................                   } 
10E0:  INCF   xBF,F
10E2:  BRA    10AC
....................                } 
....................             } 
10E4:  INCF   xBE,F
10E6:  BRA    107C
....................          } 
10E8:  INCF   xBD,F
10EA:  MOVF   xBB,W
10EC:  ADDWF  xB7,F
10EE:  BRA    1074
....................       } 
10F0:  INCF   xB9,F
10F2:  BTFSC  FD8.2
10F4:  INCF   xBA,F
10F6:  INCF   xB7,F
10F8:  MOVLB  0
10FA:  BRA    0F48
10FC:  MOVLB  4
....................    } 
10FE:  MOVLB  0
1100:  RETURN 0
.................... } 
....................  
.................... #endif 
....................  
.................... #include <bai_633_glcd_kim_gio_phut_giay_tv.c> 
.................... #define xt 96 
.................... #define yt 32 
.................... #define bks 20 
.................... #define bkm 17 
.................... #define bkh 13 
....................  
.................... signed int16 xm_ve, ym_ve, tgm45; 
.................... float xm_tinh, ym_tinh,goc_m; 
....................  
.................... signed int16 xs_ve,ys_ve,tgs45; 
.................... float xs_tinh,ys_tinh,goc_s; 
....................  
.................... signed int16 xh_ve,yh_ve,tgh9; 
.................... float xh_tinh,yh_tinh,goc_h; 
....................  
.................... void glcd_ve_cac_vong_tron_so() 
.................... { 
....................     unsigned char glcd_text1[]={"Clock: UTE"}, glcd_12[]="12"; 
*
1496:  MOVLW  43
1498:  MOVLB  4
149A:  MOVWF  xA3
149C:  MOVLW  6C
149E:  MOVWF  xA4
14A0:  MOVLW  6F
14A2:  MOVWF  xA5
14A4:  MOVLW  63
14A6:  MOVWF  xA6
14A8:  MOVLW  6B
14AA:  MOVWF  xA7
14AC:  MOVLW  3A
14AE:  MOVWF  xA8
14B0:  MOVLW  20
14B2:  MOVWF  xA9
14B4:  MOVLW  55
14B6:  MOVWF  xAA
14B8:  MOVLW  54
14BA:  MOVWF  xAB
14BC:  MOVLW  45
14BE:  MOVWF  xAC
14C0:  CLRF   xAD
14C2:  MOVLW  31
14C4:  MOVWF  xAE
14C6:  MOVLW  32
14C8:  MOVWF  xAF
14CA:  CLRF   xB0
....................     unsigned char glcd_3[]="3",glcd_6[]="6",glcd_9[]="9"; 
14CC:  MOVLW  33
14CE:  MOVWF  xB1
14D0:  CLRF   xB2
14D2:  MOVLW  36
14D4:  MOVWF  xB3
14D6:  CLRF   xB4
14D8:  MOVLW  39
14DA:  MOVWF  xB5
14DC:  CLRF   xB6
....................     
....................     setup_glcd(glcd_graphic_mode); 
14DE:  MOVLW  36
14E0:  MOVWF  xB7
14E2:  MOVLB  0
14E4:  CALL   0AE4
....................     glcd_mau_nen(0) ; 
14E8:  MOVLB  4
14EA:  CLRF   xB7
14EC:  MOVLB  0
14EE:  CALL   0B5E
....................     glcd_text57(0,0,glcd_text1, 1, 1); 
14F2:  MOVLB  4
14F4:  CLRF   xB7
14F6:  CLRF   xB8
14F8:  MOVLW  04
14FA:  MOVWF  xBA
14FC:  MOVLW  A3
14FE:  MOVWF  xB9
1500:  MOVLW  01
1502:  MOVWF  xBB
1504:  MOVWF  xBC
1506:  MOVLB  0
1508:  RCALL  0F48
....................      
....................     glcd_text57(xt-5,yt-29,glcd_12, 1,1); 
150A:  MOVLW  5B
150C:  MOVLB  4
150E:  MOVWF  xB7
1510:  MOVLW  03
1512:  MOVWF  xB8
1514:  MOVLW  04
1516:  MOVWF  xBA
1518:  MOVLW  AE
151A:  MOVWF  xB9
151C:  MOVLW  01
151E:  MOVWF  xBB
1520:  MOVWF  xBC
1522:  MOVLB  0
1524:  RCALL  0F48
....................     glcd_text57(xt-3,yt+23,glcd_6, 1,1); 
1526:  MOVLW  5D
1528:  MOVLB  4
152A:  MOVWF  xB7
152C:  MOVLW  37
152E:  MOVWF  xB8
1530:  MOVLW  04
1532:  MOVWF  xBA
1534:  MOVLW  B3
1536:  MOVWF  xB9
1538:  MOVLW  01
153A:  MOVWF  xBB
153C:  MOVWF  xBC
153E:  MOVLB  0
1540:  RCALL  0F48
....................     glcd_text57(xt-28,yt-3,glcd_9, 1,1); 
1542:  MOVLW  44
1544:  MOVLB  4
1546:  MOVWF  xB7
1548:  MOVLW  1D
154A:  MOVWF  xB8
154C:  MOVLW  04
154E:  MOVWF  xBA
1550:  MOVLW  B5
1552:  MOVWF  xB9
1554:  MOVLW  01
1556:  MOVWF  xBB
1558:  MOVWF  xBC
155A:  MOVLB  0
155C:  RCALL  0F48
....................     glcd_text57(xt+24,yt-3,glcd_3, 1,1); 
155E:  MOVLW  78
1560:  MOVLB  4
1562:  MOVWF  xB7
1564:  MOVLW  1D
1566:  MOVWF  xB8
1568:  MOVLW  04
156A:  MOVWF  xBA
156C:  MOVLW  B1
156E:  MOVWF  xB9
1570:  MOVLW  01
1572:  MOVWF  xBB
1574:  MOVWF  xBC
1576:  MOVLB  0
1578:  RCALL  0F48
....................      
....................     glcd_circle(xt,yt,bks+11,no_fill,sang); 
157A:  MOVLW  60
157C:  MOVLB  4
157E:  MOVWF  xB7
1580:  MOVLW  20
1582:  MOVWF  xB8
1584:  MOVLW  1F
1586:  MOVWF  xB9
1588:  CLRF   xBA
158A:  MOVLW  01
158C:  MOVWF  xBB
158E:  MOVLB  0
1590:  RCALL  1286
....................     glcd_circle(xt,yt,bks+2,no_fill,sang); 
1592:  MOVLW  60
1594:  MOVLB  4
1596:  MOVWF  xB7
1598:  MOVLW  20
159A:  MOVWF  xB8
159C:  MOVLW  16
159E:  MOVWF  xB9
15A0:  CLRF   xBA
15A2:  MOVLW  01
15A4:  MOVWF  xBB
15A6:  MOVLB  0
15A8:  RCALL  1286
....................      
....................     glcd_circle(xt+12,yt-23,+2,co_fill,sang); 
15AA:  MOVLW  6C
15AC:  MOVLB  4
15AE:  MOVWF  xB7
15B0:  MOVLW  09
15B2:  MOVWF  xB8
15B4:  MOVLW  02
15B6:  MOVWF  xB9
15B8:  MOVLW  01
15BA:  MOVWF  xBA
15BC:  MOVWF  xBB
15BE:  MOVLB  0
15C0:  RCALL  1286
....................     glcd_circle(xt+23,yt-12,+2,co_fill,sang); 
15C2:  MOVLW  77
15C4:  MOVLB  4
15C6:  MOVWF  xB7
15C8:  MOVLW  14
15CA:  MOVWF  xB8
15CC:  MOVLW  02
15CE:  MOVWF  xB9
15D0:  MOVLW  01
15D2:  MOVWF  xBA
15D4:  MOVWF  xBB
15D6:  MOVLB  0
15D8:  RCALL  1286
....................     glcd_circle(xt+12,yt+23,+2,co_fill,sang); 
15DA:  MOVLW  6C
15DC:  MOVLB  4
15DE:  MOVWF  xB7
15E0:  MOVLW  37
15E2:  MOVWF  xB8
15E4:  MOVLW  02
15E6:  MOVWF  xB9
15E8:  MOVLW  01
15EA:  MOVWF  xBA
15EC:  MOVWF  xBB
15EE:  MOVLB  0
15F0:  RCALL  1286
....................     glcd_circle(xt+23,yt+12,+2,co_fill,sang); 
15F2:  MOVLW  77
15F4:  MOVLB  4
15F6:  MOVWF  xB7
15F8:  MOVLW  2C
15FA:  MOVWF  xB8
15FC:  MOVLW  02
15FE:  MOVWF  xB9
1600:  MOVLW  01
1602:  MOVWF  xBA
1604:  MOVWF  xBB
1606:  MOVLB  0
1608:  RCALL  1286
....................     glcd_circle(xt-12,yt-23,+2,co_fill,sang); 
160A:  MOVLW  54
160C:  MOVLB  4
160E:  MOVWF  xB7
1610:  MOVLW  09
1612:  MOVWF  xB8
1614:  MOVLW  02
1616:  MOVWF  xB9
1618:  MOVLW  01
161A:  MOVWF  xBA
161C:  MOVWF  xBB
161E:  MOVLB  0
1620:  RCALL  1286
....................     glcd_circle(xt-23,yt-12,+2,co_fill,sang); 
1622:  MOVLW  49
1624:  MOVLB  4
1626:  MOVWF  xB7
1628:  MOVLW  14
162A:  MOVWF  xB8
162C:  MOVLW  02
162E:  MOVWF  xB9
1630:  MOVLW  01
1632:  MOVWF  xBA
1634:  MOVWF  xBB
1636:  MOVLB  0
1638:  RCALL  1286
....................     glcd_circle(xt-12,yt+23,+2,co_fill,sang); 
163A:  MOVLW  54
163C:  MOVLB  4
163E:  MOVWF  xB7
1640:  MOVLW  37
1642:  MOVWF  xB8
1644:  MOVLW  02
1646:  MOVWF  xB9
1648:  MOVLW  01
164A:  MOVWF  xBA
164C:  MOVWF  xBB
164E:  MOVLB  0
1650:  RCALL  1286
....................     glcd_circle(xt-23,yt+12,+2,co_fill,sang);   
1652:  MOVLW  49
1654:  MOVLB  4
1656:  MOVWF  xB7
1658:  MOVLW  2C
165A:  MOVWF  xB8
165C:  MOVLW  02
165E:  MOVWF  xB9
1660:  MOVLW  01
1662:  MOVWF  xBA
1664:  MOVWF  xBB
1666:  MOVLB  0
1668:  RCALL  1286
166A:  GOTO   34FE (RETURN)
.................... } 
.................... void tinh_vi_tri_kim_gio(usi8 bk, usi16 tg) 
.................... { 
....................    tgh9 = tg+9; 
*
263A:  MOVLW  09
263C:  MOVLB  4
263E:  ADDWF  xA8,W
2640:  MOVWF  01
2642:  MOVLW  00
2644:  ADDWFC xA9,W
2646:  MOVFF  01,47C
264A:  MOVWF  x7D
....................    if(tgh9>12)  tgh9=tgh9-12; 
264C:  BTFSC  x7D.7
264E:  BRA    2662
2650:  MOVF   x7D,F
2652:  BNZ   265A
2654:  MOVF   x7C,W
2656:  SUBLW  0C
2658:  BC    2662
265A:  MOVLW  0C
265C:  SUBWF  x7C,F
265E:  MOVLW  00
2660:  SUBWFB x7D,F
....................    goc_h = tgh9*30; 
2662:  MOVFF  47D,4AB
2666:  MOVFF  47C,4AA
266A:  CLRF   xAD
266C:  MOVLW  1E
266E:  MOVWF  xAC
2670:  MOVLB  0
2672:  CALL   166E
2676:  MOVFF  02,4AB
267A:  MOVFF  01,4AA
267E:  MOVLB  0
2680:  CALL   16C2
2684:  MOVFF  03,489
2688:  MOVFF  02,488
268C:  MOVFF  01,487
2690:  MOVFF  00,486
....................    xh_tinh = bk*cos((goc_h*3.14)/180); 
2694:  MOVFF  489,4E7
2698:  MOVFF  488,4E6
269C:  MOVFF  487,4E5
26A0:  MOVFF  486,4E4
26A4:  MOVLW  C3
26A6:  MOVLB  4
26A8:  MOVWF  xEB
26AA:  MOVLW  F5
26AC:  MOVWF  xEA
26AE:  MOVLW  48
26B0:  MOVWF  xE9
26B2:  MOVLW  80
26B4:  MOVWF  xE8
26B6:  MOVLB  0
26B8:  CALL   1712
26BC:  MOVFF  03,4AD
26C0:  MOVFF  02,4AC
26C4:  MOVFF  01,4AB
26C8:  MOVFF  00,4AA
26CC:  MOVFF  03,4B2
26D0:  MOVFF  02,4B1
26D4:  MOVFF  01,4B0
26D8:  MOVFF  00,4AF
26DC:  MOVLB  4
26DE:  CLRF   xB6
26E0:  CLRF   xB5
26E2:  MOVLW  34
26E4:  MOVWF  xB4
26E6:  MOVLW  86
26E8:  MOVWF  xB3
26EA:  MOVLB  0
26EC:  CALL   1808
26F0:  MOVFF  03,4AD
26F4:  MOVFF  02,4AC
26F8:  MOVFF  01,4AB
26FC:  MOVFF  00,4AA
2700:  MOVFF  03,4B9
2704:  MOVFF  02,4B8
2708:  MOVFF  01,4B7
270C:  MOVFF  00,4B6
2710:  CALL   1CCC
2714:  MOVFF  03,4AD
2718:  MOVFF  02,4AC
271C:  MOVFF  01,4AB
2720:  MOVFF  00,4AA
2724:  MOVLB  4
2726:  CLRF   xE5
2728:  MOVFF  4A7,4E4
272C:  MOVLB  0
272E:  CALL   1A1E
2732:  MOVFF  03,4E7
2736:  MOVFF  02,4E6
273A:  MOVFF  01,4E5
273E:  MOVFF  00,4E4
2742:  MOVFF  4AD,4EB
2746:  MOVFF  4AC,4EA
274A:  MOVFF  4AB,4E9
274E:  MOVFF  4AA,4E8
2752:  CALL   1712
2756:  MOVFF  03,481
275A:  MOVFF  02,480
275E:  MOVFF  01,47F
2762:  MOVFF  00,47E
....................    yh_tinh = bk*sin((goc_h*3.14)/180); 
2766:  MOVFF  489,4E7
276A:  MOVFF  488,4E6
276E:  MOVFF  487,4E5
2772:  MOVFF  486,4E4
2776:  MOVLW  C3
2778:  MOVLB  4
277A:  MOVWF  xEB
277C:  MOVLW  F5
277E:  MOVWF  xEA
2780:  MOVLW  48
2782:  MOVWF  xE9
2784:  MOVLW  80
2786:  MOVWF  xE8
2788:  MOVLB  0
278A:  CALL   1712
278E:  MOVFF  03,4AD
2792:  MOVFF  02,4AC
2796:  MOVFF  01,4AB
279A:  MOVFF  00,4AA
279E:  MOVFF  03,4B2
27A2:  MOVFF  02,4B1
27A6:  MOVFF  01,4B0
27AA:  MOVFF  00,4AF
27AE:  MOVLB  4
27B0:  CLRF   xB6
27B2:  CLRF   xB5
27B4:  MOVLW  34
27B6:  MOVWF  xB4
27B8:  MOVLW  86
27BA:  MOVWF  xB3
27BC:  MOVLB  0
27BE:  CALL   1808
27C2:  MOVFF  03,4AD
27C6:  MOVFF  02,4AC
27CA:  MOVFF  01,4AB
27CE:  MOVFF  00,4AA
27D2:  MOVFF  03,4B1
27D6:  MOVFF  02,4B0
27DA:  MOVFF  01,4AF
27DE:  MOVFF  00,4AE
27E2:  RCALL  2054
27E4:  MOVFF  03,4AD
27E8:  MOVFF  02,4AC
27EC:  MOVFF  01,4AB
27F0:  MOVFF  00,4AA
27F4:  MOVLB  4
27F6:  CLRF   xE5
27F8:  MOVFF  4A7,4E4
27FC:  MOVLB  0
27FE:  CALL   1A1E
2802:  MOVFF  03,4E7
2806:  MOVFF  02,4E6
280A:  MOVFF  01,4E5
280E:  MOVFF  00,4E4
2812:  MOVFF  4AD,4EB
2816:  MOVFF  4AC,4EA
281A:  MOVFF  4AB,4E9
281E:  MOVFF  4AA,4E8
2822:  CALL   1712
2826:  MOVFF  03,485
282A:  MOVFF  02,484
282E:  MOVFF  01,483
2832:  MOVFF  00,482
....................    xh_ve = xt + (signed int16)(xh_tinh); 
2836:  MOVFF  481,4E3
283A:  MOVFF  480,4E2
283E:  MOVFF  47F,4E1
2842:  MOVFF  47E,4E0
2846:  CALL   19E2
284A:  MOVF   01,W
284C:  ADDLW  60
284E:  MOVLB  4
2850:  MOVWF  x78
2852:  MOVLW  00
2854:  ADDWFC 02,W
2856:  MOVWF  x79
....................    yh_ve = yt + (signed int16)(yh_tinh); 
2858:  MOVFF  485,4E3
285C:  MOVFF  484,4E2
2860:  MOVFF  483,4E1
2864:  MOVFF  482,4E0
2868:  MOVLB  0
286A:  CALL   19E2
286E:  MOVF   01,W
2870:  ADDLW  20
2872:  MOVLB  4
2874:  MOVWF  x7A
2876:  MOVLW  00
2878:  ADDWFC 02,W
287A:  MOVWF  x7B
287C:  MOVLB  0
287E:  GOTO   28B2 (RETURN)
.................... } 
....................  
.................... void glcd_ve_kim_gio(usi8 bk,usi16 tg,int1 tt) 
.................... { 
....................    if(tt) glcd_line(xt,yt,xh_ve,yh_ve,tat);   // xoa gio 
2882:  MOVLB  4
2884:  MOVF   xA6,F
2886:  BZ    28A2
2888:  MOVLW  60
288A:  MOVWF  xC3
288C:  MOVLW  20
288E:  MOVWF  xC4
2890:  MOVFF  478,4C5
2894:  MOVFF  47A,4C6
2898:  CLRF   xC7
289A:  MOVLB  0
289C:  CALL   1102
28A0:  MOVLB  4
....................    tinh_vi_tri_kim_gio(bk,tg);                // gio moi 
28A2:  MOVFF  4A3,4A7
28A6:  MOVFF  4A5,4A9
28AA:  MOVFF  4A4,4A8
28AE:  MOVLB  0
28B0:  BRA    263A
28B2:  RETURN 0
.................... } 
....................  
.................... void tinh_vi_tri_kim_phut(usi8 bk, usi16 tg) 
.................... { 
....................    tgm45 = tg+45; 
*
23A8:  MOVLW  2D
23AA:  MOVLB  4
23AC:  ADDWF  xA8,W
23AE:  MOVWF  01
23B0:  MOVLW  00
23B2:  ADDWFC xA9,W
23B4:  MOVFF  01,458
23B8:  MOVWF  x59
....................    if(tgm45>60)  tgm45=tgm45-60; 
23BA:  BTFSC  x59.7
23BC:  BRA    23D0
23BE:  MOVF   x59,F
23C0:  BNZ   23C8
23C2:  MOVF   x58,W
23C4:  SUBLW  3C
23C6:  BC    23D0
23C8:  MOVLW  3C
23CA:  SUBWF  x58,F
23CC:  MOVLW  00
23CE:  SUBWFB x59,F
....................    goc_m = tgm45*6; 
23D0:  MOVFF  459,4AB
23D4:  MOVFF  458,4AA
23D8:  CLRF   xAD
23DA:  MOVLW  06
23DC:  MOVWF  xAC
23DE:  MOVLB  0
23E0:  CALL   166E
23E4:  MOVFF  02,4AB
23E8:  MOVFF  01,4AA
23EC:  MOVLB  0
23EE:  CALL   16C2
23F2:  MOVFF  03,465
23F6:  MOVFF  02,464
23FA:  MOVFF  01,463
23FE:  MOVFF  00,462
....................    xm_tinh = bk*cos((goc_m*3.14)/180); 
2402:  MOVFF  465,4E7
2406:  MOVFF  464,4E6
240A:  MOVFF  463,4E5
240E:  MOVFF  462,4E4
2412:  MOVLW  C3
2414:  MOVLB  4
2416:  MOVWF  xEB
2418:  MOVLW  F5
241A:  MOVWF  xEA
241C:  MOVLW  48
241E:  MOVWF  xE9
2420:  MOVLW  80
2422:  MOVWF  xE8
2424:  MOVLB  0
2426:  CALL   1712
242A:  MOVFF  03,4AD
242E:  MOVFF  02,4AC
2432:  MOVFF  01,4AB
2436:  MOVFF  00,4AA
243A:  MOVFF  03,4B2
243E:  MOVFF  02,4B1
2442:  MOVFF  01,4B0
2446:  MOVFF  00,4AF
244A:  MOVLB  4
244C:  CLRF   xB6
244E:  CLRF   xB5
2450:  MOVLW  34
2452:  MOVWF  xB4
2454:  MOVLW  86
2456:  MOVWF  xB3
2458:  MOVLB  0
245A:  CALL   1808
245E:  MOVFF  03,4AD
2462:  MOVFF  02,4AC
2466:  MOVFF  01,4AB
246A:  MOVFF  00,4AA
246E:  MOVFF  03,4B9
2472:  MOVFF  02,4B8
2476:  MOVFF  01,4B7
247A:  MOVFF  00,4B6
247E:  RCALL  1CCC
2480:  MOVFF  03,4AD
2484:  MOVFF  02,4AC
2488:  MOVFF  01,4AB
248C:  MOVFF  00,4AA
2490:  MOVLB  4
2492:  CLRF   xE5
2494:  MOVFF  4A7,4E4
2498:  MOVLB  0
249A:  CALL   1A1E
249E:  MOVFF  03,4E7
24A2:  MOVFF  02,4E6
24A6:  MOVFF  01,4E5
24AA:  MOVFF  00,4E4
24AE:  MOVFF  4AD,4EB
24B2:  MOVFF  4AC,4EA
24B6:  MOVFF  4AB,4E9
24BA:  MOVFF  4AA,4E8
24BE:  CALL   1712
24C2:  MOVFF  03,45D
24C6:  MOVFF  02,45C
24CA:  MOVFF  01,45B
24CE:  MOVFF  00,45A
....................    ym_tinh = bk*sin((goc_m*3.14)/180); 
24D2:  MOVFF  465,4E7
24D6:  MOVFF  464,4E6
24DA:  MOVFF  463,4E5
24DE:  MOVFF  462,4E4
24E2:  MOVLW  C3
24E4:  MOVLB  4
24E6:  MOVWF  xEB
24E8:  MOVLW  F5
24EA:  MOVWF  xEA
24EC:  MOVLW  48
24EE:  MOVWF  xE9
24F0:  MOVLW  80
24F2:  MOVWF  xE8
24F4:  MOVLB  0
24F6:  CALL   1712
24FA:  MOVFF  03,4AD
24FE:  MOVFF  02,4AC
2502:  MOVFF  01,4AB
2506:  MOVFF  00,4AA
250A:  MOVFF  03,4B2
250E:  MOVFF  02,4B1
2512:  MOVFF  01,4B0
2516:  MOVFF  00,4AF
251A:  MOVLB  4
251C:  CLRF   xB6
251E:  CLRF   xB5
2520:  MOVLW  34
2522:  MOVWF  xB4
2524:  MOVLW  86
2526:  MOVWF  xB3
2528:  MOVLB  0
252A:  CALL   1808
252E:  MOVFF  03,4AD
2532:  MOVFF  02,4AC
2536:  MOVFF  01,4AB
253A:  MOVFF  00,4AA
253E:  MOVFF  03,4B1
2542:  MOVFF  02,4B0
2546:  MOVFF  01,4AF
254A:  MOVFF  00,4AE
254E:  RCALL  2054
2550:  MOVFF  03,4AD
2554:  MOVFF  02,4AC
2558:  MOVFF  01,4AB
255C:  MOVFF  00,4AA
2560:  MOVLB  4
2562:  CLRF   xE5
2564:  MOVFF  4A7,4E4
2568:  MOVLB  0
256A:  CALL   1A1E
256E:  MOVFF  03,4E7
2572:  MOVFF  02,4E6
2576:  MOVFF  01,4E5
257A:  MOVFF  00,4E4
257E:  MOVFF  4AD,4EB
2582:  MOVFF  4AC,4EA
2586:  MOVFF  4AB,4E9
258A:  MOVFF  4AA,4E8
258E:  CALL   1712
2592:  MOVFF  03,461
2596:  MOVFF  02,460
259A:  MOVFF  01,45F
259E:  MOVFF  00,45E
....................    xm_ve = xt + (signed int16)(xm_tinh); 
25A2:  MOVFF  45D,4E3
25A6:  MOVFF  45C,4E2
25AA:  MOVFF  45B,4E1
25AE:  MOVFF  45A,4E0
25B2:  CALL   19E2
25B6:  MOVF   01,W
25B8:  ADDLW  60
25BA:  MOVLB  4
25BC:  MOVWF  x54
25BE:  MOVLW  00
25C0:  ADDWFC 02,W
25C2:  MOVWF  x55
....................    ym_ve = yt + (signed int16)(ym_tinh); 
25C4:  MOVFF  461,4E3
25C8:  MOVFF  460,4E2
25CC:  MOVFF  45F,4E1
25D0:  MOVFF  45E,4E0
25D4:  MOVLB  0
25D6:  CALL   19E2
25DA:  MOVF   01,W
25DC:  ADDLW  20
25DE:  MOVLB  4
25E0:  MOVWF  x56
25E2:  MOVLW  00
25E4:  ADDWFC 02,W
25E6:  MOVWF  x57
25E8:  MOVLB  0
25EA:  GOTO   261E (RETURN)
.................... } 
.................... void glcd_ve_kim_phut(usi8 bk,usi16 tg, int1 tt) 
.................... { 
....................    if(tt)  glcd_line(xt,yt,xm_ve,ym_ve,tat);  // xoa phut 
25EE:  MOVLB  4
25F0:  MOVF   xA6,F
25F2:  BZ    260E
25F4:  MOVLW  60
25F6:  MOVWF  xC3
25F8:  MOVLW  20
25FA:  MOVWF  xC4
25FC:  MOVFF  454,4C5
2600:  MOVFF  456,4C6
2604:  CLRF   xC7
2606:  MOVLB  0
2608:  CALL   1102
260C:  MOVLB  4
....................    tinh_vi_tri_kim_phut(bk,tg);               // tinh phut moi 
260E:  MOVFF  4A3,4A7
2612:  MOVFF  4A5,4A9
2616:  MOVFF  4A4,4A8
261A:  MOVLB  0
261C:  BRA    23A8
....................    glcd_line(xt,yt,xs_ve,ys_ve,tat);          // xoa giay 59   
261E:  MOVLW  60
2620:  MOVLB  4
2622:  MOVWF  xC3
2624:  MOVLW  20
2626:  MOVWF  xC4
2628:  MOVFF  466,4C5
262C:  MOVFF  468,4C6
2630:  CLRF   xC7
2632:  MOVLB  0
2634:  CALL   1102
2638:  RETURN 0
.................... } 
....................  
.................... void tinh_vi_tri_kim_giay(usi8 bk, usi16 tg) 
.................... { 
....................    tgs45 = tg+45; 
*
20A0:  MOVLW  2D
20A2:  MOVLB  4
20A4:  ADDWF  xA8,W
20A6:  MOVWF  01
20A8:  MOVLW  00
20AA:  ADDWFC xA9,W
20AC:  MOVFF  01,46A
20B0:  MOVWF  x6B
....................    if(tgs45>60)  tgs45=tgs45-60; 
20B2:  BTFSC  x6B.7
20B4:  BRA    20C8
20B6:  MOVF   x6B,F
20B8:  BNZ   20C0
20BA:  MOVF   x6A,W
20BC:  SUBLW  3C
20BE:  BC    20C8
20C0:  MOVLW  3C
20C2:  SUBWF  x6A,F
20C4:  MOVLW  00
20C6:  SUBWFB x6B,F
....................    goc_s = tgs45*6; 
20C8:  MOVFF  46B,4AB
20CC:  MOVFF  46A,4AA
20D0:  CLRF   xAD
20D2:  MOVLW  06
20D4:  MOVWF  xAC
20D6:  MOVLB  0
20D8:  CALL   166E
20DC:  MOVFF  02,4AB
20E0:  MOVFF  01,4AA
20E4:  MOVLB  0
20E6:  CALL   16C2
20EA:  MOVFF  03,477
20EE:  MOVFF  02,476
20F2:  MOVFF  01,475
20F6:  MOVFF  00,474
....................    xs_tinh = bk*cos((goc_s*3.14)/180); 
20FA:  MOVFF  477,4E7
20FE:  MOVFF  476,4E6
2102:  MOVFF  475,4E5
2106:  MOVFF  474,4E4
210A:  MOVLW  C3
210C:  MOVLB  4
210E:  MOVWF  xEB
2110:  MOVLW  F5
2112:  MOVWF  xEA
2114:  MOVLW  48
2116:  MOVWF  xE9
2118:  MOVLW  80
211A:  MOVWF  xE8
211C:  MOVLB  0
211E:  CALL   1712
2122:  MOVFF  03,4AD
2126:  MOVFF  02,4AC
212A:  MOVFF  01,4AB
212E:  MOVFF  00,4AA
2132:  MOVFF  03,4B2
2136:  MOVFF  02,4B1
213A:  MOVFF  01,4B0
213E:  MOVFF  00,4AF
2142:  MOVLB  4
2144:  CLRF   xB6
2146:  CLRF   xB5
2148:  MOVLW  34
214A:  MOVWF  xB4
214C:  MOVLW  86
214E:  MOVWF  xB3
2150:  MOVLB  0
2152:  CALL   1808
2156:  MOVFF  03,4AD
215A:  MOVFF  02,4AC
215E:  MOVFF  01,4AB
2162:  MOVFF  00,4AA
2166:  MOVFF  03,4B9
216A:  MOVFF  02,4B8
216E:  MOVFF  01,4B7
2172:  MOVFF  00,4B6
2176:  RCALL  1CCC
2178:  MOVFF  03,4AD
217C:  MOVFF  02,4AC
2180:  MOVFF  01,4AB
2184:  MOVFF  00,4AA
2188:  MOVLB  4
218A:  CLRF   xE5
218C:  MOVFF  4A7,4E4
2190:  MOVLB  0
2192:  RCALL  1A1E
2194:  MOVFF  03,4E7
2198:  MOVFF  02,4E6
219C:  MOVFF  01,4E5
21A0:  MOVFF  00,4E4
21A4:  MOVFF  4AD,4EB
21A8:  MOVFF  4AC,4EA
21AC:  MOVFF  4AB,4E9
21B0:  MOVFF  4AA,4E8
21B4:  CALL   1712
21B8:  MOVFF  03,46F
21BC:  MOVFF  02,46E
21C0:  MOVFF  01,46D
21C4:  MOVFF  00,46C
....................    ys_tinh = bk*sin((goc_s*3.14)/180); 
21C8:  MOVFF  477,4E7
21CC:  MOVFF  476,4E6
21D0:  MOVFF  475,4E5
21D4:  MOVFF  474,4E4
21D8:  MOVLW  C3
21DA:  MOVLB  4
21DC:  MOVWF  xEB
21DE:  MOVLW  F5
21E0:  MOVWF  xEA
21E2:  MOVLW  48
21E4:  MOVWF  xE9
21E6:  MOVLW  80
21E8:  MOVWF  xE8
21EA:  MOVLB  0
21EC:  CALL   1712
21F0:  MOVFF  03,4AD
21F4:  MOVFF  02,4AC
21F8:  MOVFF  01,4AB
21FC:  MOVFF  00,4AA
2200:  MOVFF  03,4B2
2204:  MOVFF  02,4B1
2208:  MOVFF  01,4B0
220C:  MOVFF  00,4AF
2210:  MOVLB  4
2212:  CLRF   xB6
2214:  CLRF   xB5
2216:  MOVLW  34
2218:  MOVWF  xB4
221A:  MOVLW  86
221C:  MOVWF  xB3
221E:  MOVLB  0
2220:  CALL   1808
2224:  MOVFF  03,4AD
2228:  MOVFF  02,4AC
222C:  MOVFF  01,4AB
2230:  MOVFF  00,4AA
2234:  MOVFF  03,4B1
2238:  MOVFF  02,4B0
223C:  MOVFF  01,4AF
2240:  MOVFF  00,4AE
2244:  RCALL  2054
2246:  MOVFF  03,4AD
224A:  MOVFF  02,4AC
224E:  MOVFF  01,4AB
2252:  MOVFF  00,4AA
2256:  MOVLB  4
2258:  CLRF   xE5
225A:  MOVFF  4A7,4E4
225E:  MOVLB  0
2260:  CALL   1A1E
2264:  MOVFF  03,4E7
2268:  MOVFF  02,4E6
226C:  MOVFF  01,4E5
2270:  MOVFF  00,4E4
2274:  MOVFF  4AD,4EB
2278:  MOVFF  4AC,4EA
227C:  MOVFF  4AB,4E9
2280:  MOVFF  4AA,4E8
2284:  CALL   1712
2288:  MOVFF  03,473
228C:  MOVFF  02,472
2290:  MOVFF  01,471
2294:  MOVFF  00,470
....................    xs_ve = xt + (signed int16)(xs_tinh); 
2298:  MOVFF  46F,4E3
229C:  MOVFF  46E,4E2
22A0:  MOVFF  46D,4E1
22A4:  MOVFF  46C,4E0
22A8:  CALL   19E2
22AC:  MOVF   01,W
22AE:  ADDLW  60
22B0:  MOVLB  4
22B2:  MOVWF  x66
22B4:  MOVLW  00
22B6:  ADDWFC 02,W
22B8:  MOVWF  x67
....................    ys_ve = yt + (signed int16)(ys_tinh);   
22BA:  MOVFF  473,4E3
22BE:  MOVFF  472,4E2
22C2:  MOVFF  471,4E1
22C6:  MOVFF  470,4E0
22CA:  MOVLB  0
22CC:  CALL   19E2
22D0:  MOVF   01,W
22D2:  ADDLW  20
22D4:  MOVLB  4
22D6:  MOVWF  x68
22D8:  MOVLW  00
22DA:  ADDWFC 02,W
22DC:  MOVWF  x69
22DE:  MOVLB  0
22E0:  GOTO   2320 (RETURN)
.................... } 
....................  
.................... void glcd_ve_kim_giay(usi8 bk, usi16 tg, int1 tt) 
.................... { 
....................    glcd_command(glcd_graphic_mode); 
22E4:  MOVLW  36
22E6:  MOVLB  4
22E8:  MOVWF  xB8
22EA:  MOVLB  0
22EC:  CALL   0ADA
....................    if(tt) glcd_line(xt,yt,xs_ve,ys_ve,tat);  // xoa kim giay 
22F0:  MOVLB  4
22F2:  MOVF   xA6,F
22F4:  BZ    2310
22F6:  MOVLW  60
22F8:  MOVWF  xC3
22FA:  MOVLW  20
22FC:  MOVWF  xC4
22FE:  MOVFF  466,4C5
2302:  MOVFF  468,4C6
2306:  CLRF   xC7
2308:  MOVLB  0
230A:  CALL   1102
230E:  MOVLB  4
....................    tinh_vi_tri_kim_giay(bk,tg); 
2310:  MOVFF  4A3,4A7
2314:  MOVFF  4A5,4A9
2318:  MOVFF  4A4,4A8
231C:  MOVLB  0
231E:  BRA    20A0
....................    glcd_line(xt,yt,xs_ve,ys_ve,sang);   // ve giay 
2320:  MOVLW  60
2322:  MOVLB  4
2324:  MOVWF  xC3
2326:  MOVLW  20
2328:  MOVWF  xC4
232A:  MOVFF  466,4C5
232E:  MOVFF  468,4C6
2332:  MOVLW  01
2334:  MOVWF  xC7
2336:  MOVLB  0
2338:  CALL   1102
....................     
....................    glcd_line(xt,yt,xm_ve,ym_ve,sang);   //  ve phut 
233C:  MOVLW  60
233E:  MOVLB  4
2340:  MOVWF  xC3
2342:  MOVLW  20
2344:  MOVWF  xC4
2346:  MOVFF  454,4C5
234A:  MOVFF  456,4C6
234E:  MOVLW  01
2350:  MOVWF  xC7
2352:  MOVLB  0
2354:  CALL   1102
....................    glcd_line(xt,yt,xh_ve,yh_ve,sang);   //  ve gio 
2358:  MOVLW  60
235A:  MOVLB  4
235C:  MOVWF  xC3
235E:  MOVLW  20
2360:  MOVWF  xC4
2362:  MOVFF  478,4C5
2366:  MOVFF  47A,4C6
236A:  MOVLW  01
236C:  MOVWF  xC7
236E:  MOVLB  0
2370:  CALL   1102
....................    glcd_circle(xt,yt,4,co_fill,sang); 
2374:  MOVLW  60
2376:  MOVLB  4
2378:  MOVWF  xB7
237A:  MOVLW  20
237C:  MOVWF  xB8
237E:  MOVLW  04
2380:  MOVWF  xB9
2382:  MOVLW  01
2384:  MOVWF  xBA
2386:  MOVWF  xBB
2388:  MOVLB  0
238A:  CALL   1286
....................    glcd_circle(xt,yt,2,no_fill,tat);   
238E:  MOVLW  60
2390:  MOVLB  4
2392:  MOVWF  xB7
2394:  MOVLW  20
2396:  MOVWF  xB8
2398:  MOVLW  02
239A:  MOVWF  xB9
239C:  CLRF   xBA
239E:  CLRF   xBB
23A0:  MOVLB  0
23A2:  CALL   1286
23A6:  RETURN 0
.................... } 
....................  
.................... void glcd_dong_ho_so() 
.................... { 
....................     const signed int8 maglcd[]={"0123456789"}; 
....................     glcd_command(glcd_text_mode); 
*
2E24:  MOVLW  30
2E26:  MOVLB  4
2E28:  MOVWF  xB8
2E2A:  MOVLB  0
2E2C:  CALL   0ADA
....................     glcd_command(glcd_addr_line1); 
2E30:  MOVLW  90
2E32:  MOVLB  4
2E34:  MOVWF  xB8
2E36:  MOVLB  0
2E38:  CALL   0ADA
....................      
....................     glcd_data(maglcd[gio_ds/16]); 
2E3C:  SWAPF  1F,W
2E3E:  MOVWF  00
2E40:  MOVLW  0F
2E42:  ANDWF  00,F
2E44:  MOVF   00,W
2E46:  CLRF   03
2E48:  MOVFF  FF2,4A3
2E4C:  BCF    FF2.7
2E4E:  CALL   02D0
2E52:  MOVLB  4
2E54:  BTFSC  xA3.7
2E56:  BSF    FF2.7
2E58:  MOVWF  xA3
2E5A:  MOVWF  xA6
2E5C:  MOVLB  0
2E5E:  RCALL  2D2A
....................     glcd_data(maglcd[gio_ds%16]); 
2E60:  MOVF   1F,W
2E62:  ANDLW  0F
2E64:  CLRF   03
2E66:  MOVFF  FF2,4A3
2E6A:  BCF    FF2.7
2E6C:  CALL   02D0
2E70:  MOVLB  4
2E72:  BTFSC  xA3.7
2E74:  BSF    FF2.7
2E76:  MOVWF  xA3
2E78:  MOVWF  xA6
2E7A:  MOVLB  0
2E7C:  RCALL  2D2A
....................     glcd_data(' '); 
2E7E:  MOVLW  20
2E80:  MOVLB  4
2E82:  MOVWF  xA6
2E84:  MOVLB  0
2E86:  RCALL  2D2A
....................     glcd_data(maglcd[phut_ds/16]); 
2E88:  SWAPF  1E,W
2E8A:  MOVWF  00
2E8C:  MOVLW  0F
2E8E:  ANDWF  00,F
2E90:  MOVF   00,W
2E92:  CLRF   03
2E94:  MOVFF  FF2,4A3
2E98:  BCF    FF2.7
2E9A:  CALL   02D0
2E9E:  MOVLB  4
2EA0:  BTFSC  xA3.7
2EA2:  BSF    FF2.7
2EA4:  MOVWF  xA3
2EA6:  MOVWF  xA6
2EA8:  MOVLB  0
2EAA:  RCALL  2D2A
....................     glcd_data(maglcd[phut_ds%16]); 
2EAC:  MOVF   1E,W
2EAE:  ANDLW  0F
2EB0:  CLRF   03
2EB2:  MOVFF  FF2,4A3
2EB6:  BCF    FF2.7
2EB8:  CALL   02D0
2EBC:  MOVLB  4
2EBE:  BTFSC  xA3.7
2EC0:  BSF    FF2.7
2EC2:  MOVWF  xA3
2EC4:  MOVWF  xA6
2EC6:  MOVLB  0
2EC8:  RCALL  2D2A
....................     glcd_data(' '); 
2ECA:  MOVLW  20
2ECC:  MOVLB  4
2ECE:  MOVWF  xA6
2ED0:  MOVLB  0
2ED2:  RCALL  2D2A
....................     glcd_data(maglcd[giay_ds/16]); 
2ED4:  SWAPF  1D,W
2ED6:  MOVWF  00
2ED8:  MOVLW  0F
2EDA:  ANDWF  00,F
2EDC:  MOVF   00,W
2EDE:  CLRF   03
2EE0:  MOVFF  FF2,4A3
2EE4:  BCF    FF2.7
2EE6:  CALL   02D0
2EEA:  MOVLB  4
2EEC:  BTFSC  xA3.7
2EEE:  BSF    FF2.7
2EF0:  MOVWF  xA3
2EF2:  MOVWF  xA6
2EF4:  MOVLB  0
2EF6:  RCALL  2D2A
....................     glcd_data(maglcd[giay_ds%16]); 
2EF8:  MOVF   1D,W
2EFA:  ANDLW  0F
2EFC:  CLRF   03
2EFE:  MOVFF  FF2,4A3
2F02:  BCF    FF2.7
2F04:  CALL   02D0
2F08:  MOVLB  4
2F0A:  BTFSC  xA3.7
2F0C:  BSF    FF2.7
2F0E:  MOVWF  xA3
2F10:  MOVWF  xA6
2F12:  MOVLB  0
2F14:  RCALL  2D2A
....................      
....................     glcd_command(glcd_addr_line2); 
2F16:  MOVLW  88
2F18:  MOVLB  4
2F1A:  MOVWF  xB8
2F1C:  MOVLB  0
2F1E:  CALL   0ADA
....................     glcd_data(maglcd[ngay_ds/16]); 
2F22:  SWAPF  21,W
2F24:  MOVWF  00
2F26:  MOVLW  0F
2F28:  ANDWF  00,F
2F2A:  MOVF   00,W
2F2C:  CLRF   03
2F2E:  MOVFF  FF2,4A3
2F32:  BCF    FF2.7
2F34:  CALL   02D0
2F38:  MOVLB  4
2F3A:  BTFSC  xA3.7
2F3C:  BSF    FF2.7
2F3E:  MOVWF  xA3
2F40:  MOVWF  xA6
2F42:  MOVLB  0
2F44:  RCALL  2D2A
....................     glcd_data(maglcd[ngay_ds%16]); 
2F46:  MOVF   21,W
2F48:  ANDLW  0F
2F4A:  CLRF   03
2F4C:  MOVFF  FF2,4A3
2F50:  BCF    FF2.7
2F52:  CALL   02D0
2F56:  MOVLB  4
2F58:  BTFSC  xA3.7
2F5A:  BSF    FF2.7
2F5C:  MOVWF  xA3
2F5E:  MOVWF  xA6
2F60:  MOVLB  0
2F62:  RCALL  2D2A
....................     glcd_data(' '); 
2F64:  MOVLW  20
2F66:  MOVLB  4
2F68:  MOVWF  xA6
2F6A:  MOVLB  0
2F6C:  RCALL  2D2A
....................     glcd_data(maglcd[thang_ds/16]); 
2F6E:  SWAPF  22,W
2F70:  MOVWF  00
2F72:  MOVLW  0F
2F74:  ANDWF  00,F
2F76:  MOVF   00,W
2F78:  CLRF   03
2F7A:  MOVFF  FF2,4A3
2F7E:  BCF    FF2.7
2F80:  CALL   02D0
2F84:  MOVLB  4
2F86:  BTFSC  xA3.7
2F88:  BSF    FF2.7
2F8A:  MOVWF  xA3
2F8C:  MOVWF  xA6
2F8E:  MOVLB  0
2F90:  RCALL  2D2A
....................     glcd_data(maglcd[thang_ds%16]); 
2F92:  MOVF   22,W
2F94:  ANDLW  0F
2F96:  CLRF   03
2F98:  MOVFF  FF2,4A3
2F9C:  BCF    FF2.7
2F9E:  CALL   02D0
2FA2:  MOVLB  4
2FA4:  BTFSC  xA3.7
2FA6:  BSF    FF2.7
2FA8:  MOVWF  xA3
2FAA:  MOVWF  xA6
2FAC:  MOVLB  0
2FAE:  RCALL  2D2A
....................     glcd_data(' '); 
2FB0:  MOVLW  20
2FB2:  MOVLB  4
2FB4:  MOVWF  xA6
2FB6:  MOVLB  0
2FB8:  RCALL  2D2A
....................     glcd_data(maglcd[nam_ds/16]); 
2FBA:  SWAPF  23,W
2FBC:  MOVWF  00
2FBE:  MOVLW  0F
2FC0:  ANDWF  00,F
2FC2:  MOVF   00,W
2FC4:  CLRF   03
2FC6:  MOVFF  FF2,4A3
2FCA:  BCF    FF2.7
2FCC:  CALL   02D0
2FD0:  MOVLB  4
2FD2:  BTFSC  xA3.7
2FD4:  BSF    FF2.7
2FD6:  MOVWF  xA3
2FD8:  MOVWF  xA6
2FDA:  MOVLB  0
2FDC:  RCALL  2D2A
....................     glcd_data(maglcd[nam_ds%16]); 
2FDE:  MOVF   23,W
2FE0:  ANDLW  0F
2FE2:  CLRF   03
2FE4:  MOVFF  FF2,4A3
2FE8:  BCF    FF2.7
2FEA:  CALL   02D0
2FEE:  MOVLB  4
2FF0:  BTFSC  xA3.7
2FF2:  BSF    FF2.7
2FF4:  MOVWF  xA3
2FF6:  MOVWF  xA6
2FF8:  MOVLB  0
2FFA:  RCALL  2D2A
2FFC:  GOTO   3660 (RETURN)
.................... } 
....................  
.................... usi8 giay_tam, giay_bin,phut_bin,gio_bin; 
....................  
.................... unsigned int8 ds18a_ng,ds18a_ngt=0; 
.................... unsigned int16 ds18a_w,ds18a_tp,ds18a_tpt=50; 
.................... unsigned INT16 lm35a_ng,lm35a_tp,lm35a_ngt=0; 
.................... unsigned int16 lt=0, lp=0; 
.................... int1 tt_qt=0, tt_qn=0, tt_n=0, tt_tam=0; 
.................... //trang thai quay thuan, quay nghich, ngung 
.................... signed int8 giay, bdn; 
....................  
.................... //!#int_timer3 
.................... //!void interrupt_timer3() 
.................... //!{ 
.................... //!   bdn++; 
.................... //!   set_timer3(3036); 
.................... //!} 
.................... //! 
.................... //!void tang_giay() 
.................... //!{ 
.................... //!   bdn = bdn-10;  giay++; 
.................... //!   if(giay==60)   giay=0; 
.................... //!   md4l7d_giaima_4so_vitri_vn(giay,3,cx_vn); 
.................... //!} 
.................... //! 
.................... void ds18b20_a_ht_lcd() 
.................... { 
....................     if(ds18a_ngt!=ds18a_ng) 
*
29B6:  MOVLB  4
29B8:  MOVF   x8E,W
29BA:  SUBWF  x8F,W
29BC:  BZ    2A0E
....................     { 
....................        ds18a_ngt=ds18a_ng; 
29BE:  MOVFF  48E,48F
....................        lcd_goto_xy(0,0); 
29C2:  CLRF   xB0
29C4:  CLRF   xB1
29C6:  MOVLB  0
29C8:  CALL   0710
....................        lcd_data(ds18a_ng/10+0x30); 
29CC:  MOVFF  48E,4A3
29D0:  MOVLW  0A
29D2:  MOVLB  4
29D4:  MOVWF  xA4
29D6:  MOVLB  0
29D8:  RCALL  2910
29DA:  MOVLW  30
29DC:  ADDWF  01,W
29DE:  MOVLB  4
29E0:  MOVWF  xA3
29E2:  MOVWF  xB2
29E4:  MOVLB  0
29E6:  CALL   04F2
....................        //lcd_goto_xy(1,0); 
....................        //lcd_data(ds18a_ng%10+0x30); 
....................        lcd_hien_thi_so_to(ds18a_ng%10,0,1); 
29EA:  MOVFF  48E,4A3
29EE:  MOVLW  0A
29F0:  MOVLB  4
29F2:  MOVWF  xA4
29F4:  MOVLB  0
29F6:  RCALL  2910
29F8:  MOVFF  00,4A3
29FC:  MOVFF  00,4A5
2A00:  MOVLB  4
2A02:  CLRF   xA6
2A04:  MOVLW  01
2A06:  MOVWF  xA7
2A08:  MOVLB  0
2A0A:  RCALL  293C
2A0C:  MOVLB  4
....................     } 
2A0E:  MOVLB  0
2A10:  GOTO   2A4C (RETURN)
.................... //!    if(ds18a_tpt!=ds18a_tp) 
.................... //!    { 
.................... //!       ds18a_tpt=ds18a_tp; 
.................... //!    } 
.................... } 
....................  
.................... void ds18b20_a_doc_xuly_hthi() 
.................... { 
....................     if(touch_present()) 
2A14:  CALL   0558
2A18:  MOVF   01,F
2A1A:  BZ    2A4E
....................     { 
....................        ds18a_w = ds18b20_read_temp(); 
2A1C:  BRA    28B4
2A1E:  MOVFF  02,491
2A22:  MOVFF  01,490
....................        ds18a_ng = ds18a_w>>4; //dich phai gia tri 4bit 
2A26:  MOVLB  4
2A28:  RRCF   x91,W
2A2A:  MOVWF  03
2A2C:  RRCF   x90,W
2A2E:  MOVWF  02
2A30:  RRCF   03,F
2A32:  RRCF   02,F
2A34:  RRCF   03,F
2A36:  RRCF   02,F
2A38:  RRCF   03,F
2A3A:  RRCF   02,F
2A3C:  MOVFF  02,48E
....................        ds18a_tp = ds18a_w & 0x000f; //giu nguyen 4 bit thap, xoa di cac bit cao 
2A40:  MOVF   x90,W
2A42:  ANDLW  0F
2A44:  MOVWF  x92
2A46:  CLRF   x93
....................        ds18b20_a_ht_lcd(); 
2A48:  MOVLB  0
2A4A:  BRA    29B6
....................     } 
2A4C:  BRA    2A52
....................     else ds18b20_no_ds18b(); 
2A4E:  CALL   0754
2A52:  GOTO   358E (RETURN)
.................... } 
....................  
.................... void adc_lm35a_doc_xuly(usi8 sl)  
.................... { 
....................    float lm35a; 
....................    lm35a = h701_adc_read(sl, chan_lm35a); 
*
2C24:  MOVFF  4A3,4A8
2C28:  MOVLB  4
2C2A:  CLRF   xA9
2C2C:  MOVLB  0
2C2E:  BRA    2A56
2C30:  MOVFF  03,4A7
2C34:  MOVFF  02,4A6
2C38:  MOVFF  01,4A5
2C3C:  MOVFF  00,4A4
....................    lm35a = lm35a/2.046; 
2C40:  MOVFF  4A7,4B2
2C44:  MOVFF  4A6,4B1
2C48:  MOVFF  4A5,4B0
2C4C:  MOVFF  4A4,4AF
2C50:  MOVLW  AA
2C52:  MOVLB  4
2C54:  MOVWF  xB6
2C56:  MOVLW  F1
2C58:  MOVWF  xB5
2C5A:  MOVLW  02
2C5C:  MOVWF  xB4
2C5E:  MOVLW  80
2C60:  MOVWF  xB3
2C62:  MOVLB  0
2C64:  CALL   1808
2C68:  MOVFF  03,4A7
2C6C:  MOVFF  02,4A6
2C70:  MOVFF  01,4A5
2C74:  MOVFF  00,4A4
....................    float_to_ng_2so_tp(lm35a); 
2C78:  MOVFF  4A7,4AB
2C7C:  MOVFF  4A6,4AA
2C80:  MOVFF  4A5,4A9
2C84:  MOVFF  4A4,4A8
2C88:  BRA    2B2E
....................    lm35a_ng = so_ng; 
2C8A:  MOVFF  2C,497
2C8E:  MOVFF  2B,496
....................    lm35a_tp = so_tp; 
2C92:  MOVFF  2E,499
2C96:  MOVFF  2D,498
2C9A:  GOTO   35A6 (RETURN)
.................... } 
....................  
.................... void adc_lm35a_ht_lcd()  
.................... { 
....................    IF (lm35a_ngt != lm35a_ng) 
2C9E:  MOVLB  4
2CA0:  MOVF   x96,W
2CA2:  SUBWF  x9A,W
2CA4:  BNZ   2CAC
2CA6:  MOVF   x97,W
2CA8:  SUBWF  x9B,W
2CAA:  BZ    2D24
....................    { 
....................       lm35a_ngt = lm35a_ng; 
2CAC:  MOVFF  497,49B
2CB0:  MOVFF  496,49A
....................       lcd_hien_thi_so_to(lm35a_ng/10,0,16); 
2CB4:  MOVFF  497,4AC
2CB8:  MOVFF  496,4AB
2CBC:  CLRF   xAE
2CBE:  MOVLW  0A
2CC0:  MOVWF  xAD
2CC2:  MOVLB  0
2CC4:  CALL   0838
2CC8:  MOVFF  02,4A4
2CCC:  MOVFF  01,4A3
2CD0:  MOVFF  01,4A5
2CD4:  MOVLB  4
2CD6:  CLRF   xA6
2CD8:  MOVLW  10
2CDA:  MOVWF  xA7
2CDC:  MOVLB  0
2CDE:  RCALL  293C
....................       lcd_goto_xy(1,19); 
2CE0:  MOVLW  01
2CE2:  MOVLB  4
2CE4:  MOVWF  xB0
2CE6:  MOVLW  13
2CE8:  MOVWF  xB1
2CEA:  MOVLB  0
2CEC:  CALL   0710
....................       lcd_data(lm35a_ng%10+0x30); 
2CF0:  MOVFF  497,4AC
2CF4:  MOVFF  496,4AB
2CF8:  MOVLB  4
2CFA:  CLRF   xAE
2CFC:  MOVLW  0A
2CFE:  MOVWF  xAD
2D00:  MOVLB  0
2D02:  CALL   0838
2D06:  MOVFF  00,4A3
2D0A:  MOVLB  4
2D0C:  MOVFF  03,4A4
2D10:  MOVLW  30
2D12:  ADDWF  xA3,F
2D14:  MOVLW  00
2D16:  ADDWFC xA4,F
2D18:  MOVFF  4A3,4B2
2D1C:  MOVLB  0
2D1E:  CALL   04F2
2D22:  MOVLB  4
....................    } 
2D24:  MOVLB  0
2D26:  GOTO   35AA (RETURN)
.................... } 
....................  
.................... void phim_on_off() 
.................... { 
....................    if((phim_bt0_c2(2)==co_nhan)&&(!tt_tam))  
*
3190:  MOVLB  4
3192:  CLRF   xA4
3194:  MOVLW  02
3196:  MOVWF  xA3
3198:  MOVLB  0
319A:  BRA    3000
319C:  DECFSZ 01,W
319E:  BRA    31CC
31A0:  MOVLB  4
31A2:  BTFSS  xA0.2
31A4:  BRA    31AA
31A6:  MOVLB  0
31A8:  BRA    31CC
....................     { 
....................        tt_tam=1;   //stepmotor_onoff=1; 
31AA:  BSF    xA0.2
....................        lt=0xffff; 
31AC:  SETF   x9D
31AE:  SETF   x9C
....................        tt_n=0; tt_qt=0; tt_qn=0; 
31B0:  BCF    xA0.1
31B2:  BCF    33.7
31B4:  BCF    xA0.0
....................        xuat_32led_don_2word(lt,lp);  
31B6:  MOVFF  49D,4A5
31BA:  MOVFF  49C,4A4
31BE:  MOVFF  49F,4A7
31C2:  MOVFF  49E,4A6
31C6:  MOVLB  0
31C8:  RCALL  307E
....................     }  
31CA:  BRA    3216
....................     else if((phim_bt3_c2(2)==co_nhan)&&(tt_tam)) 
31CC:  MOVLB  4
31CE:  CLRF   xA4
31D0:  MOVLW  02
31D2:  MOVWF  xA3
31D4:  MOVLB  0
31D6:  BRA    30A2
31D8:  DECFSZ 01,W
31DA:  BRA    3216
31DC:  MOVLB  4
31DE:  BTFSC  xA0.2
31E0:  BRA    31E6
31E2:  MOVLB  0
31E4:  BRA    3216
....................     { 
....................        tt_tam=0;   //stepmotor_onoff=0; 
31E6:  BCF    xA0.2
....................        pwm_duty=0;   
31E8:  CLRF   35
31EA:  CLRF   34
....................        dc_motor_set_pwmx_duty(); 
31EC:  MOVLB  0
31EE:  RCALL  30F4
....................        dc_motor_pwm_ccp1_ccp2_stop(); 
31F0:  RCALL  3180
....................        lt=0;   lp=0; 
31F2:  MOVLB  4
31F4:  CLRF   x9D
31F6:  CLRF   x9C
31F8:  CLRF   x9F
31FA:  CLRF   x9E
....................        tt_n=0; tt_qt=0; tt_qn=0; 
31FC:  BCF    xA0.1
31FE:  BCF    33.7
3200:  BCF    xA0.0
....................        xuat_32led_don_2word(lt,lp);  
3202:  MOVFF  49D,4A5
3206:  MOVFF  49C,4A4
320A:  MOVFF  49F,4A7
320E:  MOVFF  49E,4A6
3212:  MOVLB  0
3214:  RCALL  307E
....................     }  
3216:  GOTO   3666 (RETURN)
.................... } 
....................  
.................... void dkdc_theo_giay(usi8 giay) 
.................... { 
....................     if(tt_tam)  //&&(!dcmotor_tn))  
321A:  MOVLB  4
321C:  BTFSS  xA0.2
321E:  BRA    32DE
....................     { 
....................       if((1<giay)&&(giay<16)) 
3220:  MOVF   xA3,W
3222:  SUBLW  01
3224:  BC    3264
3226:  MOVF   xA3,W
3228:  SUBLW  0F
322A:  BNC   3264
....................       { 
....................          if((tt_qn==0))//&&(!stepmotor_onoff)) 
322C:  BTFSC  xA0.0
322E:  BRA    3262
....................          {  
....................              dcmotor_tn=0;  
3230:  BCF    33.2
....................              stepmotor_onoff=1; 
3232:  BSF    33.5
....................              stepmotor_tn=1; 
3234:  BSF    33.4
....................              dc_motor_ktao_ccpx(); 
3236:  MOVLB  0
3238:  RCALL  3174
....................              pwm_duty=250; 
323A:  CLRF   35
323C:  MOVLW  FA
323E:  MOVWF  34
....................              dc_motor_set_pwmx_duty(); 
3240:  RCALL  30F4
....................              lt=0xff00; 
3242:  MOVLB  4
3244:  SETF   x9D
3246:  CLRF   x9C
....................              tt_n=0; tt_qn=1;  
3248:  BCF    xA0.1
324A:  BSF    xA0.0
....................              xuat_32led_don_2word(lt,lp); 
324C:  MOVFF  49D,4A5
3250:  MOVFF  49C,4A4
3254:  MOVFF  49F,4A7
3258:  MOVFF  49E,4A6
325C:  MOVLB  0
325E:  RCALL  307E
3260:  MOVLB  4
.................... //!             step_motor_run_tn_fs(); 
.................... //!             delay_ms(stepmotor_delay); 
....................          } 
....................       } 
3262:  BRA    32DE
....................       else if ((31<giay)&&(giay<46)) 
3264:  MOVF   xA3,W
3266:  SUBLW  1F
3268:  BC    32A8
326A:  MOVF   xA3,W
326C:  SUBLW  2D
326E:  BNC   32A8
....................       { 
....................         if((tt_qt==0))//&&(!stepmotor_onoff)) 
3270:  BTFSC  33.7
3272:  BRA    32A6
....................         { 
....................             dcmotor_tn=1;  
3274:  BSF    33.2
....................             stepmotor_onoff=1; 
3276:  BSF    33.5
....................             stepmotor_tn=0; 
3278:  BCF    33.4
....................             dc_motor_ktao_ccpx(); 
327A:  MOVLB  0
327C:  RCALL  3174
....................             pwm_duty=250; 
327E:  CLRF   35
3280:  MOVLW  FA
3282:  MOVWF  34
....................             dc_motor_set_pwmx_duty(); 
3284:  RCALL  30F4
....................             lp=0xff;  
3286:  MOVLB  4
3288:  CLRF   x9F
328A:  SETF   x9E
....................             xuat_32led_don_2word(lt,lp); 
328C:  MOVFF  49D,4A5
3290:  MOVFF  49C,4A4
3294:  MOVFF  49F,4A7
3298:  MOVFF  49E,4A6
329C:  MOVLB  0
329E:  RCALL  307E
....................             tt_n=0; tt_qt=1;  
32A0:  MOVLB  4
32A2:  BCF    xA0.1
32A4:  BSF    33.7
.................... //!            step_motor_run_tn_fs(); 
.................... //!            delay_ms(stepmotor_delay); 
....................         } 
....................       } 
32A6:  BRA    32DE
....................       else 
....................       { 
....................         if(tt_n==0) 
32A8:  BTFSC  xA0.1
32AA:  BRA    32DE
....................         { 
....................             tt_n=1; tt_qt=0; tt_qn=0; 
32AC:  BSF    xA0.1
32AE:  BCF    33.7
32B0:  BCF    xA0.0
....................             stepmotor_onoff=0; 
32B2:  BCF    33.5
....................             dc_motor_pwm_ccp1_ccp2_stop(); 
32B4:  MOVLB  0
32B6:  RCALL  3180
....................             lp=0; lt=0; 
32B8:  MOVLB  4
32BA:  CLRF   x9F
32BC:  CLRF   x9E
32BE:  CLRF   x9D
32C0:  CLRF   x9C
....................             pwm_duty=0;   
32C2:  CLRF   35
32C4:  CLRF   34
....................             dc_motor_set_pwmx_duty(); 
32C6:  MOVLB  0
32C8:  RCALL  30F4
....................             xuat_32led_don_2word(lt,lp); 
32CA:  MOVFF  49D,4A5
32CE:  MOVFF  49C,4A4
32D2:  MOVFF  49F,4A7
32D6:  MOVFF  49E,4A6
32DA:  RCALL  307E
32DC:  MOVLB  4
....................         } 
....................       } 
....................     } 
32DE:  MOVLB  0
32E0:  GOTO   366C (RETURN)
.................... } 
.................... void main() 
*
3352:  CLRF   FF8
3354:  BCF    FD0.7
3356:  BSF    FB8.3
3358:  MOVLW  08
335A:  MOVWF  FAF
335C:  MOVLW  02
335E:  MOVWF  FB0
3360:  MOVLW  A6
3362:  MOVWF  FAC
3364:  MOVLW  90
3366:  MOVWF  FAB
3368:  CLRF   07
336A:  CLRF   06
336C:  SETF   2A
336E:  CLRF   30
3370:  MOVLW  22
3372:  MOVWF  2F
3374:  CLRF   32
3376:  MOVLW  20
3378:  MOVWF  31
337A:  BCF    33.0
337C:  BCF    33.1
337E:  BCF    33.2
3380:  BCF    33.3
3382:  CLRF   4E
3384:  BCF    33.4
3386:  BCF    33.5
3388:  BSF    33.6
338A:  MOVLB  4
338C:  CLRF   x8F
338E:  CLRF   x95
3390:  MOVLW  32
3392:  MOVWF  x94
3394:  CLRF   x9B
3396:  CLRF   x9A
3398:  CLRF   x9D
339A:  CLRF   x9C
339C:  CLRF   x9F
339E:  CLRF   x9E
33A0:  BCF    33.7
33A2:  BCF    xA0.0
33A4:  BCF    xA0.1
33A6:  BCF    xA0.2
33A8:  MOVF   FC1,W
33AA:  ANDLW  C0
33AC:  IORLW  0F
33AE:  MOVWF  FC1
33B0:  MOVLW  07
33B2:  MOVWF  FB4
33B4:  BRA    33EE
33B6:  DATA 0C,40
33B8:  DATA 08,FF
33BA:  DATA 16,80
33BC:  DATA 30,37
33BE:  DATA 08,07
33C0:  DATA 04,06
33C2:  DATA 22,90
33C4:  DATA 95,30
33C6:  DATA 30,10
33C8:  DATA 08,20
33CA:  DATA 02,20
33CC:  DATA 90,96
33CE:  DATA 00,00
33D0:  DATA 00,00
33D2:  DATA 18,00
33D4:  DATA 36,1D
33D6:  DATA 00,17
33D8:  DATA 00,1B
33DA:  DATA 00,0F
33DC:  DATA 00,1D
33DE:  DATA 00,15
33E0:  DATA 00,17
33E2:  DATA 00,13
33E4:  DATA 00,1B
33E6:  DATA 00,0B
33E8:  DATA 00,0F
33EA:  DATA 00,0D
33EC:  DATA 00,00
33EE:  MOVLW  00
33F0:  MOVWF  FF8
33F2:  MOVLW  33
33F4:  MOVWF  FF7
33F6:  MOVLW  B6
33F8:  MOVWF  FF6
33FA:  TBLRD*+
33FC:  MOVF   FF5,W
33FE:  MOVWF  00
3400:  XORLW  00
3402:  BZ    342A
3404:  TBLRD*+
3406:  MOVF   FF5,W
3408:  MOVWF  01
340A:  BTFSC  FE8.7
340C:  BRA    3418
340E:  ANDLW  0F
3410:  MOVWF  FEA
3412:  TBLRD*+
3414:  MOVFF  FF5,FE9
3418:  BTFSC  01.6
341A:  TBLRD*+
341C:  BTFSS  01.6
341E:  TBLRD*+
3420:  MOVFF  FF5,FEE
3424:  DCFSNZ 00,F
3426:  BRA    33FA
3428:  BRA    341C
342A:  CLRF   FF8
.................... { 
....................    set_up_port(); 
342C:  MOVLB  0
342E:  GOTO   03CE
....................    lcd_setup(); 
3432:  GOTO   0496
....................    lcd_khoi_tao_cgram_so_to(); 
3436:  GOTO   04FC
....................     
....................    ds18b20_khoi_tao(); 
343A:  GOTO   065C
....................    ds18b20_doc_rom(3,0); 
343E:  MOVLW  03
3440:  MOVLB  4
3442:  MOVWF  xA3
3444:  CLRF   xA4
3446:  MOVLB  0
3448:  GOTO   076A
....................     
....................    setup_timer_3(t3_internal|t3_div_by_8); 
344C:  MOVLW  B5
344E:  MOVWF  FB1
....................    set_timer3(3036); 
3450:  MOVLW  0B
3452:  MOVWF  FB3
3454:  MOVLW  DC
3456:  MOVWF  FB2
....................     
....................    enable_interrupts(global); 
3458:  MOVLW  C0
345A:  IORWF  FF2,F
....................    enable_interrupts(int_timer3); 
345C:  BSF    FA0.1
....................     
....................    giay=0; 
345E:  MOVLB  4
3460:  CLRF   xA1
....................    bdn=0; 
3462:  CLRF   xA2
....................     
....................    md4l7d_giaima_4so_vitri_vn(giay,3,cx_vn); 
3464:  CLRF   xA4
3466:  MOVFF  4A1,4A3
346A:  MOVLW  03
346C:  MOVWF  xA5
346E:  MOVLW  01
3470:  MOVWF  xA6
3472:  MOVLB  0
3474:  GOTO   087E
....................    dc_motor_enable(); 
3478:  GOTO   0A8C
....................    setup_ccp1(ccp_pwm); 
347C:  BCF    F94.2
347E:  BCF    F8B.2
3480:  MOVLW  0C
3482:  MOVWF  FBD
3484:  CLRF   FB7
3486:  CLRF   FB6
....................    setup_timer_2(t2_div_by_16,249,1); 
3488:  MOVLW  00
348A:  IORLW  06
348C:  MOVWF  FCA
348E:  MOVLW  F9
3490:  MOVWF  FCB
....................    pwm_duty=0; 
3492:  CLRF   35
3494:  CLRF   34
....................    set_pwm1_duty(pwm_duty); 
3496:  MOVFF  35,02
349A:  MOVFF  34,01
349E:  RRCF   02,F
34A0:  RRCF   01,F
34A2:  RRCF   02,F
34A4:  RRCF   01,F
34A6:  RRCF   02,F
34A8:  MOVFF  01,FBE
34AC:  RRCF   02,F
34AE:  RRCF   02,W
34B0:  ANDLW  30
34B2:  MOVWF  00
34B4:  MOVF   FBD,W
34B6:  ANDLW  CF
34B8:  IORWF  00,W
34BA:  MOVWF  FBD
....................    dc_motor_stop(); 
34BC:  GOTO   0A94
....................     
....................    stepmotor_delay=5; //thoi gian delay giua 2 buoc 
34C0:  MOVLW  05
34C2:  MOVWF  4F
....................    stepmotor_tn = 1;  //chon chieu quay nghich 
34C4:  BSF    33.4
....................    stepmotor_fh = 1;  //chon buoc du 
34C6:  BSF    33.6
....................     
....................    setup_glcd(glcd_text_mode); 
34C8:  MOVLW  30
34CA:  MOVLB  4
34CC:  MOVWF  xB7
34CE:  MOVLB  0
34D0:  CALL   0AE4
....................    delay_ms(10); 
34D4:  MOVLW  0A
34D6:  MOVLB  4
34D8:  MOVWF  xB8
34DA:  MOVLB  0
34DC:  CALL   046E
....................    setup_glcd(glcd_graphic_mode); 
34E0:  MOVLW  36
34E2:  MOVLB  4
34E4:  MOVWF  xB7
34E6:  MOVLB  0
34E8:  CALL   0AE4
....................    glcd_mau_nen(0); 
34EC:  MOVLB  4
34EE:  CLRF   xB7
34F0:  MOVLB  0
34F2:  CALL   0B5E
....................    ds1307_kiem_tra_ma(); 
34F6:  GOTO   0E1E
....................     
....................    glcd_ve_cac_vong_tron_so(); 
34FA:  GOTO   1496
....................    giay_bin=(giay_ds/16)*10+(giay_ds%16); 
34FE:  SWAPF  1D,W
3500:  MOVWF  00
3502:  MOVLW  0F
3504:  ANDWF  00,F
3506:  MOVF   00,W
3508:  MULLW  0A
350A:  MOVFF  FF3,4A3
350E:  MOVLB  4
3510:  MOVF   1D,W
3512:  ANDLW  0F
3514:  ADDWF  xA3,W
3516:  MOVWF  x8B
....................    glcd_ve_kim_giay(bks,giay_bin,0); 
3518:  MOVLW  14
351A:  MOVWF  xA3
351C:  CLRF   xA5
351E:  MOVFF  48B,4A4
3522:  CLRF   xA6
3524:  MOVLB  0
3526:  CALL   22E4
....................    giay_tam=0x60; 
352A:  MOVLW  60
352C:  MOVLB  4
352E:  MOVWF  x8A
....................     
....................    phut_bin= (phut_ds/16)*10+(phut_ds%16); 
3530:  SWAPF  1E,W
3532:  MOVWF  00
3534:  MOVLW  0F
3536:  ANDWF  00,F
3538:  MOVF   00,W
353A:  MULLW  0A
353C:  MOVFF  FF3,4A3
3540:  MOVF   1E,W
3542:  ANDLW  0F
3544:  ADDWF  xA3,W
3546:  MOVWF  x8C
....................    glcd_ve_kim_phut(bkm,phut_bin,1); 
3548:  MOVLW  11
354A:  MOVWF  xA3
354C:  CLRF   xA5
354E:  MOVFF  48C,4A4
3552:  MOVLW  01
3554:  MOVWF  xA6
3556:  MOVLB  0
3558:  CALL   25EE
....................     
....................    gio_bin= (gio_ds/16)*10+(gio_ds%16); 
355C:  SWAPF  1F,W
355E:  MOVWF  00
3560:  MOVLW  0F
3562:  ANDWF  00,F
3564:  MOVF   00,W
3566:  MULLW  0A
3568:  MOVFF  FF3,4A3
356C:  MOVLB  4
356E:  MOVF   1F,W
3570:  ANDLW  0F
3572:  ADDWF  xA3,W
3574:  MOVWF  x8D
....................    glcd_ve_kim_gio(bkh,gio_bin,1); 
3576:  MOVLW  0D
3578:  MOVWF  xA3
357A:  CLRF   xA5
357C:  MOVFF  48D,4A4
3580:  MOVLW  01
3582:  MOVWF  xA6
3584:  MOVLB  0
3586:  CALL   2882
....................     
....................    while(true) 
....................    { 
....................       ds18b20_a_doc_xuly_hthi(); 
358A:  GOTO   2A14
....................       delay_ms(200); 
358E:  MOVLW  C8
3590:  MOVLB  4
3592:  MOVWF  xB8
3594:  MOVLB  0
3596:  CALL   046E
....................        
....................       adc_lm35a_doc_xuly(solan); 
359A:  MOVLW  64
359C:  MOVLB  4
359E:  MOVWF  xA3
35A0:  MOVLB  0
35A2:  GOTO   2C24
....................       adc_lm35a_ht_lcd(); 
35A6:  GOTO   2C9E
....................       //delay_ms(200); 
....................       lm35a_ngt=0; 
35AA:  MOVLB  4
35AC:  CLRF   x9B
35AE:  CLRF   x9A
....................       ds18a_ngt=0; 
35B0:  CLRF   x8F
....................        
.................... //!      if(bdn<10) 
.................... //!      { 
.................... //!        xuat_4led_7doan_4so(); 
.................... //!        phim_on_off(); 
.................... //!        dkdc_theo_giay(giay); 
.................... //!        if(stepmotor_onoff) 
.................... //!        { 
.................... //!            step_motor_run_tn_fs(); 
.................... //!            delay_ms(stepmotor_delay); 
.................... //!        } 
.................... //!      } 
.................... //!      else tang_giay(); 
.................... //!      phim_on_off(); 
....................        
....................       ds1307_doc_time(8); 
35B2:  MOVLW  08
35B4:  MOVWF  xA3
35B6:  MOVLB  0
35B8:  CALL   0CB8
....................       if(giay_tam!=giay_ds) 
35BC:  MOVF   1D,W
35BE:  MOVLB  4
35C0:  SUBWF  x8A,W
35C2:  BZ    3662
....................       { 
....................          giay_tam=giay_ds; 
35C4:  MOVFF  1D,48A
....................          giay_bin=(giay_ds/16)*10+(giay_ds%16); 
35C8:  SWAPF  1D,W
35CA:  MOVWF  00
35CC:  MOVLW  0F
35CE:  ANDWF  00,F
35D0:  MOVF   00,W
35D2:  MULLW  0A
35D4:  MOVFF  FF3,4A3
35D8:  MOVF   1D,W
35DA:  ANDLW  0F
35DC:  ADDWF  xA3,W
35DE:  MOVWF  x8B
....................          if(giay_ds==0) 
35E0:  MOVF   1D,F
35E2:  BNZ   3644
....................          { 
....................             phut_bin=(phut_ds/16)*10+(phut_ds%16); 
35E4:  SWAPF  1E,W
35E6:  MOVWF  00
35E8:  MOVLW  0F
35EA:  ANDWF  00,F
35EC:  MOVF   00,W
35EE:  MULLW  0A
35F0:  MOVFF  FF3,4A3
35F4:  MOVF   1E,W
35F6:  ANDLW  0F
35F8:  ADDWF  xA3,W
35FA:  MOVWF  x8C
....................             glcd_ve_kim_phut(bkm,phut_bin,1); 
35FC:  MOVLW  11
35FE:  MOVWF  xA3
3600:  CLRF   xA5
3602:  MOVFF  48C,4A4
3606:  MOVLW  01
3608:  MOVWF  xA6
360A:  MOVLB  0
360C:  CALL   25EE
....................              
....................             if(phut_ds==0) 
3610:  MOVF   1E,F
3612:  BNZ   3642
....................             { 
....................                gio_bin=(gio_ds/16)*10+(gio_ds%16); 
3614:  SWAPF  1F,W
3616:  MOVWF  00
3618:  MOVLW  0F
361A:  ANDWF  00,F
361C:  MOVF   00,W
361E:  MULLW  0A
3620:  MOVFF  FF3,4A3
3624:  MOVLB  4
3626:  MOVF   1F,W
3628:  ANDLW  0F
362A:  ADDWF  xA3,W
362C:  MOVWF  x8D
....................                glcd_ve_kim_gio(bkh,gio_bin,1); 
362E:  MOVLW  0D
3630:  MOVWF  xA3
3632:  CLRF   xA5
3634:  MOVFF  48D,4A4
3638:  MOVLW  01
363A:  MOVWF  xA6
363C:  MOVLB  0
363E:  CALL   2882
3642:  MOVLB  4
....................             } 
....................          } 
....................          glcd_ve_kim_giay(bks,giay_bin,1); 
3644:  MOVLW  14
3646:  MOVWF  xA3
3648:  CLRF   xA5
364A:  MOVFF  48B,4A4
364E:  MOVLW  01
3650:  MOVWF  xA6
3652:  MOVLB  0
3654:  CALL   22E4
....................          gdram_vdk_to_gdram_glcd_all(); 
3658:  GOTO   2D36
....................          glcd_dong_ho_so(); 
365C:  GOTO   2E24
3660:  MOVLB  4
....................       } 
....................       phim_on_off(); 
3662:  MOVLB  0
3664:  BRA    3190
....................       dkdc_theo_giay(giay_bin); 
3666:  MOVFF  48B,4A3
366A:  BRA    321A
....................       if(stepmotor_onoff) 
366C:  BTFSS  33.5
366E:  BRA    367A
....................       { 
....................          step_motor_run_tn_fs(); 
3670:  BRA    3344
....................          delay_ms(stepmotor_delay); 
3672:  MOVFF  4F,4B8
3676:  CALL   046E
....................       } 
367A:  BRA    358A
....................    } 
.................... } 
....................  
367C:  SLEEP 

Configuration Fuses:
   Word  1: CC07   PLL12 CPUDIV1 NOUSBDIV HS FCMEN IESO
   Word  2: 1E3E   PUT BROWNOUT BORV21 VREGEN NOWDT WDT32768
   Word  3: 8700   CCP2C1 PBADEN LPT1OSC MCLR
   Word  4: 00A1   STVREN NOLVP ICSP2 NOXINST NODEBUG
   Word  5: C00F   NOPROTECT NOCPB NOCPD
   Word  6: E00F   NOWRT NOWRTC NOWRTB NOWRTD
   Word  7: 400F   NOEBTR NOEBTRB
