CCS PCH C Compiler, Version 5.015, 5967               29-Apr-22 14:57

               Filename:   E:\Downloads\TT VXL THAY PHU\tt_vxl_d501_thay_phu\tt_vxl_d501_thay_phu\bai_631_glcd_dong_ho_kim_giay.lst

               ROM used:   7930 bytes (24%)
                           Largest free fragment is 24838
               RAM used:   1101 (54%) at main() level
                           1181 (58%) worst case
               Stack used: 7 locations
               Stack size: 31

*
0000:  GOTO   1DAC
.................... #include <tv_kit_vdk_pic_all.c> 
.................... //xxxxxxxxxxxxxxxxxxxxxxxxxxxxxxxxxxxxxxxxxxxxxxxxxxxxxxxx 
.................... //NGUYEN DINH PHU SU PHAM KY THUAT TP HCM 
.................... //xxxxxxxxxxxxxxxxxxxxxxxxxxxxxxxxxxxxxxxxxxxxxxxxxxxxxxxx 
.................... #include <tv_00_define_18f4550.c>                                            
.................... //xxxxxxxxxxxxxxxxxxxxxxxxxxxxxxxxxxxxxxxxxxxxxxxxxxxxxxxx 
.................... //NGUYEN DINH PHU SU PHAM KY THUAT TP HCM 
.................... //xxxxxxxxxxxxxxxxxxxxxxxxxxxxxxxxxxxxxxxxxxxxxxxxxxxxxxxx 
....................  
.................... //xxxxxxxxxxxxxxxxxxxxxxxxxxxxxxxxxxxxxxxxxxxxxxxxxxxxxxxx 
.................... //cau hinh vi dieu khien pic        
.................... //xxxxxxxxxxxxxxxxxxxxxxxxxxxxxxxxxxxxxxxxxxxxxxxxxxxxxxxx 
.................... #include <18f4550.h> 
.................... //////////// Standard Header file for the PIC18F4550 device //////////////// 
.................... /////////////////////////////////////////////////////////////////////////// 
.................... ////        (C) Copyright 1996, 2013 Custom Computer Services          //// 
.................... //// This source code may only be used by licensed users of the CCS C  //// 
.................... //// compiler.  This source code may only be distributed to other      //// 
.................... //// licensed users of the CCS C compiler.  No other use, reproduction //// 
.................... //// or distribution is permitted without written permission.          //// 
.................... //// Derivative programs created using this software in object code    //// 
.................... //// form are not restricted in any way.                               //// 
.................... /////////////////////////////////////////////////////////////////////////// 
.................... #device PIC18F4550 
0004:  CLRF   FF7
0006:  ADDLW  14
0008:  MOVWF  FF6
000A:  MOVLW  00
000C:  ADDWFC FF7,F
000E:  TBLRD*+
0010:  MOVF   FF5,W
0012:  RETURN 0
0014:  DATA 00,00
0016:  DATA 00,00
0018:  DATA 00,00
001A:  DATA 00,5F
001C:  DATA 00,00
001E:  DATA 00,03
0020:  DATA 00,03
0022:  DATA 00,14
0024:  DATA 3E,14
0026:  DATA 3E,14
0028:  DATA 24,2A
002A:  DATA 7F,2A
002C:  DATA 12,43
002E:  DATA 33,08
0030:  DATA 66,61
0032:  DATA 36,49
0034:  DATA 55,22
0036:  DATA 50,00
0038:  DATA 05,03
003A:  DATA 00,00
003C:  DATA 00,1C
003E:  DATA 22,41
0040:  DATA 00,00
0042:  DATA 41,22
0044:  DATA 1C,00
0046:  DATA 14,08
0048:  DATA 3E,08
004A:  DATA 14,08
004C:  DATA 08,3E
004E:  DATA 08,08
0050:  DATA 00,50
0052:  DATA 30,00
0054:  DATA 00,08
0056:  DATA 08,08
0058:  DATA 08,08
005A:  DATA 00,60
005C:  DATA 60,00
005E:  DATA 00,20
0060:  DATA 10,08
0062:  DATA 04,02
0064:  DATA 3E,51
0066:  DATA 49,45
0068:  DATA 3E,00
006A:  DATA 04,02
006C:  DATA 7F,00
006E:  DATA 42,61
0070:  DATA 51,49
0072:  DATA 46,22
0074:  DATA 41,49
0076:  DATA 49,36
0078:  DATA 18,14
007A:  DATA 12,7F
007C:  DATA 10,27
007E:  DATA 45,45
0080:  DATA 45,39
0082:  DATA 3E,49
0084:  DATA 49,49
0086:  DATA 32,01
0088:  DATA 01,71
008A:  DATA 09,07
008C:  DATA 36,49
008E:  DATA 49,49
0090:  DATA 36,26
0092:  DATA 49,49
0094:  DATA 49,3E
0096:  DATA 00,36
0098:  DATA 36,00
009A:  DATA 00,00
009C:  DATA 56,36
009E:  DATA 00,00
00A0:  DATA 08,14
00A2:  DATA 22,41
00A4:  DATA 00,14
00A6:  DATA 14,14
00A8:  DATA 14,14
00AA:  DATA 00,41
00AC:  DATA 22,14
00AE:  DATA 08,02
00B0:  DATA 01,51
00B2:  DATA 09,06
00B4:  DATA 3E,41
00B6:  DATA 59,55
00B8:  DATA 5E,7E
00BA:  DATA 09,09
00BC:  DATA 09,7E
00BE:  DATA 7F,49
00C0:  DATA 49,49
00C2:  DATA 36,3E
00C4:  DATA 41,41
00C6:  DATA 41,22
00C8:  DATA 7F,41
00CA:  DATA 41,41
00CC:  DATA 3E,7F
00CE:  DATA 49,49
00D0:  DATA 49,41
00D2:  DATA 7F,09
00D4:  DATA 09,09
00D6:  DATA 01,3E
00D8:  DATA 41,41
00DA:  DATA 49,3A
00DC:  DATA 7F,08
00DE:  DATA 08,08
00E0:  DATA 7F,00
00E2:  DATA 41,7F
00E4:  DATA 41,00
00E6:  DATA 30,40
00E8:  DATA 40,40
00EA:  DATA 3F,7F
00EC:  DATA 08,14
00EE:  DATA 22,41
00F0:  DATA 7F,40
00F2:  DATA 40,40
00F4:  DATA 40,7F
00F6:  DATA 02,0C
00F8:  DATA 02,7F
00FA:  DATA 7F,02
00FC:  DATA 04,08
00FE:  DATA 7F,3E
0100:  DATA 41,41
0102:  DATA 41,3E
0104:  DATA 7F,09
0106:  DATA 09,09
0108:  DATA 06,1E
010A:  DATA 21,21
010C:  DATA 21,5E
010E:  DATA 7F,09
0110:  DATA 09,09
0112:  DATA 76,00
0114:  CLRF   FF7
0116:  ADDLW  24
0118:  MOVWF  FF6
011A:  MOVLW  01
011C:  ADDWFC FF7,F
011E:  TBLRD*+
0120:  MOVF   FF5,W
0122:  RETURN 0
0124:  DATA 26,49
0126:  DATA 49,49
0128:  DATA 32,01
012A:  DATA 01,7F
012C:  DATA 01,01
012E:  DATA 3F,40
0130:  DATA 40,40
0132:  DATA 3F,1F
0134:  DATA 20,40
0136:  DATA 20,1F
0138:  DATA 7F,20
013A:  DATA 10,20
013C:  DATA 7F,41
013E:  DATA 22,1C
0140:  DATA 22,41
0142:  DATA 07,08
0144:  DATA 70,08
0146:  DATA 07,61
0148:  DATA 51,49
014A:  DATA 45,43
014C:  DATA 00,7F
014E:  DATA 41,00
0150:  DATA 00,02
0152:  DATA 04,08
0154:  DATA 10,20
0156:  DATA 00,00
0158:  DATA 41,7F
015A:  DATA 00,04
015C:  DATA 02,01
015E:  DATA 02,04
0160:  DATA 40,40
0162:  DATA 40,40
0164:  DATA 40,00
0166:  DATA 01,02
0168:  DATA 04,00
016A:  DATA 20,54
016C:  DATA 54,54
016E:  DATA 78,7F
0170:  DATA 44,44
0172:  DATA 44,38
0174:  DATA 38,44
0176:  DATA 44,44
0178:  DATA 44,38
017A:  DATA 44,44
017C:  DATA 44,7F
017E:  DATA 38,54
0180:  DATA 54,54
0182:  DATA 18,04
0184:  DATA 04,7E
0186:  DATA 05,05
0188:  DATA 08,54
018A:  DATA 54,54
018C:  DATA 3C,7F
018E:  DATA 08,04
0190:  DATA 04,78
0192:  DATA 00,44
0194:  DATA 7D,40
0196:  DATA 00,20
0198:  DATA 40,44
019A:  DATA 3D,00
019C:  DATA 7F,10
019E:  DATA 28,44
01A0:  DATA 00,00
01A2:  DATA 41,7F
01A4:  DATA 40,00
01A6:  DATA 7C,04
01A8:  DATA 78,04
01AA:  DATA 78,7C
01AC:  DATA 08,04
01AE:  DATA 04,78
01B0:  DATA 38,44
01B2:  DATA 44,44
01B4:  DATA 38,7C
01B6:  DATA 14,14
01B8:  DATA 14,08
01BA:  DATA 08,14
01BC:  DATA 14,14
01BE:  DATA 7C,00
01C0:  DATA 7C,08
01C2:  DATA 04,04
01C4:  DATA 48,54
01C6:  DATA 54,54
01C8:  DATA 20,04
01CA:  DATA 04,3F
01CC:  DATA 44,44
01CE:  DATA 3C,40
01D0:  DATA 40,20
01D2:  DATA 7C,1C
01D4:  DATA 20,40
01D6:  DATA 20,1C
01D8:  DATA 3C,40
01DA:  DATA 30,40
01DC:  DATA 3C,44
01DE:  DATA 28,10
01E0:  DATA 28,44
01E2:  DATA 0C,50
01E4:  DATA 50,50
01E6:  DATA 3C,44
01E8:  DATA 64,54
01EA:  DATA 4C,44
01EC:  DATA 00,08
01EE:  DATA 36,41
01F0:  DATA 41,00
01F2:  DATA 00,7F
01F4:  DATA 00,00
01F6:  DATA 41,41
01F8:  DATA 36,08
01FA:  DATA 00,02
01FC:  DATA 01,02
01FE:  DATA 04,02
0200:  CLRF   FF7
0202:  ADDLW  10
0204:  MOVWF  FF6
0206:  MOVLW  02
0208:  ADDWFC FF7,F
020A:  TBLRD*+
020C:  MOVF   FF5,W
020E:  RETURN 0
0210:  DATA 30,31
0212:  DATA 32,33
0214:  DATA 34,35
0216:  DATA 36,37
0218:  DATA 38,39
021A:  DATA 00,00
021C:  DATA 2E,00
021E:  DATA 4E,4F
0220:  DATA 20,44
0222:  DATA 48,54
0224:  DATA 31,31
0226:  DATA 00,00
0228:  DATA 44,4F
022A:  DATA 43,20
022C:  DATA 53,41
022E:  DATA 49,20
0230:  DATA 44,55
0232:  DATA 20,4C
0234:  DATA 49,45
0236:  DATA 55,20
0238:  DATA 44,48
023A:  DATA 54,31
023C:  DATA 31,00
023E:  DATA 4E,4F
0240:  DATA 20,44
0242:  DATA 53,31
0244:  DATA 38,42
0246:  DATA 32,30
0248:  DATA 00,00
*
041C:  MOVLB  4
041E:  MOVF   x80,W
0420:  MULWF  x82
0422:  MOVFF  FF3,01
0426:  MOVFF  FF4,00
042A:  MULWF  x83
042C:  MOVF   FF3,W
042E:  ADDWF  00,F
0430:  MOVF   x81,W
0432:  MULWF  x82
0434:  MOVF   FF3,W
0436:  ADDWFC 00,W
0438:  MOVWF  02
043A:  MOVLB  0
043C:  RETURN 0
*
0B16:  CLRF   00
0B18:  CLRF   01
0B1A:  MOVLB  4
0B1C:  MOVF   x69,W
0B1E:  BCF    FD8.0
0B20:  BTFSC  x6A.0
0B22:  ADDWF  00,F
0B24:  RRCF   00,F
0B26:  RRCF   01,F
0B28:  BTFSC  x6A.1
0B2A:  ADDWF  00,F
0B2C:  RRCF   00,F
0B2E:  RRCF   01,F
0B30:  BTFSC  x6A.2
0B32:  ADDWF  00,F
0B34:  RRCF   00,F
0B36:  RRCF   01,F
0B38:  BTFSC  x6A.3
0B3A:  ADDWF  00,F
0B3C:  RRCF   00,F
0B3E:  RRCF   01,F
0B40:  BTFSC  x6A.4
0B42:  ADDWF  00,F
0B44:  RRCF   00,F
0B46:  RRCF   01,F
0B48:  BTFSC  x6A.5
0B4A:  ADDWF  00,F
0B4C:  RRCF   00,F
0B4E:  RRCF   01,F
0B50:  BTFSC  x6A.6
0B52:  ADDWF  00,F
0B54:  RRCF   00,F
0B56:  RRCF   01,F
0B58:  BTFSC  x6A.7
0B5A:  ADDWF  00,F
0B5C:  RRCF   00,F
0B5E:  RRCF   01,F
0B60:  MOVLB  0
0B62:  RETURN 0
*
0F4C:  MOVLB  4
0F4E:  MOVF   x54,W
0F50:  XORWF  x56,W
0F52:  ANDLW  80
0F54:  MOVWF  x58
0F56:  BTFSS  x54.7
0F58:  BRA    0F64
0F5A:  COMF   x53,F
0F5C:  COMF   x54,F
0F5E:  INCF   x53,F
0F60:  BTFSC  FD8.2
0F62:  INCF   x54,F
0F64:  BTFSS  x56.7
0F66:  BRA    0F72
0F68:  COMF   x55,F
0F6A:  COMF   x56,F
0F6C:  INCF   x55,F
0F6E:  BTFSC  FD8.2
0F70:  INCF   x56,F
0F72:  MOVF   x53,W
0F74:  MULWF  x55
0F76:  MOVFF  FF3,01
0F7A:  MOVFF  FF4,00
0F7E:  MULWF  x56
0F80:  MOVF   FF3,W
0F82:  ADDWF  00,F
0F84:  MOVF   x54,W
0F86:  MULWF  x55
0F88:  MOVF   FF3,W
0F8A:  ADDWFC 00,W
0F8C:  MOVWF  02
0F8E:  BTFSS  x58.7
0F90:  BRA    0F9C
0F92:  COMF   01,F
0F94:  COMF   02,F
0F96:  INCF   01,F
0F98:  BTFSC  FD8.2
0F9A:  INCF   02,F
0F9C:  MOVLB  0
0F9E:  GOTO   19C0 (RETURN)
0FA2:  MOVLW  8E
0FA4:  MOVWF  00
0FA6:  MOVFF  454,01
0FAA:  MOVFF  453,02
0FAE:  CLRF   03
0FB0:  BTFSS  01.7
0FB2:  BRA    0FBE
0FB4:  COMF   01,F
0FB6:  COMF   02,F
0FB8:  INCF   02,F
0FBA:  BNZ   0FBE
0FBC:  INCF   01,F
0FBE:  MOVF   01,F
0FC0:  BNZ   0FD4
0FC2:  MOVFF  02,01
0FC6:  CLRF   02
0FC8:  MOVLW  08
0FCA:  SUBWF  00,F
0FCC:  MOVF   01,F
0FCE:  BNZ   0FD4
0FD0:  CLRF   00
0FD2:  BRA    0FEE
0FD4:  BCF    FD8.0
0FD6:  BTFSC  01.7
0FD8:  BRA    0FE2
0FDA:  RLCF   02,F
0FDC:  RLCF   01,F
0FDE:  DECF   00,F
0FE0:  BRA    0FD4
0FE2:  MOVLB  4
0FE4:  BTFSS  x54.7
0FE6:  BRA    0FEC
0FE8:  MOVLB  0
0FEA:  BRA    0FEE
0FEC:  BCF    01.7
0FEE:  MOVLB  0
0FF0:  GOTO   19CE (RETURN)
0FF4:  MOVLB  4
0FF6:  MOVF   x8D,W
0FF8:  BTFSC  FD8.2
0FFA:  BRA    10DE
0FFC:  MOVWF  00
0FFE:  MOVF   x91,W
1000:  BTFSC  FD8.2
1002:  BRA    10DE
1004:  ADDWF  00,F
1006:  BNC   1010
1008:  MOVLW  81
100A:  ADDWF  00,F
100C:  BC    10DE
100E:  BRA    1018
1010:  MOVLW  7F
1012:  SUBWF  00,F
1014:  BNC   10DE
1016:  BZ    10DE
1018:  MOVFF  48E,495
101C:  MOVF   x92,W
101E:  XORWF  x95,F
1020:  BSF    x8E.7
1022:  BSF    x92.7
1024:  MOVF   x90,W
1026:  MULWF  x94
1028:  MOVFF  FF4,497
102C:  MOVF   x8F,W
102E:  MULWF  x93
1030:  MOVFF  FF4,03
1034:  MOVFF  FF3,496
1038:  MULWF  x94
103A:  MOVF   FF3,W
103C:  ADDWF  x97,F
103E:  MOVF   FF4,W
1040:  ADDWFC x96,F
1042:  MOVLW  00
1044:  ADDWFC 03,F
1046:  MOVF   x90,W
1048:  MULWF  x93
104A:  MOVF   FF3,W
104C:  ADDWF  x97,F
104E:  MOVF   FF4,W
1050:  ADDWFC x96,F
1052:  MOVLW  00
1054:  CLRF   02
1056:  ADDWFC 03,F
1058:  ADDWFC 02,F
105A:  MOVF   x8E,W
105C:  MULWF  x94
105E:  MOVF   FF3,W
1060:  ADDWF  x96,F
1062:  MOVF   FF4,W
1064:  ADDWFC 03,F
1066:  MOVLW  00
1068:  ADDWFC 02,F
106A:  MOVF   x8E,W
106C:  MULWF  x93
106E:  MOVF   FF3,W
1070:  ADDWF  03,F
1072:  MOVF   FF4,W
1074:  ADDWFC 02,F
1076:  MOVLW  00
1078:  CLRF   01
107A:  ADDWFC 01,F
107C:  MOVF   x90,W
107E:  MULWF  x92
1080:  MOVF   FF3,W
1082:  ADDWF  x96,F
1084:  MOVF   FF4,W
1086:  ADDWFC 03,F
1088:  MOVLW  00
108A:  ADDWFC 02,F
108C:  ADDWFC 01,F
108E:  MOVF   x8F,W
1090:  MULWF  x92
1092:  MOVF   FF3,W
1094:  ADDWF  03,F
1096:  MOVF   FF4,W
1098:  ADDWFC 02,F
109A:  MOVLW  00
109C:  ADDWFC 01,F
109E:  MOVF   x8E,W
10A0:  MULWF  x92
10A2:  MOVF   FF3,W
10A4:  ADDWF  02,F
10A6:  MOVF   FF4,W
10A8:  ADDWFC 01,F
10AA:  INCF   00,F
10AC:  BTFSC  01.7
10AE:  BRA    10BA
10B0:  RLCF   x96,F
10B2:  RLCF   03,F
10B4:  RLCF   02,F
10B6:  RLCF   01,F
10B8:  DECF   00,F
10BA:  MOVLW  00
10BC:  BTFSS  x96.7
10BE:  BRA    10D4
10C0:  INCF   03,F
10C2:  ADDWFC 02,F
10C4:  ADDWFC 01,F
10C6:  MOVF   01,W
10C8:  BNZ   10D4
10CA:  MOVF   02,W
10CC:  BNZ   10D4
10CE:  MOVF   03,W
10D0:  BNZ   10D4
10D2:  INCF   00,F
10D4:  BTFSC  x95.7
10D6:  BSF    01.7
10D8:  BTFSS  x95.7
10DA:  BCF    01.7
10DC:  BRA    10E6
10DE:  CLRF   00
10E0:  CLRF   01
10E2:  CLRF   02
10E4:  CLRF   03
10E6:  MOVLB  0
10E8:  RETURN 0
10EA:  MOVLB  4
10EC:  MOVF   x57,W
10EE:  BTFSC  FD8.2
10F0:  BRA    123C
10F2:  MOVWF  x63
10F4:  MOVF   x5B,W
10F6:  BTFSC  FD8.2
10F8:  BRA    123C
10FA:  SUBWF  x63,F
10FC:  BNC   1108
10FE:  MOVLW  7F
1100:  ADDWF  x63,F
1102:  BTFSC  FD8.0
1104:  BRA    123C
1106:  BRA    1114
1108:  MOVLW  81
110A:  SUBWF  x63,F
110C:  BTFSS  FD8.0
110E:  BRA    123C
1110:  BTFSC  FD8.2
1112:  BRA    123C
1114:  MOVFF  463,00
1118:  CLRF   01
111A:  CLRF   02
111C:  CLRF   03
111E:  CLRF   x62
1120:  MOVFF  458,461
1124:  BSF    x61.7
1126:  MOVFF  459,460
112A:  MOVFF  45A,45F
112E:  MOVLW  19
1130:  MOVWF  x63
1132:  MOVF   x5E,W
1134:  SUBWF  x5F,F
1136:  BC    1152
1138:  MOVLW  01
113A:  SUBWF  x60,F
113C:  BC    1152
113E:  SUBWF  x61,F
1140:  BC    1152
1142:  SUBWF  x62,F
1144:  BC    1152
1146:  INCF   x62,F
1148:  INCF   x61,F
114A:  INCF   x60,F
114C:  MOVF   x5E,W
114E:  ADDWF  x5F,F
1150:  BRA    11A2
1152:  MOVF   x5D,W
1154:  SUBWF  x60,F
1156:  BC    117C
1158:  MOVLW  01
115A:  SUBWF  x61,F
115C:  BC    117C
115E:  SUBWF  x62,F
1160:  BC    117C
1162:  INCF   x62,F
1164:  INCF   x61,F
1166:  MOVF   x5D,W
1168:  ADDWF  x60,F
116A:  MOVF   x5E,W
116C:  ADDWF  x5F,F
116E:  BNC   11A2
1170:  INCF   x60,F
1172:  BNZ   11A2
1174:  INCF   x61,F
1176:  BNZ   11A2
1178:  INCF   x62,F
117A:  BRA    11A2
117C:  MOVF   x5C,W
117E:  IORLW  80
1180:  SUBWF  x61,F
1182:  BC    11A0
1184:  MOVLW  01
1186:  SUBWF  x62,F
1188:  BC    11A0
118A:  INCF   x62,F
118C:  MOVF   x5C,W
118E:  IORLW  80
1190:  ADDWF  x61,F
1192:  MOVF   x5D,W
1194:  ADDWF  x60,F
1196:  BNC   116A
1198:  INCF   x61,F
119A:  BNZ   116A
119C:  INCF   x62,F
119E:  BRA    116A
11A0:  BSF    03.0
11A2:  DECFSZ x63,F
11A4:  BRA    11A8
11A6:  BRA    11BE
11A8:  BCF    FD8.0
11AA:  RLCF   x5F,F
11AC:  RLCF   x60,F
11AE:  RLCF   x61,F
11B0:  RLCF   x62,F
11B2:  BCF    FD8.0
11B4:  RLCF   03,F
11B6:  RLCF   02,F
11B8:  RLCF   01,F
11BA:  RLCF   x64,F
11BC:  BRA    1132
11BE:  BTFSS  x64.0
11C0:  BRA    11CE
11C2:  BCF    FD8.0
11C4:  RRCF   01,F
11C6:  RRCF   02,F
11C8:  RRCF   03,F
11CA:  RRCF   x64,F
11CC:  BRA    11D2
11CE:  DECF   00,F
11D0:  BZ    123C
11D2:  BTFSC  x64.7
11D4:  BRA    1212
11D6:  BCF    FD8.0
11D8:  RLCF   x5F,F
11DA:  RLCF   x60,F
11DC:  RLCF   x61,F
11DE:  RLCF   x62,F
11E0:  MOVF   x5E,W
11E2:  SUBWF  x5F,F
11E4:  BC    11F4
11E6:  MOVLW  01
11E8:  SUBWF  x60,F
11EA:  BC    11F4
11EC:  SUBWF  x61,F
11EE:  BC    11F4
11F0:  SUBWF  x62,F
11F2:  BNC   1228
11F4:  MOVF   x5D,W
11F6:  SUBWF  x60,F
11F8:  BC    1204
11FA:  MOVLW  01
11FC:  SUBWF  x61,F
11FE:  BC    1204
1200:  SUBWF  x62,F
1202:  BNC   1228
1204:  MOVF   x5C,W
1206:  IORLW  80
1208:  SUBWF  x61,F
120A:  BC    1212
120C:  MOVLW  01
120E:  SUBWF  x62,F
1210:  BNC   1228
1212:  INCF   03,F
1214:  BNZ   1228
1216:  INCF   02,F
1218:  BNZ   1228
121A:  INCF   01,F
121C:  BNZ   1228
121E:  INCF   00,F
1220:  BZ    123C
1222:  RRCF   01,F
1224:  RRCF   02,F
1226:  RRCF   03,F
1228:  MOVFF  458,463
122C:  MOVF   x5C,W
122E:  XORWF  x63,F
1230:  BTFSS  x63.7
1232:  BRA    1238
1234:  BSF    01.7
1236:  BRA    1244
1238:  BCF    01.7
123A:  BRA    1244
123C:  CLRF   00
123E:  CLRF   01
1240:  CLRF   02
1242:  CLRF   03
1244:  MOVLB  0
1246:  RETURN 0
1248:  MOVFF  48A,491
124C:  MOVLB  4
124E:  MOVF   x8E,W
1250:  XORWF  x91,F
1252:  BTFSS  x91.7
1254:  BRA    1260
1256:  BCF    FD8.2
1258:  BCF    FD8.0
125A:  BTFSC  x8A.7
125C:  BSF    FD8.0
125E:  BRA    12BE
1260:  MOVFF  48A,491
1264:  MOVFF  48D,492
1268:  MOVF   x89,W
126A:  SUBWF  x92,F
126C:  BZ    127A
126E:  BTFSS  x91.7
1270:  BRA    12BE
1272:  MOVF   FD8,W
1274:  XORLW  01
1276:  MOVWF  FD8
1278:  BRA    12BE
127A:  MOVFF  48E,492
127E:  MOVF   x8A,W
1280:  SUBWF  x92,F
1282:  BZ    1290
1284:  BTFSS  x91.7
1286:  BRA    12BE
1288:  MOVF   FD8,W
128A:  XORLW  01
128C:  MOVWF  FD8
128E:  BRA    12BE
1290:  MOVFF  48F,492
1294:  MOVF   x8B,W
1296:  SUBWF  x92,F
1298:  BZ    12A6
129A:  BTFSS  x91.7
129C:  BRA    12BE
129E:  MOVF   FD8,W
12A0:  XORLW  01
12A2:  MOVWF  FD8
12A4:  BRA    12BE
12A6:  MOVFF  490,492
12AA:  MOVF   x8C,W
12AC:  SUBWF  x92,F
12AE:  BZ    12BC
12B0:  BTFSS  x91.7
12B2:  BRA    12BE
12B4:  MOVF   FD8,W
12B6:  XORLW  01
12B8:  MOVWF  FD8
12BA:  BRA    12BE
12BC:  BCF    FD8.0
12BE:  MOVLB  0
12C0:  GOTO   1622 (RETURN)
12C4:  MOVLW  8E
12C6:  MOVWF  00
12C8:  MOVLB  4
12CA:  MOVF   x89,W
12CC:  SUBWF  00,F
12CE:  MOVFF  48A,02
12D2:  MOVFF  48B,01
12D6:  BSF    02.7
12D8:  MOVF   00,F
12DA:  BZ    12EE
12DC:  BCF    FD8.0
12DE:  MOVF   02,F
12E0:  BNZ   12E6
12E2:  MOVF   01,F
12E4:  BZ    12EE
12E6:  RRCF   02,F
12E8:  RRCF   01,F
12EA:  DECFSZ 00,F
12EC:  BRA    12DC
12EE:  BTFSS  x8A.7
12F0:  BRA    12FC
12F2:  COMF   01,F
12F4:  COMF   02,F
12F6:  INCF   01,F
12F8:  BTFSC  FD8.2
12FA:  INCF   02,F
12FC:  MOVLB  0
12FE:  RETURN 0
1300:  MOVLW  8E
1302:  MOVWF  00
1304:  MOVFF  48E,01
1308:  MOVFF  48D,02
130C:  CLRF   03
130E:  MOVF   01,F
1310:  BNZ   1324
1312:  MOVFF  02,01
1316:  CLRF   02
1318:  MOVLW  08
131A:  SUBWF  00,F
131C:  MOVF   01,F
131E:  BNZ   1324
1320:  CLRF   00
1322:  BRA    1334
1324:  BCF    FD8.0
1326:  BTFSC  01.7
1328:  BRA    1332
132A:  RLCF   02,F
132C:  RLCF   01,F
132E:  DECF   00,F
1330:  BRA    1324
1332:  BCF    01.7
1334:  RETURN 0
1336:  MOVLW  80
1338:  BTFSS  FD8.1
133A:  BRA    1340
133C:  MOVLB  4
133E:  XORWF  x92,F
1340:  MOVLB  4
1342:  CLRF   x97
1344:  CLRF   x98
1346:  MOVFF  48E,496
134A:  MOVF   x92,W
134C:  XORWF  x96,F
134E:  MOVF   x8D,W
1350:  BTFSC  FD8.2
1352:  BRA    1512
1354:  MOVWF  x95
1356:  MOVWF  00
1358:  MOVF   x91,W
135A:  BTFSC  FD8.2
135C:  BRA    1524
135E:  SUBWF  x95,F
1360:  BTFSC  FD8.2
1362:  BRA    146A
1364:  BNC   13E2
1366:  MOVFF  492,49B
136A:  BSF    x9B.7
136C:  MOVFF  493,49A
1370:  MOVFF  494,499
1374:  CLRF   x98
1376:  BCF    FD8.0
1378:  RRCF   x9B,F
137A:  RRCF   x9A,F
137C:  RRCF   x99,F
137E:  RRCF   x98,F
1380:  DECFSZ x95,F
1382:  BRA    1374
1384:  BTFSS  x96.7
1386:  BRA    138E
1388:  BSF    x97.0
138A:  BRA    154C
138C:  BCF    x97.0
138E:  BCF    x95.0
1390:  BSF    x97.4
1392:  MOVLW  04
1394:  MOVWF  FEA
1396:  MOVLW  90
1398:  MOVWF  FE9
139A:  BRA    1572
139C:  BCF    x97.4
139E:  BTFSC  x96.7
13A0:  BRA    13B6
13A2:  BTFSS  x95.0
13A4:  BRA    13CC
13A6:  RRCF   x9B,F
13A8:  RRCF   x9A,F
13AA:  RRCF   x99,F
13AC:  RRCF   x98,F
13AE:  INCF   00,F
13B0:  BTFSC  FD8.2
13B2:  BRA    1542
13B4:  BRA    13CC
13B6:  BTFSC  x9B.7
13B8:  BRA    13D2
13BA:  BCF    FD8.0
13BC:  RLCF   x98,F
13BE:  RLCF   x99,F
13C0:  RLCF   x9A,F
13C2:  RLCF   x9B,F
13C4:  DECF   00,F
13C6:  BTFSC  FD8.2
13C8:  BRA    1542
13CA:  BRA    13B6
13CC:  BSF    x97.6
13CE:  BRA    14AA
13D0:  BCF    x97.6
13D2:  MOVFF  48E,496
13D6:  BTFSS  x8E.7
13D8:  BRA    13DE
13DA:  BSF    x9B.7
13DC:  BRA    1534
13DE:  BCF    x9B.7
13E0:  BRA    1534
13E2:  MOVFF  491,495
13E6:  MOVFF  491,00
13EA:  MOVF   x8D,W
13EC:  SUBWF  x95,F
13EE:  MOVFF  48E,49B
13F2:  BSF    x9B.7
13F4:  MOVFF  48F,49A
13F8:  MOVFF  490,499
13FC:  CLRF   x98
13FE:  BCF    FD8.0
1400:  RRCF   x9B,F
1402:  RRCF   x9A,F
1404:  RRCF   x99,F
1406:  RRCF   x98,F
1408:  DECFSZ x95,F
140A:  BRA    13FC
140C:  BTFSS  x96.7
140E:  BRA    1416
1410:  BSF    x97.1
1412:  BRA    154C
1414:  BCF    x97.1
1416:  BCF    x95.0
1418:  BSF    x97.5
141A:  MOVLW  04
141C:  MOVWF  FEA
141E:  MOVLW  94
1420:  MOVWF  FE9
1422:  BRA    1572
1424:  BCF    x97.5
1426:  BTFSC  x96.7
1428:  BRA    143E
142A:  BTFSS  x95.0
142C:  BRA    1454
142E:  RRCF   x9B,F
1430:  RRCF   x9A,F
1432:  RRCF   x99,F
1434:  RRCF   x98,F
1436:  INCF   00,F
1438:  BTFSC  FD8.2
143A:  BRA    1542
143C:  BRA    1454
143E:  BTFSC  x9B.7
1440:  BRA    145A
1442:  BCF    FD8.0
1444:  RLCF   x98,F
1446:  RLCF   x99,F
1448:  RLCF   x9A,F
144A:  RLCF   x9B,F
144C:  DECF   00,F
144E:  BTFSC  FD8.2
1450:  BRA    1542
1452:  BRA    143E
1454:  BSF    x97.7
1456:  BRA    14AA
1458:  BCF    x97.7
145A:  MOVFF  492,496
145E:  BTFSS  x92.7
1460:  BRA    1466
1462:  BSF    x9B.7
1464:  BRA    1534
1466:  BCF    x9B.7
1468:  BRA    1534
146A:  MOVFF  492,49B
146E:  BSF    x9B.7
1470:  MOVFF  493,49A
1474:  MOVFF  494,499
1478:  BTFSS  x96.7
147A:  BRA    1484
147C:  BCF    x9B.7
147E:  BSF    x97.2
1480:  BRA    154C
1482:  BCF    x97.2
1484:  CLRF   x98
1486:  BCF    x95.0
1488:  MOVLW  04
148A:  MOVWF  FEA
148C:  MOVLW  90
148E:  MOVWF  FE9
1490:  BRA    1572
1492:  BTFSC  x96.7
1494:  BRA    14CE
1496:  MOVFF  48E,496
149A:  BTFSS  x95.0
149C:  BRA    14AA
149E:  RRCF   x9B,F
14A0:  RRCF   x9A,F
14A2:  RRCF   x99,F
14A4:  RRCF   x98,F
14A6:  INCF   00,F
14A8:  BZ    1542
14AA:  BTFSS  x98.7
14AC:  BRA    14C4
14AE:  INCF   x99,F
14B0:  BNZ   14C4
14B2:  INCF   x9A,F
14B4:  BNZ   14C4
14B6:  INCF   x9B,F
14B8:  BNZ   14C4
14BA:  RRCF   x9B,F
14BC:  RRCF   x9A,F
14BE:  RRCF   x99,F
14C0:  INCF   00,F
14C2:  BZ    1542
14C4:  BTFSC  x97.6
14C6:  BRA    13D0
14C8:  BTFSC  x97.7
14CA:  BRA    1458
14CC:  BRA    1506
14CE:  MOVLW  80
14D0:  XORWF  x9B,F
14D2:  BTFSS  x9B.7
14D4:  BRA    14DE
14D6:  BRA    154C
14D8:  MOVFF  492,496
14DC:  BRA    14F2
14DE:  MOVFF  48E,496
14E2:  MOVF   x9B,F
14E4:  BNZ   14F2
14E6:  MOVF   x9A,F
14E8:  BNZ   14F2
14EA:  MOVF   x99,F
14EC:  BNZ   14F2
14EE:  CLRF   00
14F0:  BRA    1534
14F2:  BTFSC  x9B.7
14F4:  BRA    1506
14F6:  BCF    FD8.0
14F8:  RLCF   x98,F
14FA:  RLCF   x99,F
14FC:  RLCF   x9A,F
14FE:  RLCF   x9B,F
1500:  DECFSZ 00,F
1502:  BRA    14F2
1504:  BRA    1542
1506:  BTFSS  x96.7
1508:  BRA    150E
150A:  BSF    x9B.7
150C:  BRA    1534
150E:  BCF    x9B.7
1510:  BRA    1534
1512:  MOVFF  491,00
1516:  MOVFF  492,49B
151A:  MOVFF  493,49A
151E:  MOVFF  494,499
1522:  BRA    1534
1524:  MOVFF  48D,00
1528:  MOVFF  48E,49B
152C:  MOVFF  48F,49A
1530:  MOVFF  490,499
1534:  MOVFF  49B,01
1538:  MOVFF  49A,02
153C:  MOVFF  499,03
1540:  BRA    15AA
1542:  CLRF   00
1544:  CLRF   01
1546:  CLRF   02
1548:  CLRF   03
154A:  BRA    15AA
154C:  CLRF   x98
154E:  COMF   x99,F
1550:  COMF   x9A,F
1552:  COMF   x9B,F
1554:  COMF   x98,F
1556:  INCF   x98,F
1558:  BNZ   1564
155A:  INCF   x99,F
155C:  BNZ   1564
155E:  INCF   x9A,F
1560:  BNZ   1564
1562:  INCF   x9B,F
1564:  BTFSC  x97.0
1566:  BRA    138C
1568:  BTFSC  x97.1
156A:  BRA    1414
156C:  BTFSC  x97.2
156E:  BRA    1482
1570:  BRA    14D8
1572:  MOVF   FEF,W
1574:  ADDWF  x99,F
1576:  BNC   1582
1578:  INCF   x9A,F
157A:  BNZ   1582
157C:  INCF   x9B,F
157E:  BTFSC  FD8.2
1580:  BSF    x95.0
1582:  MOVF   FED,F
1584:  MOVF   FEF,W
1586:  ADDWF  x9A,F
1588:  BNC   1590
158A:  INCF   x9B,F
158C:  BTFSC  FD8.2
158E:  BSF    x95.0
1590:  MOVF   FED,F
1592:  MOVF   FEF,W
1594:  BTFSC  FEF.7
1596:  BRA    159A
1598:  XORLW  80
159A:  ADDWF  x9B,F
159C:  BTFSC  FD8.0
159E:  BSF    x95.0
15A0:  BTFSC  x97.4
15A2:  BRA    139C
15A4:  BTFSC  x97.5
15A6:  BRA    1424
15A8:  BRA    1492
15AA:  MOVLB  0
15AC:  RETURN 0
....................  
.................... #list 
....................  
.................... #device  adc=10 
.................... #fuses   nowdt,put,hs,noprotect,nolvp,cpudiv1,NOUSBDIV,     
.................... #use     delay(clock=20000000)                                                       
*
039C:  MOVLW  04
039E:  MOVWF  FEA
03A0:  MOVLW  61
03A2:  MOVWF  FE9
03A4:  MOVF   FEF,W
03A6:  BZ    03C2
03A8:  MOVLW  06
03AA:  MOVWF  01
03AC:  CLRF   00
03AE:  DECFSZ 00,F
03B0:  BRA    03AE
03B2:  DECFSZ 01,F
03B4:  BRA    03AC
03B6:  MOVLW  7B
03B8:  MOVWF  00
03BA:  DECFSZ 00,F
03BC:  BRA    03BA
03BE:  DECFSZ FEF,F
03C0:  BRA    03A8
03C2:  RETURN 0
.................... #use     i2c(master,slow,sda=pin_b0,scl=pin_b1)       
*
04B8:  MOVLW  08
04BA:  MOVWF  01
04BC:  MOVLW  05
04BE:  MOVWF  00
04C0:  DECFSZ 00,F
04C2:  BRA    04C0
04C4:  BCF    F8A.1
04C6:  BCF    F93.1
04C8:  MOVLW  06
04CA:  MOVWF  00
04CC:  DECFSZ 00,F
04CE:  BRA    04CC
04D0:  MOVLB  4
04D2:  RLCF   x4F,F
04D4:  BCF    F8A.0
04D6:  BTFSC  FD8.0
04D8:  BSF    F93.0
04DA:  BTFSS  FD8.0
04DC:  BCF    F93.0
04DE:  BSF    F93.1
04E0:  BTFSS  F81.1
04E2:  BRA    04E0
04E4:  DECFSZ 01,F
04E6:  BRA    04EA
04E8:  BRA    04EE
04EA:  MOVLB  0
04EC:  BRA    04BC
04EE:  MOVLW  05
04F0:  MOVWF  00
04F2:  DECFSZ 00,F
04F4:  BRA    04F2
04F6:  BCF    F8A.1
04F8:  BCF    F93.1
04FA:  NOP   
04FC:  BSF    F93.0
04FE:  MOVLW  06
0500:  MOVWF  00
0502:  DECFSZ 00,F
0504:  BRA    0502
0506:  MOVLW  06
0508:  MOVWF  00
050A:  DECFSZ 00,F
050C:  BRA    050A
050E:  BSF    F93.1
0510:  BTFSS  F81.1
0512:  BRA    0510
0514:  CLRF   01
0516:  MOVLW  06
0518:  MOVWF  00
051A:  DECFSZ 00,F
051C:  BRA    051A
051E:  BTFSC  F81.0
0520:  BSF    01.0
0522:  BCF    F8A.1
0524:  BCF    F93.1
0526:  BCF    F8A.0
0528:  BCF    F93.0
052A:  MOVLB  0
052C:  RETURN 0
052E:  MOVLW  08
0530:  MOVLB  4
0532:  MOVWF  x51
0534:  MOVFF  00,452
0538:  BSF    F93.0
053A:  MOVLW  06
053C:  MOVWF  00
053E:  DECFSZ 00,F
0540:  BRA    053E
0542:  BSF    F93.1
0544:  BTFSS  F81.1
0546:  BRA    0544
0548:  BTFSC  F81.0
054A:  BSF    FD8.0
054C:  BTFSS  F81.0
054E:  BCF    FD8.0
0550:  RLCF   01,F
0552:  MOVLW  05
0554:  MOVWF  00
0556:  DECFSZ 00,F
0558:  BRA    0556
055A:  BCF    F93.1
055C:  BCF    F8A.1
055E:  DECFSZ x51,F
0560:  BRA    0538
0562:  BSF    F93.0
0564:  MOVLW  06
0566:  MOVWF  00
0568:  DECFSZ 00,F
056A:  BRA    0568
056C:  BCF    F8A.0
056E:  MOVF   x52,W
0570:  BTFSS  FD8.2
0572:  BCF    F93.0
0574:  NOP   
0576:  BSF    F93.1
0578:  BTFSS  F81.1
057A:  BRA    0578
057C:  MOVLW  05
057E:  MOVWF  00
0580:  DECFSZ 00,F
0582:  BRA    0580
0584:  BCF    F8A.1
0586:  BCF    F93.1
0588:  MOVLW  06
058A:  MOVWF  00
058C:  DECFSZ 00,F
058E:  BRA    058C
0590:  BCF    F8A.0
0592:  BCF    F93.0
0594:  MOVLB  0
0596:  RETURN 0
.................... #use     rs232(baud=9600, xmit=pin_c6,rcv=pin_c7)     
.................... //xxxxxxxxxxxxxxxxxxxxxxxxxxxxxxxxxxxxxxxxxxxxxxxxxxxxxxxx    
.................... //dinh nghia lai ten cac kieu du lieu cho gon 
.................... //xxxxxxxxxxxxxxxxxxxxxxxxxxxxxxxxxxxxxxxxxxxxxxxxxxxxxxxx 
.................... #define usi8  unsigned int8      
.................... #define usi16 unsigned int16                           
.................... #define usi32 unsigned int32                                                                     
.................... #define si8   signed   int8                                 
.................... #define si16  signed   int16  
.................... #define si32  signed   int32 
.................... //xxxxxxxxxxxxxxxxxxxxxxxxxxxxxxxxxxxxxxxxxxxxxxxxxxxxxxxx 
.................... //dinh nghia 1 so tu thuong dung 
.................... //xxxxxxxxxxxxxxxxxxxxxxxxxxxxxxxxxxxxxxxxxxxxxxxxxxxxxxxx 
.................... #define co_reset true 
.................... #define no_reset false  
....................  
.................... #define tt_on    1           
.................... #define tt_off   0                     
.................... #define enable   1                         
.................... #define disable  0 
.................... #define sang     1           
.................... #define tat      0   
.................... #define tat_l7d  0xff      
.................... #define cx_vn    true     //co xoa so 0 vo nghia         
.................... #define kx_vn    false    //khong xoa so 0 vo nghia           
.................... #define co_fill  true 
.................... #define no_fill  false  
.................... #define c_reset  1           
.................... #define k_reset  0                                          
.................... //xxxxxxxxxxxxxxxxxxxxxxxxxxxxxxxxxxxxxxxxxxxxxxxxxxxxxxxx 
.................... //dinh nghia ten cho 4 nut nhan  
.................... //xxxxxxxxxxxxxxxxxxxxxxxxxxxxxxxxxxxxxxxxxxxxxxxxxxxxxxxx 
.................... #ifndef bt0 
.................... #define bt0    pin_b5 
.................... #endif  
....................  
.................... #ifndef bt1     
.................... #define bt1    pin_b4 
.................... #endif  
....................                    
.................... #ifndef bt2     
.................... #define bt2    pin_b3 
.................... #endif  
....................  
.................... #ifndef bt3 
.................... #define bt3    pin_b2 
.................... #endif  
....................  
.................... #define on     bt0    //dk led don, motor  
.................... #define off    bt1 
.................... #define inv    bt2 
....................                                 
.................... #define up     bt0    //dk led don 
.................... #define mod    bt1 
.................... #define dw     bt2 
.................... #define clr    bt3 
....................  
.................... #define stop   bt1 
....................  
.................... #define on1    bt0      
.................... #define off1   bt1 
.................... #define on2    bt2        
.................... #define off2   bt3              
.................... //xxxxxxxxxxxxxxxxxxxxxxxxxxxxxxxxxxxxxxxxxxxxxxxxxxxxxxxx   
.................... //dinh nghia port giao tiep cam bien sieu am hcsr-04  
.................... //xxxxxxxxxxxxxxxxxxxxxxxxxxxxxxxxxxxxxxxxxxxxxxxxxxxxxxxx   
.................... #define trig   pin_e1            
.................... #define echo   pin_a3                  
.................... //xxxxxxxxxxxxxxxxxxxxxxxxxxxxxxxxxxxxxxxxxxxxxxxxxxxxxxxx   
.................... //dinh nghia port giao tiep CB nhiet va do am 1 day DHT11    
.................... //xxxxxxxxxxxxxxxxxxxxxxxxxxxxxxxxxxxxxxxxxxxxxxxxxxxxxxxx   
.................... #define dht11 pin_d1 
.................... //xxxxxxxxxxxxxxxxxxxxxxxxxxxxxxxxxxxxxxxxxxxxxxxxxxxxxxxx   
.................... //dinh nghia port giao tiep noi tiep 6 module 
.................... //xxxxxxxxxxxxxxxxxxxxxxxxxxxxxxxxxxxxxxxxxxxxxxxxxxxxxxxx                                        
.................... #define ssdo      pin_e2          
.................... #define ssck      pin_e0          
....................  
.................... #define rck_mtl   pin_d7 
.................... #define rck_4l7d  pin_d6           
.................... #define rck_8l7dq pin_d5         
.................... #define rck_32led pin_d4 
.................... #define rck_rlb   pin_d3              
.................... #define rck_lcd   pin_d2          
....................  
.................... #define g_all     pin_d0           
....................   
.................... //xxxxxxxxxxxxxxxxxxxxxxxxxxxxxxxxxxxxxxxxxxxxxxxxxxxxxxxx  
.................... //khai bao  module relay, triac, buzzer, dong co 
.................... //xxxxxxxxxxxxxxxxxxxxxxxxxxxxxxxxxxxxxxxxxxxxxxxxxxxxxxxx  
.................... unsigned int16 rbdc;                           
.................... #bit step_motor_enable = rbdc.0     
.................... #bit step_motor_in1    = rbdc.1     
.................... #bit step_motor_in2    = rbdc.2 
.................... #bit step_motor_in3    = rbdc.3 
.................... #bit step_motor_in4    = rbdc.4 
.................... #bit dc_enable         = rbdc.5     
.................... #bit pwrkey            = rbdc.6     
....................  
.................... #bit buzzer            = rbdc.8    //1=on,0=off 
.................... #bit triac_1           = rbdc.9    //1=on,0=off 
.................... #bit triac_2           = rbdc.10   //1=on,0=off 
.................... #bit relay_1           = rbdc.11   //0=on,1=off 
.................... #bit relay_2           = rbdc.12   //0=on,1=off       
....................  
.................... //xxxxxxxxxxxxxxxxxxxxxxxxxxxxxxxxxxxxxxxxxxxxxxxxxxxxxxxx  
.................... //Khai bao mang chua 16 ma 7 doan tu 0 den F 
.................... //xxxxxxxxxxxxxxxxxxxxxxxxxxxxxxxxxxxxxxxxxxxxxxxxxxxxxxxx   
.................... const unsigned char ma7doan[16]= { 
....................    0xc0,0xf9,0xa4,0xb0,0x99,0x92,0x82,0xf8,         
....................    0x80,0x90,0x88,0x83,0xc6,0xa1,0x86,0x8e}; 
.................... #define     maso0    0xc0 
....................  
.................... //xxxxxxxxxxxxxxxxxxxxxxxxxxxxxxxxxxxxxxxxxxxxxxxxxxxxxxxx  
.................... //ham 102: xuat 1 byte ra thanh ghi dich 
.................... //xxxxxxxxxxxxxxxxxxxxxxxxxxxxxxxxxxxxxxxxxxxxxxxxxxxxxxxx     
.................... void xuat_1byte(unsigned int8 x) 
.................... { 
....................    unsigned int8   sb;    
....................    #bit msb  = x.7;   
....................    for (sb=0;sb<8;sb++) 
*
024A:  MOVLB  4
024C:  CLRF   x66
024E:  MOVF   x66,W
0250:  SUBLW  07
0252:  BNC   0270
....................    {                                                  
....................       output_bit(ssdo,msb);     
0254:  BTFSC  x65.7
0256:  BRA    025C
0258:  BCF    F8D.2
025A:  BRA    025E
025C:  BSF    F8D.2
025E:  BCF    F96.2
....................       output_low(ssck); output_high(ssck); 
0260:  BCF    F96.0
0262:  BCF    F8D.0
0264:  BCF    F96.0
0266:  BSF    F8D.0
....................       x= x<<1;          
0268:  BCF    FD8.0
026A:  RLCF   x65,F
026C:  INCF   x66,F
026E:  BRA    024E
....................    } 
0270:  MOVLB  0
0272:  RETURN 0
.................... }  
.................... //xxxxxxxxxxxxxxxxxxxxxxxxxxxxxxxxxxxxxxxxxxxxxxxxxxxxxxxx     
.................... //ham 103: xuat 1 word ra thanh ghi dich 
.................... //xxxxxxxxxxxxxxxxxxxxxxxxxxxxxxxxxxxxxxxxxxxxxxxxxxxxxxxx     
.................... void xuat_1word(unsigned int16 w) 
.................... {   
....................    unsigned int8 b1,b0; 
....................    b1 = w>>8; b0 = w; 
0274:  MOVFF  44D,44E
0278:  MOVFF  44C,44F
....................    xuat_1byte(b1);     
027C:  MOVFF  44E,465
0280:  RCALL  024A
....................    xuat_1byte(b0); 
0282:  MOVFF  44F,465
0286:  RCALL  024A
0288:  RETURN 0
.................... }    
....................                                 
.................... //xxxxxxxxxxxxxxxxxxxxxxxxxxxxxxxxxxxxxxxxxxxxxxxxxxxxxxxx      
.................... //ham 104: xoa cac module  
.................... //xxxxxxxxxxxxxxxxxxxxxxxxxxxxxxxxxxxxxxxxxxxxxxxxxxxxxxxx   
.................... void xoa_tat_6module()                           
.................... {                                                                                               
....................    xuat_1word(0);                              
028A:  MOVLB  4
028C:  CLRF   x4D
028E:  CLRF   x4C
0290:  MOVLB  0
0292:  RCALL  0274
....................    xuat_1word(0);  
0294:  MOVLB  4
0296:  CLRF   x4D
0298:  CLRF   x4C
029A:  MOVLB  0
029C:  RCALL  0274
....................    xuat_1word(0);                              
029E:  MOVLB  4
02A0:  CLRF   x4D
02A2:  CLRF   x4C
02A4:  MOVLB  0
02A6:  RCALL  0274
....................    xuat_1word(0);                                     
02A8:  MOVLB  4
02AA:  CLRF   x4D
02AC:  CLRF   x4C
02AE:  MOVLB  0
02B0:  RCALL  0274
....................     
....................    output_high(rck_rlb);    
02B2:  BCF    F95.3
02B4:  BSF    F8C.3
....................    output_low(rck_rlb); 
02B6:  BCF    F95.3
02B8:  BCF    F8C.3
....................     
....................    output_high(rck_32led); 
02BA:  BCF    F95.4
02BC:  BSF    F8C.4
....................    output_low(rck_32led);  
02BE:  BCF    F95.4
02C0:  BCF    F8C.4
....................     
....................    output_high(rck_8l7dq);    
02C2:  BCF    F95.5
02C4:  BSF    F8C.5
....................    output_low(rck_8l7dq);    
02C6:  BCF    F95.5
02C8:  BCF    F8C.5
....................                                   
....................    output_high(rck_mtl);           
02CA:  BCF    F95.7
02CC:  BSF    F8C.7
....................    output_low(rck_mtl);    
02CE:  BCF    F95.7
02D0:  BCF    F8C.7
....................                             
....................    output_high(rck_lcd);    
02D2:  BCF    F95.2
02D4:  BSF    F8C.2
....................    output_low(rck_lcd);       
02D6:  BCF    F95.2
02D8:  BCF    F8C.2
....................                                                                            
....................    xuat_1word(0xffff);  
02DA:  MOVLB  4
02DC:  SETF   x4D
02DE:  SETF   x4C
02E0:  MOVLB  0
02E2:  RCALL  0274
....................    xuat_1word(0xffff);  
02E4:  MOVLB  4
02E6:  SETF   x4D
02E8:  SETF   x4C
02EA:  MOVLB  0
02EC:  RCALL  0274
....................    output_high(rck_4l7d);        
02EE:  BCF    F95.6
02F0:  BSF    F8C.6
....................    output_low(rck_4l7d);                                                                       
02F2:  BCF    F95.6
02F4:  BCF    F8C.6
02F6:  GOTO   0312 (RETURN)
.................... }              
....................  
.................... //xxxxxxxxxxxxxxxxxxxxxxxxxxxxxxxxxxxxxxxxxxxx     
.................... //ham 101: ham khoi tao cac port va ic chot 
.................... //xxxxxxxxxxxxxxxxxxxxxxxxxxxxxxxxxxxxxxxxxxxx     
.................... void set_up_port()                                   
.................... {                             
....................    set_tris_a(0xff);    set_tris_b(0x3c);                                                    
02FA:  MOVLW  FF
02FC:  MOVWF  F92
02FE:  MOVLW  3C
0300:  MOVWF  F93
....................    set_tris_c(0xf1);    set_tris_e(0x00);                                                
0302:  MOVLW  F1
0304:  MOVWF  F94
0306:  MOVLW  00
0308:  MOVWF  F96
....................    set_tris_d(0x00);     
030A:  MOVWF  F95
....................    output_d(0x00);  
030C:  CLRF   F95
030E:  CLRF   F8C
....................    xoa_tat_6module(); 
0310:  BRA    028A
....................    port_b_pullups(0xff);           
0312:  BCF    FF1.7
....................    rbdc=0;                
0314:  CLRF   05
0316:  CLRF   04
....................              
....................    setup_adc(adc_clock_div_32);         
0318:  MOVF   FC0,W
031A:  ANDLW  C0
031C:  IORLW  02
031E:  MOVWF  FC0
0320:  BSF    FC0.7
0322:  BSF    FC2.0
....................    setup_adc_ports(an0_to_an2|vss_vdd);  
0324:  MOVF   FC1,W
0326:  ANDLW  C0
0328:  IORLW  0C
032A:  MOVWF  FC1
....................    output_low(g_all);         
032C:  BCF    F95.0
032E:  BCF    F8C.0
0330:  GOTO   1E3A (RETURN)
.................... } 
....................  //xxxxxxxxxxxxxxxxxxxxxxxxxxxxxxxxxxxxxxxxxxxxxxxxxxxxxxxx      
.................... //xuat 1 bit roi tra lai ket qua sau khi dich di 1 bit 
.................... //xxxxxxxxxxxxxxxxxxxxxxxxxxxxxxxxxxxxxxxxxxxxxxxxxxxxxxxx     
.................... unsigned  int8 xuat_1bit(usi8 bx) 
.................... {   
....................    #bit lsb = bx.0                                            
....................    output_bit(ssdo,lsb);     
....................    output_low(ssck); output_high(ssck); 
....................    bx = bx>>1;    
....................    return(bx);   
.................... }    
....................  
....................                                  
....................  
.................... #include <tv_01_4_nutnhan.c>            
.................... //xxxxxxxxxxxxxxxxxxxxxxxxxxxxxxxxxxxxxxxxxxxxxxxxxxxxxxxx 
.................... //NGUYEN DINH PHU SU PHAM KY THUAT TP HCM 
.................... //xxxxxxxxxxxxxxxxxxxxxxxxxxxxxxxxxxxxxxxxxxxxxxxxxxxxxxxx 
....................  
.................... //xxxxxxxxxxxxxxxxxxxxxxxxxxxxxxxxxxxxxxxxxxxxxxxxxxxxxxxx 
.................... //dinh nghia cac trang thai co nhan va khong nhan phim 
.................... //xxxxxxxxxxxxxxxxxxxxxxxxxxxxxxxxxxxxxxxxxxxxxxxxxxxxxxxx  
.................... #define co_nhan      1             
.................... #define khong_nhan   0            
.................... #define c_ktnp       1  //co kiem tra nha phim           
.................... #define k_ktnp       0  //khong kiem tra nha phim  
.................... // #define sole_1       false             
.................... // #define sole_2       true    
....................                                
.................... //xxxxxxxxxxxxxxxxxxxxxxxxxxxxxxxxxxxxxxxxxxxxxxxxxxxxxxxx  
.................... //chuong trinh kiem tra phim bt1 
.................... //xxxxxxxxxxxxxxxxxxxxxxxxxxxxxxxxxxxxxxxxxxxxxxxxxxxxxxxx  
.................... unsigned int16 dl_btn=0;  
.................... //xxxxxxxxxxxxxxxxxxxxxxxxxxxxxxxxxxxxxxxxxxxxxxxxxxxxxxxx 
.................... //phim bt0-cach 1: co chong doi, delay 20ms, cho nha phim 
.................... //dinh nghia them 1 so ten khac      
.................... //xxxxxxxxxxxxxxxxxxxxxxxxxxxxxxxxxxxxxxxxxxxxxxxxxxxxxxxx                        
.................... #define phim_on_c1  phim_bt0_c1     
.................... #define phim_run_c1 phim_bt0_c1  
.................... #define phim_up_c1  phim_bt0_c1        
....................  
.................... int1 phim_bt0_c1(int1 ktnp,usi16 dl)    
.................... {                     
....................    if (!input(bt0))    
....................    {         
....................       delay_ms(20);                                      
....................       if (!input(bt0)) 
....................       { 
....................          if(ktnp) while(!input(bt0)); 
....................          delay_ms(dl); 
....................          return co_nhan;       
....................       }                       
....................       return khong_nhan;    
....................    }          
....................   return khong_nhan;   
.................... }      
.................... //xxxxxxxxxxxxxxxxxxxxxxxxxxxxxxxxxxxxxxxxxxxxxxxxxxxxxxxx 
.................... //phim bt1-cach 1: co chong doi, delay 20ms, cho nha phim 
.................... //dinh nghia them 1 so ten khac       
.................... //xxxxxxxxxxxxxxxxxxxxxxxxxxxxxxxxxxxxxxxxxxxxxxxxxxxxxxxx   
.................... #define phim_off_c1   phim_bt1_c1    
.................... #define phim_mode_c1  phim_bt1_c1  
.................... #define phim_stop_c1  phim_bt1_c1  
.................... #define phim_clr_c1   phim_bt1_c1 
.................... int1 phim_bt1_c1(int1 ktnp,usi16 dl)                                                
.................... { 
....................    if(!input(bt1))    
....................    {                        
....................       delay_ms(20); 
....................       if(!input(bt1)) 
....................       { 
....................          if(ktnp) while(!input(bt1));     
....................          delay_ms(dl); 
....................          return co_nhan; 
....................       }  
....................       return khong_nhan; 
....................    } 
....................    return khong_nhan;   
.................... }        
....................       
.................... //xxxxxxxxxxxxxxxxxxxxxxxxxxxxxxxxxxxxxxxxxxxxxxxxxxxxxxxx 
.................... //phim bt2-cach 1: co chong doi, delay 20ms, cho nha phim 
.................... //dinh nghia them 1 so ten khac       
.................... //xxxxxxxxxxxxxxxxxxxxxxxxxxxxxxxxxxxxxxxxxxxxxxxxxxxxxxxx   
.................... #define phim_inv_c1 phim_bt2_c1    
.................... #define phim_dw_c1  phim_bt2_c1                   
....................  
.................... int1 phim_bt2_c1(int1 ktnp,usi16 dl)       
.................... { 
....................    if(!input(bt2))    
....................    {         
....................       delay_ms(20);                 
....................       if(!input(bt2)) 
....................       { 
....................          if(ktnp) while(!input(bt2));     
....................          delay_ms(dl); 
....................          return co_nhan; 
....................       }                                      
....................       return khong_nhan;  
....................    } 
....................    return khong_nhan;   
.................... }       
.................... //xxxxxxxxxxxxxxxxxxxxxxxxxxxxxxxxxxxxxxxxxxxxxxxxxxxxxxxx 
.................... //phim bt3-cach 1: co chong doi, delay 20ms, cho nha phim 
.................... //dinh nghia them 1 so ten khac       
.................... //xxxxxxxxxxxxxxxxxxxxxxxxxxxxxxxxxxxxxxxxxxxxxxxxxxxxxxxx      
....................  
.................... #define phim_ud_c1    phim_bt3_c1 
....................  
....................  
.................... int1 phim_bt3_c1(int1 ktnp,usi16 dl)       
.................... {                        
....................    if(!input(bt3))    
....................    {                                         
....................       delay_ms(20);                        
....................       if(!input(bt3)) 
....................       {                       
....................          if(ktnp) while(!input(bt3));     
....................          delay_ms(dl); 
....................          return co_nhan; 
....................       }  
....................       return khong_nhan;    
....................       }                        
....................    return khong_nhan;   
.................... }   
....................        
.................... //xxxxxxxxxxxxxxxxxxxxxxxxxxxxxxxxxxxxxxxxxxxxxxxxxxxxxxxx  
.................... //xxxxxxxxxxxxxxxxxxxxxxxxxxxxxxxxxxxxxxxxxxxxxxxxxxxxxxxx  
.................... //cac ham con cua cac phim nhan don theo cach 2 
.................... //xxxxxxxxxxxxxxxxxxxxxxxxxxxxxxxxxxxxxxxxxxxxxxxxxxxxxxxx  
.................... //xxxxxxxxxxxxxxxxxxxxxxxxxxxxxxxxxxxxxxxxxxxxxxxxxxxxxxxx     
....................  
.................... //xxxxxxxxxxxxxxxxxxxxxxxxxxxxxxxxxxxxxxxxxxxxxxxxxxxxxxxx   
.................... //phim bt0-cach 2: nhan so lan thuc hien la bien dl 
.................... //kiem tra neu co nhan thi tang bien dem dl_btn,delay 1ms.    
.................... //Neu bien dl_btn = dl thi reset dl_btn = 0, 
.................... //xem nhu co nhan va ket thuc.  
.................... //con lai thi xem nhu chua nhan hoac chua du thoi gian nhan 
.................... //moi chu ky thuc hien lon nhat la 1ms - khong cho nha phim  
.................... //dinh nghia them 1 so ten khac   
.................... //xxxxxxxxxxxxxxxxxxxxxxxxxxxxxxxxxxxxxxxxxxxxxxxxxxxxxxxx     
.................... #define phim_on_c2  phim_bt0_c2                     
.................... #define phim_run_c2 phim_bt0_c2       
.................... #define phim_up_c2  phim_bt0_c2   
....................  
.................... int1 phim_bt0_c2(usi16 dl)   
.................... {                       
....................    if(!input(bt0))                        
....................    {    
....................       dl_btn++;   delay_us(500);                
....................       if(dl_btn>=dl)  
....................       {   
....................          dl_btn=0; 
....................          return co_nhan; 
....................       }      
....................       else  return khong_nhan;  
....................    } 
....................    else  return khong_nhan;     
.................... }  
....................      
.................... //xxxxxxxxxxxxxxxxxxxxxxxxxxxxxxxxxxxxxxxxxxxxxxxxxxxxxxxx 
.................... //ham chong doi cach 2 cho phim bt1 
.................... //xxxxxxxxxxxxxxxxxxxxxxxxxxxxxxxxxxxxxxxxxxxxxxxxxxxxxxxx       
.................... #define phim_off_c2   phim_bt1_c2    
.................... #define phim_stop_c2  phim_bt1_c2   
.................... #define phim_mode_c2  phim_bt1_c2 
.................... #define phim_clr_c2   phim_bt3_c2 
....................  
.................... int1 phim_bt1_c2(usi16 dl) 
.................... {                       
....................    if(!input(bt1))    
....................    {            
....................       dl_btn++;  delay_us(500);   
....................       if(dl_btn >= dl)     
....................       {   
....................          dl_btn =0; 
....................          return co_nhan; 
....................       }      
....................       else return khong_nhan;  
....................    } 
....................    else return khong_nhan;     
.................... }      
....................  
.................... //xxxxxxxxxxxxxxxxxxxxxxxxxxxxxxxxxxxxxxxxxxxxxxxxxxxxxxxx 
.................... //ham chong doi cach 2 cho phim bt2 
.................... //xxxxxxxxxxxxxxxxxxxxxxxxxxxxxxxxxxxxxxxxxxxxxxxxxxxxxxxx 
.................... #define phim_inv_c2   phim_bt2_c2   
.................... #define phim_dw_c2    phim_bt2_c2   
....................  
.................... int1 phim_bt2_c2(usi16 dl) 
.................... {                       
....................    if(!input(bt2))    
....................    {                                   
....................       dl_btn++;  delay_us(500);   
....................       if(dl_btn >= dl)  
....................       {   
....................          dl_btn =0; 
....................          return co_nhan;    
....................       }      
....................       else return khong_nhan;  
....................    } 
....................    else return khong_nhan;     
.................... }                                        
.................... //xxxxxxxxxxxxxxxxxxxxxxxxxxxxxxxxxxxxxxxxxxxxxxxxxxxxxxxx 
.................... //ham chong doi cach 1 cho phim bt3 
.................... //xxxxxxxxxxxxxxxxxxxxxxxxxxxxxxxxxxxxxxxxxxxxxxxxxxxxxxxx         
.................... //#define phim_mode_c2  phim_bt3_c2   
.................... #define phim_ud_c2    phim_bt3_c2   
....................                           
.................... int1 phim_bt3_c2(usi16 dl)  
.................... {                       
....................    if(!input(bt3))     
....................    {                          
....................       dl_btn++;    delay_us(500);                                                 
....................       if(dl_btn >= dl)  
....................       {   
....................          dl_btn =0;                                  
....................          return co_nhan;  
....................       }      
....................       else return khong_nhan;  
....................    } 
....................    else return khong_nhan;     
.................... }            
....................  
.................... #include <tv_02_matran_phim4x4_138.c>     
.................... //xxxxxxxxxxxxxxxxxxxxxxxxxxxxxxxxxxxxxxxxxxxxxxxxxxxxxxxx 
.................... //NGUYEN DINH PHU SU PHAM KY THUAT TP HCM 
.................... //xxxxxxxxxxxxxxxxxxxxxxxxxxxxxxxxxxxxxxxxxxxxxxxxxxxxxxxx 
....................  
.................... const unsigned char maquet[4]= {0x3f,0x7f,0xbf,0xff}; 
.................... //xxxxxxxxxxxxxxxxxxxxxxxxxxxxxxxxxxxxxxxxxxxxxxxxxxxxxxxx 
.................... //ham quet phim ma tran 4x4                  
.................... //xxxxxxxxxxxxxxxxxxxxxxxxxxxxxxxxxxxxxxxxxxxxxxxxxxxxxxxx 
.................... unsigned int key_nhan()                
.................... {      
....................    unsigned int8 maphim,hang,cot;       
....................    maphim=hang=0xff; 
....................    for(cot=0;cot<4;cot++)                     
....................    {    
....................       output_b(maquet[cot]); 
....................       if     (!input(pin_b2)) {hang=3; break;} 
....................       else if(!input(pin_b3)) {hang=2; break;}        
....................       else if(!input(pin_b4)) {hang=1; break;} 
....................       else if(!input(pin_b5)) {hang=0; break;} 
....................    }           
....................    if(hang!=0xff) maphim = cot*4 + hang; 
....................    return(maphim); 
.................... }      
.................... //xxxxxxxxxxxxxxxxxxxxxxxxxxxxxxxxxxxxxxxxxxxxxxxxxxxxxxxx 
.................... //ham quet ma tran phim va chong doi tich cuc khi nhan phim 
.................... //cach 1              
.................... //xxxxxxxxxxxxxxxxxxxxxxxxxxxxxxxxxxxxxxxxxxxxxxxxxxxxxxxx                         
.................... unsigned int key_4x4_dw() 
.................... {      
....................    unsigned int8 mp1, mp2;   
....................    mp1=key_nhan();       
....................    if(mp1!=0xff)                 
....................    {   
....................       delay_ms(20);                                            
....................       mp1=key_nhan(); 
....................       do               
....................       {          
....................          delay_ms(5);  
....................          mp2=key_nhan();      
....................       }                     
....................       while(mp2==mp1);  
....................    }              
....................    return(mp1); 
.................... }  
.................... //xxxxxxxxxxxxxxxxxxxxxxxxxxxxxxxxxxxxxxxxxxxxxxxxxxxxxxxx 
.................... //ham quet ma tran phim va chong doi tich cuc khi nhan phim 
.................... //cach 2 
.................... //xxxxxxxxxxxxxxxxxxxxxxxxxxxxxxxxxxxxxxxxxxxxxxxxxxxxxxxx          
.................... unsigned int key_4x4_dw_c2(usi8 dl) 
.................... {      
....................    unsigned int8 mp;   
....................    mp=key_nhan();          
....................    if(mp!=0xff)                                    
....................    {   
....................       dl_btn++; delay_ms(1);         
....................       if(dl_btn>=dl)  
....................       {   
....................          dl_btn=0;  
....................          return mp; 
....................       }                
....................       else  return 0xff;  
....................    } 
....................    else  return 0xff;      
.................... }  
.................... //xxxxxxxxxxxxxxxxxxxxxxxxxxxxxxxxxxxxxxxxxxxxxxxxxxxxxxxx 
.................... //ham quet ma tran phim va chong doi tich cuc khi nha phim 
.................... //xxxxxxxxxxxxxxxxxxxxxxxxxxxxxxxxxxxxxxxxxxxxxxxxxxxxxxxx 
.................... unsigned int key_4x4_up() 
.................... {                     
....................    unsigned int8 mp1,mp2;   
....................    mp1=key_nhan(); 
....................    if(mp1!=0xff)    
....................    {                        
....................       if(mp2==0xff)              
....................       {                                                         
....................          delay_ms(20);   //chong doi 
....................          mp1=key_nhan(); 
....................          if(mp1!=0xff)   mp2=mp1; 
....................          return(mp1);    //phim moi                   
....................       }   
....................       else                
....................       {                                                                                                              
....................          do 
....................          {                                                     
....................             mp2=key_nhan(); 
....................             delay_ms(5);  
....................          } while(mp2!=0xff);                                                      
....................          return(mp2);     //thoat khi nha phim           
....................       }                 
....................    }            
....................    else                   
....................    { 
....................       mp2=mp1; 
....................       return(mp1);     //thoat vi khong nhan   
....................    }       
.................... } 
....................                                         
....................  
.................... #include <math.h> 
.................... //////////////////////////////////////////////////////////////////////////// 
.................... ////        (C) Copyright 1996,2011 Custom Computer Services            //// 
.................... //// This source code may only be used by licensed users of the CCS C   //// 
.................... //// compiler.  This source code may only be distributed to other       //// 
.................... //// licensed users of the CCS C compiler.  No other use, reproduction  //// 
.................... //// or distribution is permitted without written permission.           //// 
.................... //// Derivative programs created using this software in object code     //// 
.................... //// form are not restricted in any way.                                //// 
.................... //////////////////////////////////////////////////////////////////////////// 
.................... ////                                                                    //// 
.................... //// History:                                                           //// 
.................... ////  * 9/20/2001 :  Improvments are made to sin/cos code.              //// 
.................... ////                 The code now is small, much faster,                //// 
.................... ////                 and more accurate.                                 //// 
.................... ////  * 2/21/2007 :  Compiler handles & operator differently and does   //// 
.................... ////                 not return generic (int8 *) so type cast is done   //// 
.................... ////  * 6/19/2010 :  Divisions by constants converted to multiplication //// 
.................... ////                 by its inverse to improve computation speed        //// 
.................... ////  * 1/21/2011 :  Constants used for double precision math updated   //// 
.................... ////                 Updated routines include 64 bit versions of cos,   //// 
.................... ////                 asin,atan,exp,log and dependant functions          //// 
.................... ////  * 1/31/2011 :  Optimized current 32-bit float routines for cos    //// 
.................... ////                 and log function                                   //// 
.................... ////  * 6/13/2011 :  Fixed PCD overload CEIL_FLOOR functions for values //// 
.................... ////                 greater then 10000000 and less then -10000000      //// 
.................... ////                                                                    //// 
.................... //////////////////////////////////////////////////////////////////////////// 
....................  
.................... #ifndef MATH_H 
.................... #define MATH_H 
....................  
.................... #ifdef PI 
.................... #undef  PI 
.................... #endif 
.................... #define PI     3.1415926535897932 
....................  
....................  
.................... #define SQRT2  1.4142135623730950 
....................  
.................... //float const ps[4] = {5.9304945, 21.125224, 8.9403076, 0.29730279}; 
.................... //float const qs[4] = {1.0000000, 15.035723, 17.764134, 2.4934718}; 
....................  
.................... ///////////////////////////// Round Functions ////////////////////////////// 
....................  
.................... float32 CEIL_FLOOR(float32 x, unsigned int8 n) 
.................... { 
....................    float32 y, res; 
....................    unsigned int16 l; 
....................    int1 s; 
....................  
....................    s = 0; 
....................    y = x; 
....................  
....................    if (x < 0) 
....................    { 
....................       s = 1; 
....................       y = -y; 
....................    } 
....................  
....................    if (y <= 32768.0) 
....................       res = (float32)(unsigned int16)y; 
....................  
....................  else if (y < 10000000.0) 
....................    {  
....................       l = (unsigned int16)(y*0.000030517578125); 
....................       y = 32768.0*(y*0.000030517578125 - (float32)l); 
....................       res = 32768.0*(float32)l; 
....................       res += (float32)(unsigned int16)y; 
....................    } 
....................  
....................  else 
....................   res = y; 
....................  
....................  y = y - (float32)(unsigned int16)y; 
....................  
....................  if (s) 
....................   res = -res; 
....................  
....................  if (y != 0) 
....................  { 
....................   if (s == 1 && n == 0) 
....................    res -= 1.0; 
....................  
....................   if (s == 0 && n == 1) 
....................    res += 1.0; 
....................  } 
....................  if (x == 0) 
....................     res = 0; 
....................  
....................  return (res); 
.................... } 
....................  
.................... // Overloaded Functions to take care for new Data types in PCD 
.................... // Overloaded function CEIL_FLOOR() for data type - Float48 
.................... #if defined(__PCD__) 
.................... float48 CEIL_FLOOR(float48 x, unsigned int8 n) 
.................... { 
....................    float48 y, res; 
....................    unsigned int32 l; 
....................    int1 s; 
....................  
....................    s = 0; 
....................    y = x; 
....................  
....................    if (x < 0) 
....................    { 
....................       s = 1; 
....................       y = -y; 
....................    } 
....................  
....................    if (y <= 32768.0) 
....................       res = (float48)(unsigned int16)y; 
....................  
....................    else if (y < 549755813888.0) 
....................    { 
....................       l = (unsigned int32)(y*0.000030517578125); 
....................       y = 32768.0*(y*0.000030517578125 - (float48)l); 
....................       res = 32768.0*(float48)l; 
....................       res += (float48)(unsigned int16)y; 
....................    } 
....................    else 
....................    {   
....................       res = y; 
....................       y = 0.0; 
....................    } 
....................     
....................    if(y != 0) 
....................       y = y - (float48)(unsigned int16)y; 
....................  
....................    if (s) 
....................       res = -res; 
....................  
....................    if (y != 0) 
....................    { 
....................       if (s == 1 && n == 0) 
....................          res -= 1.0; 
....................  
....................       if (s == 0 && n == 1) 
....................          res += 1.0; 
....................    } 
....................    if (x == 0) 
....................       res = 0; 
....................  
....................    return (res); 
.................... } 
....................  
....................  
.................... // Overloaded function CEIL_FLOOR() for data type - Float64 
.................... float64 CEIL_FLOOR(float64 x, unsigned int8 n) 
.................... { 
....................    float64 y, res; 
....................    int64 l; 
....................    int1 s; 
....................  
....................    s = 0; 
....................    y = x; 
....................  
....................    if (x < 0) 
....................    { 
....................       s = 1; 
....................       y = -y; 
....................    } 
....................  
....................    if (y <= 32768.0) 
....................       res = (float64)(unsigned int16)y; 
....................    else if (y < 4503599627370496.0) 
....................    { 
....................       l = (int64)(y*0.000030517578125); 
....................       y = 32768.0*(y*0.000030517578125 - (float64)l); 
....................       res = 32768.0*(float64)l; 
....................       res += (float64)(unsigned int16)y; 
....................    } 
....................    else 
....................    { 
....................       res = y; 
....................       y = 0.0; 
....................    } 
....................     
....................    if(y != 0) 
....................       y = y - (float64)(unsigned int16)y; 
....................  
....................    if (s) 
....................       res = -res; 
....................  
....................    if (y != 0) 
....................    { 
....................       if (s == 1 && n == 0) 
....................          res -= 1.0; 
....................  
....................       if (s == 0 && n == 1) 
....................          res += 1.0; 
....................    } 
....................     
....................    if (x == 0) 
....................       res = 0; 
....................  
....................    return (res); 
.................... } 
.................... #endif 
....................  
.................... //////////////////////////////////////////////////////////////////////////// 
.................... //   float floor(float x) 
.................... //////////////////////////////////////////////////////////////////////////// 
.................... // Description : rounds down the number x. 
.................... // Date : N/A 
.................... // 
.................... float32 floor(float32 x) 
.................... { 
....................    return CEIL_FLOOR(x,0); 
.................... } 
.................... // Following 2 functions are overloaded functions of floor() for PCD 
.................... // Overloaded function floor() for data type - Float48 
.................... #if defined(__PCD__) 
.................... float48 floor(float48 x) 
.................... { 
....................    return CEIL_FLOOR(x, 0); 
.................... } 
....................  
.................... // Overloaded function floor() for data type - Float64 
.................... float64 floor(float64 x) 
.................... { 
....................    return CEIL_FLOOR(x, 0); 
.................... } 
.................... #endif 
....................  
....................  
.................... //////////////////////////////////////////////////////////////////////////// 
.................... //   float ceil(float x) 
.................... //////////////////////////////////////////////////////////////////////////// 
.................... // Description : rounds up the number x. 
.................... // Date : N/A 
.................... // 
.................... float32 ceil(float32 x) 
.................... { 
....................    return CEIL_FLOOR(x, 1); 
.................... } 
.................... // Following 2 functions are overloaded functions of ceil() for PCD 
.................... // Overloaded function ceil() for data type - Float48 
.................... #if defined(__PCD__) 
.................... float48 ceil(float48 x) 
.................... { 
....................    return CEIL_FLOOR(x, 1); 
.................... } 
....................  
.................... // Overloaded function ceil() for data type - Float64 
.................... float64 ceil(float64 x) 
.................... { 
....................    return CEIL_FLOOR(x, 1); 
.................... } 
.................... #endif 
....................  
....................  //////////////////////////////////////////////////////////////////////////// 
.................... //   float fabs(float x) 
.................... //////////////////////////////////////////////////////////////////////////// 
.................... // Description : Computes the absolute value of floating point number x 
.................... // Returns : returns the absolute value of x 
.................... // Date : N/A 
.................... // 
.................... #define fabs abs 
....................  
.................... //////////////////////////////////////////////////////////////////////////// 
.................... //   float fmod(float x) 
.................... //////////////////////////////////////////////////////////////////////////// 
.................... // Description : Computes the floating point remainder of x/y 
.................... // Returns : returns the value of x= i*y, for some integer i such that, if y 
.................... // is non zero, the result has the same isgn of x na dmagnitude less than the 
.................... // magnitude of y. If y is zero then a domain error occurs. 
.................... // Date : N/A 
.................... // 
....................  
.................... float fmod(float32 x,float32 y) 
.................... { 
....................    float32 i; 
....................    if (y!=0.0) 
....................    { 
....................       i=(x/y < 0.0)? ceil(x/y): floor(x/y); 
....................       return(x-(i*y)); 
....................    } 
....................    else 
....................    { 
....................    #ifdef _ERRNO 
....................    { 
....................       errno=EDOM; 
....................    } 
....................    #endif 
....................    } 
.................... } 
.................... //Overloaded function for fmod() for PCD 
.................... // Overloaded function fmod() for data type - Float48 
.................... #if defined(__PCD__) 
.................... float48 fmod(float48 x,float48 y) 
.................... { 
....................    float48 i; 
....................    if (y!=0.0) 
....................    { 
....................       i=(x/y < 0.0)? ceil(x/y): floor(x/y); 
....................       return(x-(i*y)); 
....................    } 
....................    else 
....................    { 
....................    #ifdef _ERRNO 
....................    { 
....................       errno=EDOM; 
....................    } 
....................    #endif 
....................    } 
.................... } 
.................... // Overloaded function fmod() for data type - Float64 
.................... float64 fmod(float64 x,float64 y) 
.................... { 
....................    float64 i; 
....................    if (y!=0.0) 
....................    { 
....................       i=(x/y < 0.0)? ceil(x/y): floor(x/y); 
....................       return(x-(i*y)); 
....................    } 
....................    else 
....................    { 
....................    #ifdef _ERRNO 
....................    { 
....................       errno=EDOM; 
....................    } 
....................    #endif 
....................    } 
.................... } 
.................... #endif 
.................... //////////////////// Exponential and logarithmic functions //////////////////// 
.................... //////////////////////////////////////////////////////////////////////////// 
.................... //   float exp(float x) 
.................... //////////////////////////////////////////////////////////////////////////// 
.................... // Description : returns the value (e^x) 
.................... // Date : N/A 
.................... // 
.................... #define LN2 0.6931471805599453 
.................... #define LN2_INV 1.4426950408889634073 
....................  
.................... float const pe[6] = {0.000207455774, 0.00127100575, 0.00965065093, 
....................                      0.0554965651,  0.240227138,  0.693147172}; 
....................  
....................  
.................... float32 exp(float32 x) 
.................... { 
....................    float32 y, res, r; 
....................    #if defined(__PCD__) 
....................    int8 data1; 
....................    #endif 
....................    signed int8 n; 
....................    int1 s; 
....................    #ifdef _ERRNO 
....................    if(x > 88.722838) 
....................    { 
....................       errno=ERANGE; 
....................       return(0); 
....................    } 
....................    #endif 
....................    n = (signed int16)(x*LN2_INV); 
....................    s = 0; 
....................    y = x; 
....................  
....................    if (x < 0) 
....................    { 
....................       s = 1; 
....................       n = -n; 
....................       y = -y; 
....................    } 
....................  
....................    res = 0.0; 
.................... #if !defined(__PCD__) 
....................    *((unsigned int8 *)(&res)) = n + 0x7F; 
.................... #endif 
....................  
.................... #if defined(__PCD__)  // Takes care of IEEE format for PCD 
....................    data1 = n+0x7F; 
....................    if(bit_test(data1,0)) 
....................    bit_set(*(((unsigned int8 *)(&res)+2)),7); 
....................    rotate_right(&data1,1); 
....................    bit_clear(data1,7); 
....................    *(((unsigned int8 *)(&res)+3)) = data1; 
.................... #endif 
....................  
....................    y = y*LN2_INV - (float32)n; 
....................  
....................    r = pe[0]*y + pe[1]; 
....................    r = r*y + pe[2]; 
....................    r = r*y + pe[3]; 
....................    r = r*y + pe[4]; 
....................    r = r*y + pe[5]; 
....................  
....................    res = res*(1.0 + y*r); 
....................  
....................    if (s) 
....................       res = 1.0/res; 
....................    return(res); 
.................... } 
....................  
....................  
.................... //Overloaded function for exp() for PCD 
.................... // Overloaded function exp() for data type - Float48 
.................... #if defined(__PCD__) 
.................... float48 exp(float48 x) 
.................... { 
....................    float48 y, res, r; 
....................    int8 data1; 
....................    signed int8 n; 
....................    int1 s; 
....................    #ifdef _ERRNO 
....................    if(x > 88.722838) 
....................    { 
....................       errno=ERANGE; 
....................       return(0); 
....................    } 
....................    #endif 
....................    n = (signed int16)(x*LN2_INV); 
....................    s = 0; 
....................    y = x; 
....................  
....................    if (x < 0) 
....................    { 
....................       s = 1; 
....................       n = -n; 
....................       y = -y; 
....................    } 
....................  
....................    res = 0.0; 
....................  
....................    data1 = n+0x7F; 
....................    if(bit_test(data1,0)) 
....................    bit_set(*(((unsigned int8 *)(&res)+4)),7); 
....................    rotate_right(&data1,1); 
....................    bit_clear(data1,7); 
....................    *(((unsigned int8 *)(&res)+5)) = data1; 
....................  
....................    y = y*LN2_INV - (float48)n; 
....................  
....................    r = pe[0]*y + pe[1]; 
....................    r = r*y + pe[2]; 
....................    r = r*y + pe[3]; 
....................    r = r*y + pe[4]; 
....................    r = r*y + pe[5]; 
....................  
....................    res = res*(1.0 + y*r); 
....................  
....................    if (s) 
....................       res = 1.0/res; 
....................    return(res); 
.................... } 
....................  
.................... // Overloaded function exp() for data type - Float64 
.................... float64 const pe_64[12] ={9.30741400474913e-011,-4.28655416283316e-011, 
....................                           8.71486547014137e-009,9.84458531538385e-008, 
....................                           1.32588296983536e-006,1.52489283823016e-005, 
....................                           0.000154037598423921,0.00133335487036216, 
....................                           0.00961812936407326,0.0555041086222122, 
....................                           0.240226506962827,0.693147180559823}; 
....................  
.................... float64 exp(float64 x) 
.................... { 
....................    float64 y, res, r; 
....................    unsigned int16 data1, data2; 
....................    unsigned int16 *p; 
....................    signed int16 n; 
....................    int1 s; 
....................    #ifdef _ERRNO 
....................    if(x > 709.7827128) 
....................    { 
....................       errno=ERANGE; 
....................       return(0); 
....................    } 
....................    #endif 
....................    y = x*LN2_INV; 
....................    n = (signed int16)y; 
....................    s = 0; 
....................    y = x; 
....................  
....................    if (x < 0) 
....................    { 
....................       s = 1; 
....................       n = -n; 
....................       y = -y; 
....................    } 
....................  
....................    res = 0.0; 
....................  
.................... #if !defined(__PCD__) 
....................    *((unsigned int16 *)(&res)) = n + 0x7F; 
.................... #endif 
....................    p= (((unsigned int16 *)(&res))+3); 
....................    data1 = *p; 
....................    data2 = *p;    
....................    data1 = n + 0x3FF; 
....................    data1 = data1 <<4; 
....................    if(bit_test(data2,15)) 
....................    bit_set(data1,15); 
....................    data2 = data2 & 0x000F; 
....................    data1 ^= data2; 
....................  
....................    *(((unsigned int16 *)(&res)+3)) = data1; 
....................  
....................  
....................    y = y*LN2_INV - (float64)n; 
....................  
....................    r = pe_64[0]*y + pe_64[1]; 
....................    r = r*y + pe_64[2]; 
....................    r = r*y + pe_64[3]; 
....................    r = r*y + pe_64[4]; 
....................    r = r*y + pe_64[5]; 
....................    r = r*y + pe_64[6]; 
....................    r = r*y + pe_64[7]; 
....................    r = r*y + pe_64[8]; 
....................    r = r*y + pe_64[9]; 
....................    r = r*y + pe_64[10]; 
....................    r = r*y + pe_64[11]; 
....................     
....................    res = res*(1.0 + y*r); 
....................  
....................    if (s) 
....................       res = 1.0/res; 
....................    return(res); 
.................... } 
.................... #ENDIF 
....................  
....................  
.................... /************************************************************/ 
....................  
.................... float32 const pl[4] = {-1.080310025160955, 1.999999947089217}; 
.................... float32 const ql[4] = {0.091284365719509, -0.873491916557671}; 
....................  
.................... //////////////////////////////////////////////////////////////////////////// 
.................... //   float log(float x) 
.................... //////////////////////////////////////////////////////////////////////////// 
.................... // Description : returns the the natural log of x 
.................... // Date : N/A 
.................... // 
.................... float32 log(float32 x) 
.................... { 
....................    float32 y, res, r, y2; 
....................    #if defined(__PCD__) 
....................    unsigned int8  data1,data2; 
....................    #endif 
....................    signed int8 n; 
....................    #ifdef _ERRNO 
....................    if(x <0) 
....................    { 
....................       errno=EDOM; 
....................    } 
....................    if(x ==0) 
....................    { 
....................       errno=ERANGE; 
....................       return(0); 
....................    } 
....................    #endif 
....................    y = x; 
....................  
....................    if (y != 1.0) 
....................    { 
.................... #if !defined(__PCD__) 
....................     *((unsigned int8 *)(&y)) = 0x7E;  
.................... #endif 
....................  
.................... #if defined(__PCD__) // Takes care of IEEE format 
....................    data2 = *(((unsigned int8 *)(&y))+3); 
....................    *(((unsigned int8 *)(&y))+3) = 0x3F; 
....................    data1 = *(((unsigned int8 *)(&y))+2); 
....................    bit_clear(data1,7); 
....................    *(((unsigned int8 *)(&y))+2) = data1; 
....................    if(bit_test(data2,7)) 
....................      bit_set(*(((unsigned int8 *)(&y))+3),7); 
.................... #endif 
....................  
....................       y = (y - 1.0)/(y + 1.0); 
....................  
....................       y2=y*y; 
....................  
....................       res = pl[0]*y2 + pl[1]; 
....................  
....................       r = ql[0]*y2 + ql[1]; 
....................       r = r*y2 + 1.0; 
....................  
....................       res = y*res/r; 
.................... #if !defined(__PCD__) 
....................       n = *((unsigned int8 *)(&x)) - 0x7E; 
.................... #endif 
.................... #if defined(__PCD__)  
....................     data1 = *(((unsigned int8 *)(&x)+3)); 
....................     rotate_left(&data1,1); 
....................     data2 = *(((unsigned int8 *)(&x)+2)); 
....................     if(bit_test (data2,7)) 
....................       bit_set(data1,0); 
....................     n = data1 - 0x7E; 
.................... #endif 
....................  
....................       if (n<0)  
....................          r = -(float32)-n; 
....................       else 
....................          r = (float32)n; 
....................  
....................       res += r*LN2; 
....................    } 
....................  
....................    else 
....................       res = 0.0; 
....................  
....................    return(res); 
.................... } 
....................  
.................... //Overloaded function for log() for PCD 
.................... // Overloaded function log() for data type - Float48 
.................... #if defined(__PCD__) 
.................... // Overloaded function log() for data type - float64 
.................... float64 const pl_64[4] = {-0.145694052150681, 1.365485300000370, 
....................                           -3.120535668274329, 2.000000000000000}; 
....................  
.................... float64 const ql_64[4] = {0.006047500465908, -0.208298281937234, 
....................                           1.113943039156721, -1.893601167470470}; 
....................  
.................... float48 log(float48 x) 
.................... { 
....................    float48 y, res, r, y2; 
....................    unsigned int8  data1,data2; 
....................    signed int8 n; 
.................... #ifdef _ERRNO 
....................    if(x <0) 
....................    { 
....................       errno=EDOM; 
....................    } 
....................    if(x ==0) 
....................    { 
....................       errno=ERANGE; 
....................       return(0); 
....................    } 
.................... #endif 
....................    y = x; 
....................  
....................    if (y != 1.0) 
....................    { 
....................  
.................... #if !defined(__PCD__) 
....................       *((unsigned int8 *)(&y)) = 0x7E;  
.................... #endif 
....................       data2 = *(((unsigned int8 *)(&y))+5); 
....................       *(((unsigned int8 *)(&y))+5) = 0x3F; 
....................       data1 = *(((unsigned int8 *)(&y))+4); 
....................       bit_clear(data1,7); 
....................       *(((unsigned int8 *)(&y))+4) = data1; 
....................  
....................       if(bit_test(data2,7)) 
....................       bit_set(*(((unsigned int8 *)(&y))+4),7); 
....................       y = (y - 1.0)/(y + 1.0); 
....................  
....................       y2=y*y; 
....................  
....................       res = pl_64[0]*y2 + pl_64[1]; 
....................       res = res*y2 + pl_64[2]; 
....................       res = res*y2 + pl_64[3]; 
....................  
....................       r = ql_64[0]*y2 + ql_64[1]; 
....................       r = r*y2 + ql_64[2]; 
....................       r = r*y2 + ql_64[3]; 
....................       r = r*y2 + 1.0;  
....................       res = y*res/r; 
....................  
....................       data1 = *(((unsigned int8 *)(&x)+5)); 
....................       rotate_left(&data1,1); 
....................       data2 = *(((unsigned int8 *)(&x)+4)); 
....................       if(bit_test (data2,7)) 
....................       bit_set(data1,0); 
....................        
....................       n = data1 - 0x7E; 
....................  
....................       if (n<0) 
....................       r = -(float48)-n; 
....................       else 
....................       r = (float48)n; 
....................  
....................       res += r*LN2; 
....................    } 
....................  
....................    else 
....................    res = 0.0; 
....................  
....................    return(res); 
.................... } 
....................  
.................... float64 log(float64 x) 
.................... { 
....................    float64 y, res, r, y2; 
....................    unsigned int16  data1,data2; 
....................    unsigned int16 *p; 
....................    signed int16 n; 
....................    #ifdef _ERRNO 
....................    if(x <0) 
....................    { 
....................       errno=EDOM; 
....................    } 
....................    if(x ==0) 
....................    { 
....................       errno=ERANGE; 
....................       return(0); 
....................    } 
....................    #endif 
....................    y = x; 
....................  
....................    if (y != 1.0) 
....................    { 
....................    #if !defined(__PCD__) 
....................        *((unsigned int8 *)(&y)) = 0x7E;  
....................    #endif 
....................       p= (((unsigned int16 *)(&y))+3); 
....................       data1 = *p; 
....................       data2 = *p; 
....................       data1 = 0x3FE; 
....................       data1 = data1 <<4; 
....................       if(bit_test (data2,15)) 
....................          bit_set(data1,15); 
....................       data2 = data2 & 0x000F; 
....................       data1 ^=data2; 
....................  
....................       *p = data1; 
....................  
....................       y = (y - 1.0)/(y + 1.0); 
....................  
....................       y2=y*y; 
....................  
....................       res = pl_64[0]*y2 + pl_64[1]; 
....................       res = res*y2 + pl_64[2]; 
....................       res = res*y2 + pl_64[3]; 
....................  
....................       r = ql_64[0]*y2 + ql_64[1]; 
....................       r = r*y2 + ql_64[2]; 
....................       r = r*y2 + ql_64[3]; 
....................       r = r*y2 + 1.0; 
....................  
....................       res = y*res/r; 
....................   
....................       p= (((unsigned int16 *)(&x))+3); 
....................       data1 = *p; 
....................       bit_clear(data1,15); 
....................       data1 = data1 >>4;     
....................       n = data1 - 0x3FE; 
....................  
....................  
....................       if (n<0) 
....................          r = -(float64)-n; 
....................       else 
....................          r = (float64)n; 
....................  
....................       res += r*LN2; 
....................    } 
....................  
....................    else 
....................       res = 0.0; 
....................  
....................    return(res); 
.................... } 
.................... #endif 
....................  
....................  
.................... #define LN10 2.3025850929940456 
.................... #define LN10_INV 0.4342944819032518276 
....................  
.................... //////////////////////////////////////////////////////////////////////////// 
.................... //   float log10(float x) 
.................... //////////////////////////////////////////////////////////////////////////// 
.................... // Description : returns the the log base 10 of x 
.................... // Date : N/A 
.................... // 
.................... float32 log10(float32 x) 
.................... { 
....................    float32 r; 
....................  
....................    r = log(x); 
....................    r = r*LN10_INV; 
....................    return(r); 
.................... } 
....................  
.................... //Overloaded functions for log10() for PCD 
.................... // Overloaded function log10() for data type - Float48 
.................... #if defined(__PCD__) 
.................... float48 log10(float48 x) 
.................... { 
....................    float48 r; 
....................  
....................    r = log(x); 
....................    r = r*LN10_INV; 
....................    return(r); 
.................... } 
....................  
.................... // Overloaded function log10() for data type - Float64 
.................... float64 log10(float64 x) 
.................... { 
....................    float64 r; 
....................  
....................    r = log(x); 
....................    r = r*LN10_INV; 
....................    return(r); 
.................... } 
.................... #endif 
.................... //////////////////////////////////////////////////////////////////////////// 
.................... //   float modf(float x) 
.................... //////////////////////////////////////////////////////////////////////////// 
.................... // Description :breaks the argument value int integral and fractional parts, 
.................... // ach of which have the same sign as the argument.  It stores the integral part 
.................... // as a float in the object pointed to by the iptr 
.................... // Returns : returns the signed fractional part of value. 
.................... // Date : N/A 
.................... // 
....................  
.................... float32 modf(float32 value,float32 *iptr) 
.................... { 
....................    *iptr=(value < 0.0)? ceil(value): floor(value); 
....................    return(value - *iptr); 
.................... } 
.................... //Overloaded functions for modf() for PCD 
.................... // Overloaded function modf() for data type - Float48 
.................... #if defined(__PCD__) 
.................... float48 modf(float48 value,float48 *iptr) 
.................... { 
....................    *iptr=(value < 0.0)? ceil(value): floor(value); 
....................    return(value - *iptr); 
.................... } 
.................... // Overloaded function modf() for data type - Float64 
.................... float64 modf(float64 value,float64 *iptr) 
.................... { 
....................    *iptr=(value < 0.0)? ceil(value): floor(value); 
....................    return(value - *iptr); 
.................... } 
.................... #endif 
....................  
.................... //////////////////////////////////////////////////////////////////////////// 
.................... //   float pwr(float x,float y) 
.................... //////////////////////////////////////////////////////////////////////////// 
.................... // Description : returns the value (x^y) 
.................... // Date : N/A 
.................... // Note : 0 is returned when the function will generate an imaginary number 
.................... // 
.................... float32 pwr(float32 x,float32 y) 
.................... { 
....................    if(0 > x && fmod(y, 1) == 0) { 
....................       if(fmod(y, 2) == 0) { 
....................          return (exp(log(-x) * y)); 
....................       } else { 
....................          return (-exp(log(-x) * y)); 
....................       } 
....................    } else if(0 > x && fmod(y, 1) != 0) { 
....................       return 0; 
....................    } else { 
....................       if(x != 0 || 0 >= y) { 
....................          return (exp(log(x) * y)); 
....................       } 
....................    } 
.................... } 
.................... //Overloaded functions for pwr() for PCD 
.................... // Overloaded function pwr() for data type - Float48 
.................... #if defined(__PCD__) 
.................... float48 pwr(float48 x,float48 y) 
.................... { 
....................    if(0 > x && fmod(y, 1) == 0) { 
....................       if(fmod(y, 2) == 0) { 
....................          return (exp(log(-x) * y)); 
....................       } else { 
....................          return (-exp(log(-x) * y)); 
....................       } 
....................    } else if(0 > x && fmod(y, 1) != 0) { 
....................       return 0; 
....................    } else { 
....................       if(x != 0 || 0 >= y) { 
....................          return (exp(log(x) * y)); 
....................       } 
....................    } 
.................... } 
.................... // Overloaded function pwr() for data type - Float64 
.................... float64 pwr(float64 x,float64 y) 
.................... { 
....................    if(0 > x && fmod(y, 1) == 0) { 
....................       if(fmod(y, 2) == 0) { 
....................          return (exp(log(-x) * y)); 
....................       } else { 
....................          return (-exp(log(-x) * y)); 
....................       } 
....................    } else if(0 > x && fmod(y, 1) != 0) { 
....................       return 0; 
....................    } else { 
....................       if(x != 0 || 0 >= y) { 
....................          return (exp(log(x) * y)); 
....................       } 
....................    } 
.................... } 
.................... #endif 
....................  
.................... //////////////////// Power functions //////////////////// 
....................  
.................... //////////////////////////////////////////////////////////////////////////// 
.................... //   float pow(float x,float y) 
.................... //////////////////////////////////////////////////////////////////////////// 
.................... // Description : returns the value (x^y) 
.................... // Date : N/A 
.................... // Note : 0 is returned when the function will generate an imaginary number 
.................... // 
.................... float32 pow(float32 x,float32 y) 
.................... { 
....................    if(0 > x && fmod(y, 1) == 0) { 
....................       if(fmod(y, 2) == 0) { 
....................          return (exp(log(-x) * y)); 
....................       } else { 
....................          return (-exp(log(-x) * y)); 
....................       } 
....................    } else if(0 > x && fmod(y, 1) != 0) { 
....................       return 0; 
....................    } else { 
....................       if(x != 0 || 0 >= y) { 
....................          return (exp(log(x) * y)); 
....................       } 
....................    } 
.................... } 
.................... //Overloaded functions for pow() for PCD 
.................... // Overloaded function for pow() data type - Float48 
.................... #if defined(__PCD__) 
.................... float48 pow(float48 x,float48 y) 
.................... { 
....................    if(0 > x && fmod(y, 1) == 0) { 
....................       if(fmod(y, 2) == 0) { 
....................          return (exp(log(-x) * y)); 
....................       } else { 
....................          return (-exp(log(-x) * y)); 
....................       } 
....................    } else if(0 > x && fmod(y, 1) != 0) { 
....................       return 0; 
....................    } else { 
....................       if(x != 0 || 0 >= y) { 
....................          return (exp(log(x) * y)); 
....................       } 
....................    } 
.................... } 
....................  
.................... // Overloaded function pow() for data type - Float64 
.................... float64 pow(float64 x,float64 y) 
.................... { 
....................    if(0 > x && fmod(y, 1) == 0) { 
....................       if(fmod(y, 2) == 0) { 
....................          return (exp(log(-x) * y)); 
....................       } else { 
....................          return (-exp(log(-x) * y)); 
....................       } 
....................    } else if(0 > x && fmod(y, 1) != 0) { 
....................       return 0; 
....................    } else { 
....................       if(x != 0 || 0 >= y) { 
....................          return (exp(log(x) * y)); 
....................       } 
....................    } 
.................... } 
.................... #endif 
....................  
.................... //////////////////////////////////////////////////////////////////////////// 
.................... //   float sqrt(float x) 
.................... //////////////////////////////////////////////////////////////////////////// 
.................... // Description : returns the square root of x 
.................... // Date : N/A 
.................... // 
.................... float32 sqrt(float32 x) 
.................... { 
....................    float32 y, res; 
....................    #if defined(__PCD__) 
....................    unsigned int16 data1,data2; 
....................    #endif 
....................    unsigned int8 *p; 
....................  
....................    #ifdef _ERRNO 
....................    if(x < 0) 
....................    { 
....................       errno=EDOM; 
....................    } 
....................    #endif 
....................  
....................    if( x<=0.0) 
....................       return(0.0); 
....................  
....................    y=x; 
....................     
....................    #if !defined(__PCD__) 
....................     p=&y; 
....................    (*p)=(unsigned int8)((((unsigned int16)(*p)) + 127) >> 1); 
....................    #endif 
....................     
....................    #if defined(__PCD__) 
....................     p = (((unsigned int8 *)(&y))+3); 
....................     data1 = *(((unsigned int8 *)(&y))+3); 
....................     data2 = *(((unsigned int8 *)(&y))+2); 
....................     rotate_left(&data1,1);     
....................     if(bit_test(data2,7))     
....................        bit_set(data1,0);     
....................     data1 = ((data1+127) >>1); 
....................     bit_clear(data2,7); 
....................     if(bit_test(data1,0)) 
....................        bit_set(data2,7); 
....................     data1 = data1 >>1; 
....................     *(((unsigned int8 *)(&y))+3) = data1; 
....................     *(((unsigned int8 *)(&y))+2) = data2; 
....................      
....................   #endif 
....................  
....................    do { 
....................       res=y; 
....................       y+=(x/y); 
....................  
....................       #if !defined(__PCD__) 
....................      (*p)--; 
....................    #endif 
....................     
....................    #if defined(__PCD__) 
....................     data1 = *(((unsigned int8 *)(&y))+3); 
....................     data2 = *(((unsigned int8 *)(&y))+2); 
....................     rotate_left(&data1,1); 
....................     if(bit_test(data2,7)) 
....................        bit_set(data1,0);     
....................     data1--; 
....................     bit_clear(data2,7); 
....................     if(bit_test(data1,0)) 
....................        bit_set(data2,7); 
....................     data1 = data1 >>1; 
....................     *(((unsigned int8 *)(&y))+3) = data1; 
....................     *(((unsigned int8 *)(&y))+2) = data2; 
....................      
....................   #endif 
....................    } while(res != y); 
....................  
....................    return(res); 
.................... } 
.................... //Overloaded functions for sqrt() for PCD 
.................... // Overloaded function sqrt() for data type - Float48 
.................... #if defined(__PCD__) 
.................... float48 sqrt(float48 x) 
.................... { 
....................    float48 y, res; 
....................    unsigned int16 data1,data2; 
....................    unsigned int8 *p; 
....................  
....................    #ifdef _ERRNO 
....................    if(x < 0) 
....................    { 
....................       errno=EDOM; 
....................    } 
....................    #endif 
....................  
....................    if( x<=0.0) 
....................       return(0.0); 
....................  
....................    y=x; 
....................     
....................    #if !defined(__PCD__) 
....................     p=&y; 
....................    (*p)=(unsigned int8)((((unsigned int16)(*p)) + 127) >> 1); 
....................    #endif 
....................     
....................    #if defined(__PCD__) 
....................     p = (((unsigned int8 *)(&y))+5); 
....................     data1 = *(((unsigned int8 *)(&y))+5); 
....................     data2 = *(((unsigned int8 *)(&y))+4); 
....................     rotate_left(&data1,1); 
....................     if(bit_test(data2,7)) 
....................        bit_set(data1,0);     
....................     data1 = ((data1+127) >>1); 
....................     bit_clear(data2,7); 
....................     if(bit_test(data1,0)) 
....................        bit_set(data2,7); 
....................     data1 = data1 >>1; 
....................     *(((unsigned int8 *)(&y))+5) = data1; 
....................     *(((unsigned int8 *)(&y))+4) = data2; 
....................      
....................   #endif 
....................  
....................    do { 
....................       res=y; 
....................       y+=(x/y); 
....................  
....................       #if !defined(__PCD__) 
....................      (*p)--; 
....................    #endif 
....................     
....................     data1 = *(((unsigned int8 *)(&y))+5); 
....................     data2 = *(((unsigned int8 *)(&y))+4); 
....................     rotate_left(&data1,1); 
....................     if(bit_test(data2,7)) 
....................        bit_set(data1,0);     
....................     data1--; 
....................     bit_clear(data2,7); 
....................     if(bit_test(data1,0)) 
....................        bit_set(data2,7); 
....................     data1 = data1 >>1; 
....................     *(((unsigned int8 *)(&y))+5) = data1; 
....................     *(((unsigned int8 *)(&y))+4) = data2; 
....................      
....................    } while(res != y); 
....................  
....................    return(res); 
.................... } 
....................  
.................... // Overloaded function sqrt() for data type - Float64 
.................... float64 sqrt(float64 x) 
.................... { 
....................    float64 y, res; 
....................    unsigned int16 *p; 
....................    unsigned int16 temp1,temp2; 
....................  
....................    #ifdef _ERRNO 
....................    if(x < 0) 
....................    { 
....................       errno=EDOM; 
....................    } 
....................    #endif 
....................  
....................    if( x<=0.0) 
....................       return(0.0); 
....................  
....................    y=x; 
....................    p= (((unsigned int16 *)(&y))+3); 
....................    temp1 = *p; 
....................    temp2 = *p; 
....................    bit_clear(temp1,15); 
....................    temp1 = (temp1>>4)+1023; 
....................    temp1 = temp1 >> 1; 
....................    temp1 = (temp1<<4) & 0xFFF0; 
....................    if(bit_test(temp2,15)) 
....................       bit_set(temp1,15); 
....................    temp2 = temp2 & 0x000F; 
....................    temp1 ^= temp2; 
....................     
....................    (*p) = temp1; 
....................     
....................    do { 
....................       res=y; 
....................       y+=(x/y); 
....................      temp1 = *p; 
....................      temp2 = *p; 
....................      bit_clear(temp1,15); 
....................      temp1 = (temp1>>4); 
....................      temp1--; 
....................      temp1 = (temp1<<4) & 0xFFF0; 
....................      if(bit_test(temp2,15)) 
....................         bit_set(temp1,15); 
....................      temp2 = temp2 & 0x000F; 
....................      temp1 ^= temp2; 
....................      (*p) = temp1; 
....................  
....................    } while(res != y); 
....................  
....................    return(res); 
.................... } 
.................... #endif 
....................  
.................... ////////////////////////////// Trig Functions ////////////////////////////// 
.................... #ifdef PI_DIV_BY_TWO_INV 
.................... #undef PI_DIV_BY_TWO_INV 
.................... #endif 
.................... #define PI_DIV_BY_TWO_INV 0.63661977236758134 
.................... #ifdef PI_DIV_BY_TWO 
.................... #undef PI_DIV_BY_TWO 
.................... #endif 
.................... #define PI_DIV_BY_TWO   1.5707963267948966 
.................... #ifdef TWOBYPI 
.................... #undef TWOBYPI 
.................... #endif 
.................... #define TWOBYPI          0.6366197723675813 
....................  
.................... //////////////////////////////////////////////////////////////////////////// 
.................... //   float cos(float x) 
.................... //////////////////////////////////////////////////////////////////////////// 
.................... // Description : returns the cosine value of the angle x, which is in radian 
.................... // Date : 9/20/2001 
.................... // 
.................... float32 cos(float32 x) 
*
15AE:  MOVLB  4
15B0:  CLRF   x6E
15B2:  CLRF   x6D
15B4:  CLRF   x6C
15B6:  MOVLW  7F
15B8:  MOVWF  x6B
.................... { 
....................    float32 y, t, t2 = 1.0; 
....................    unsigned int8 quad, i; 
....................    float32 frac; 
....................    float32 p[5] = {                    //by the series definition for cosine 
....................       -0.49999999456337096,            // sum ( ( (-1)^n * x^2n )/(2n)! ) 
....................        0.04166663896921267, 
....................       -0.00138883894522527, 
....................        0.00002476138231734, 
....................       -0.00000026070414770 
....................       //-0.00000000001147, 
....................       // 0.00000000000005 
....................    }; 
15BA:  MOVLW  7E
15BC:  MOVWF  x75
15BE:  MOVLW  80
15C0:  MOVWF  x76
15C2:  CLRF   x77
15C4:  CLRF   x78
15C6:  MOVLW  7A
15C8:  MOVWF  x79
15CA:  MOVLW  2A
15CC:  MOVWF  x7A
15CE:  MOVLW  AA
15D0:  MOVWF  x7B
15D2:  MOVLW  A3
15D4:  MOVWF  x7C
15D6:  MOVLW  75
15D8:  MOVWF  x7D
15DA:  MOVLW  B6
15DC:  MOVWF  x7E
15DE:  MOVLW  09
15E0:  MOVWF  x7F
15E2:  MOVLW  B4
15E4:  MOVWF  x80
15E6:  MOVLW  6F
15E8:  MOVWF  x81
15EA:  MOVLW  4F
15EC:  MOVWF  x82
15EE:  MOVLW  B6
15F0:  MOVWF  x83
15F2:  MOVLW  AA
15F4:  MOVWF  x84
15F6:  MOVLW  69
15F8:  MOVWF  x85
15FA:  MOVLW  8B
15FC:  MOVWF  x86
15FE:  MOVLW  F6
1600:  MOVWF  x87
1602:  MOVLW  E8
1604:  MOVWF  x88
....................  
....................    if (x < 0) x = -x;                  // absolute value of input 
1606:  MOVFF  462,48C
160A:  MOVFF  461,48B
160E:  MOVFF  460,48A
1612:  MOVFF  45F,489
1616:  CLRF   x90
1618:  CLRF   x8F
161A:  CLRF   x8E
161C:  CLRF   x8D
161E:  MOVLB  0
1620:  BRA    1248
1622:  BNC   162E
1624:  MOVLB  4
1626:  MOVF   x60,W
1628:  XORLW  80
162A:  MOVWF  x60
162C:  MOVLB  0
....................  
....................    quad = (unsigned int8)(x * PI_DIV_BY_TWO_INV);    // quadrant 
162E:  MOVFF  462,490
1632:  MOVFF  461,48F
1636:  MOVFF  460,48E
163A:  MOVFF  45F,48D
163E:  MOVLW  83
1640:  MOVLB  4
1642:  MOVWF  x94
1644:  MOVLW  F9
1646:  MOVWF  x93
1648:  MOVLW  22
164A:  MOVWF  x92
164C:  MOVLW  7E
164E:  MOVWF  x91
1650:  MOVLB  0
1652:  RCALL  0FF4
1654:  MOVFF  03,48C
1658:  MOVFF  02,48B
165C:  MOVFF  01,48A
1660:  MOVFF  00,489
1664:  RCALL  12C4
1666:  MOVFF  01,46F
....................    frac = (x * PI_DIV_BY_TWO_INV) - quad;  // fractional part of input 
166A:  MOVFF  462,490
166E:  MOVFF  461,48F
1672:  MOVFF  460,48E
1676:  MOVFF  45F,48D
167A:  MOVLW  83
167C:  MOVLB  4
167E:  MOVWF  x94
1680:  MOVLW  F9
1682:  MOVWF  x93
1684:  MOVLW  22
1686:  MOVWF  x92
1688:  MOVLW  7E
168A:  MOVWF  x91
168C:  MOVLB  0
168E:  RCALL  0FF4
1690:  MOVFF  03,48C
1694:  MOVFF  02,48B
1698:  MOVFF  01,48A
169C:  MOVFF  00,489
16A0:  MOVLB  4
16A2:  CLRF   x8E
16A4:  MOVFF  46F,48D
16A8:  MOVLB  0
16AA:  RCALL  1300
16AC:  BSF    FD8.1
16AE:  MOVFF  48C,490
16B2:  MOVFF  48B,48F
16B6:  MOVFF  48A,48E
16BA:  MOVFF  489,48D
16BE:  MOVFF  03,494
16C2:  MOVFF  02,493
16C6:  MOVFF  01,492
16CA:  MOVFF  00,491
16CE:  RCALL  1336
16D0:  MOVFF  03,474
16D4:  MOVFF  02,473
16D8:  MOVFF  01,472
16DC:  MOVFF  00,471
....................    quad = quad % 4;                    // quadrant (0 to 3) 
16E0:  MOVLW  03
16E2:  MOVLB  4
16E4:  ANDWF  x6F,F
....................  
....................    if (quad == 0 || quad == 2) 
16E6:  MOVF   x6F,F
16E8:  BZ    16F0
16EA:  MOVF   x6F,W
16EC:  SUBLW  02
16EE:  BNZ   1728
....................       t = frac * PI_DIV_BY_TWO; 
16F0:  MOVFF  474,490
16F4:  MOVFF  473,48F
16F8:  MOVFF  472,48E
16FC:  MOVFF  471,48D
1700:  MOVLW  DB
1702:  MOVWF  x94
1704:  MOVLW  0F
1706:  MOVWF  x93
1708:  MOVLW  49
170A:  MOVWF  x92
170C:  MOVLW  7F
170E:  MOVWF  x91
1710:  MOVLB  0
1712:  RCALL  0FF4
1714:  MOVFF  03,46A
1718:  MOVFF  02,469
171C:  MOVFF  01,468
1720:  MOVFF  00,467
1724:  BRA    17FC
1726:  MOVLB  4
....................    else if (quad == 1) 
1728:  DECFSZ x6F,W
172A:  BRA    1796
....................       t = (1-frac) * PI_DIV_BY_TWO; 
172C:  BSF    FD8.1
172E:  CLRF   x90
1730:  CLRF   x8F
1732:  CLRF   x8E
1734:  MOVLW  7F
1736:  MOVWF  x8D
1738:  MOVFF  474,494
173C:  MOVFF  473,493
1740:  MOVFF  472,492
1744:  MOVFF  471,491
1748:  MOVLB  0
174A:  RCALL  1336
174C:  MOVFF  03,48C
1750:  MOVFF  02,48B
1754:  MOVFF  01,48A
1758:  MOVFF  00,489
175C:  MOVFF  03,490
1760:  MOVFF  02,48F
1764:  MOVFF  01,48E
1768:  MOVFF  00,48D
176C:  MOVLW  DB
176E:  MOVLB  4
1770:  MOVWF  x94
1772:  MOVLW  0F
1774:  MOVWF  x93
1776:  MOVLW  49
1778:  MOVWF  x92
177A:  MOVLW  7F
177C:  MOVWF  x91
177E:  MOVLB  0
1780:  RCALL  0FF4
1782:  MOVFF  03,46A
1786:  MOVFF  02,469
178A:  MOVFF  01,468
178E:  MOVFF  00,467
1792:  BRA    17FC
1794:  MOVLB  4
....................    else // should be 3 
....................       t = (frac-1) * PI_DIV_BY_TWO; 
1796:  BSF    FD8.1
1798:  MOVFF  474,490
179C:  MOVFF  473,48F
17A0:  MOVFF  472,48E
17A4:  MOVFF  471,48D
17A8:  CLRF   x94
17AA:  CLRF   x93
17AC:  CLRF   x92
17AE:  MOVLW  7F
17B0:  MOVWF  x91
17B2:  MOVLB  0
17B4:  RCALL  1336
17B6:  MOVFF  03,48C
17BA:  MOVFF  02,48B
17BE:  MOVFF  01,48A
17C2:  MOVFF  00,489
17C6:  MOVFF  03,490
17CA:  MOVFF  02,48F
17CE:  MOVFF  01,48E
17D2:  MOVFF  00,48D
17D6:  MOVLW  DB
17D8:  MOVLB  4
17DA:  MOVWF  x94
17DC:  MOVLW  0F
17DE:  MOVWF  x93
17E0:  MOVLW  49
17E2:  MOVWF  x92
17E4:  MOVLW  7F
17E6:  MOVWF  x91
17E8:  MOVLB  0
17EA:  RCALL  0FF4
17EC:  MOVFF  03,46A
17F0:  MOVFF  02,469
17F4:  MOVFF  01,468
17F8:  MOVFF  00,467
....................  
....................    y = 1.0; 
17FC:  MOVLB  4
17FE:  CLRF   x66
1800:  CLRF   x65
1802:  CLRF   x64
1804:  MOVLW  7F
1806:  MOVWF  x63
....................    t = t * t; 
1808:  MOVFF  46A,490
180C:  MOVFF  469,48F
1810:  MOVFF  468,48E
1814:  MOVFF  467,48D
1818:  MOVFF  46A,494
181C:  MOVFF  469,493
1820:  MOVFF  468,492
1824:  MOVFF  467,491
1828:  MOVLB  0
182A:  CALL   0FF4
182E:  MOVFF  03,46A
1832:  MOVFF  02,469
1836:  MOVFF  01,468
183A:  MOVFF  00,467
....................    for (i = 0; i <= 4; i++) 
183E:  MOVLB  4
1840:  CLRF   x70
1842:  MOVF   x70,W
1844:  SUBLW  04
1846:  BNC   1912
....................    { 
....................       t2 = t2 * t; 
1848:  MOVFF  46E,490
184C:  MOVFF  46D,48F
1850:  MOVFF  46C,48E
1854:  MOVFF  46B,48D
1858:  MOVFF  46A,494
185C:  MOVFF  469,493
1860:  MOVFF  468,492
1864:  MOVFF  467,491
1868:  MOVLB  0
186A:  CALL   0FF4
186E:  MOVFF  03,46E
1872:  MOVFF  02,46D
1876:  MOVFF  01,46C
187A:  MOVFF  00,46B
....................       y = y + p[i] * t2; 
187E:  MOVLB  4
1880:  MOVF   x70,W
1882:  MULLW  04
1884:  MOVF   FF3,W
1886:  CLRF   03
1888:  ADDLW  75
188A:  MOVWF  FE9
188C:  MOVLW  04
188E:  ADDWFC 03,W
1890:  MOVWF  FEA
1892:  MOVFF  FEF,489
1896:  MOVFF  FEC,48A
189A:  MOVFF  FEC,48B
189E:  MOVFF  FEC,48C
18A2:  MOVFF  48C,490
18A6:  MOVFF  48B,48F
18AA:  MOVFF  48A,48E
18AE:  MOVFF  489,48D
18B2:  MOVFF  46E,494
18B6:  MOVFF  46D,493
18BA:  MOVFF  46C,492
18BE:  MOVFF  46B,491
18C2:  MOVLB  0
18C4:  CALL   0FF4
18C8:  MOVFF  FEA,48A
18CC:  MOVFF  FE9,489
18D0:  BCF    FD8.1
18D2:  MOVFF  466,490
18D6:  MOVFF  465,48F
18DA:  MOVFF  464,48E
18DE:  MOVFF  463,48D
18E2:  MOVFF  03,494
18E6:  MOVFF  02,493
18EA:  MOVFF  01,492
18EE:  MOVFF  00,491
18F2:  RCALL  1336
18F4:  MOVFF  48A,FEA
18F8:  MOVFF  489,FE9
18FC:  MOVFF  03,466
1900:  MOVFF  02,465
1904:  MOVFF  01,464
1908:  MOVFF  00,463
190C:  MOVLB  4
190E:  INCF   x70,F
1910:  BRA    1842
....................    } 
....................  
....................    if (quad == 2 || quad == 1) 
1912:  MOVF   x6F,W
1914:  SUBLW  02
1916:  BZ    191C
1918:  DECFSZ x6F,W
191A:  BRA    1922
....................       y = -y;  // correct sign 
191C:  MOVF   x64,W
191E:  XORLW  80
1920:  MOVWF  x64
....................  
....................    return (y); 
1922:  MOVFF  463,00
1926:  MOVFF  464,01
192A:  MOVFF  465,02
192E:  MOVFF  466,03
1932:  MOVLB  0
1934:  RETURN 0
.................... } 
....................  
....................  
.................... //Overloaded functions for cos() for PCD 
.................... // Overloaded function cos() for data type - Float48 
.................... #if defined(__PCD__) 
.................... float48 cos(float48 x) 
.................... { 
....................    float48 y, t, t2 = 1.0; 
....................    unsigned int8 quad, i; 
....................    float48 frac; 
....................    float48 p[6] = {                    //by the series definition for cosine 
....................       -0.5,                            // sum ( ( (-1)^n * x^2n )/(2n)! ) 
....................        0.04166666666667, 
....................       -0.00138888888889, 
....................        0.00002480158730, 
....................       -0.00000027557319, 
....................        0.00000000208767, 
....................       //-0.00000000001147, 
....................       // 0.00000000000005 
....................    }; 
....................  
....................    if (x < 0) x = -x;                  // absolute value of input 
....................  
....................    quad = (unsigned int8)(x * PI_DIV_BY_TWO_INV);    // quadrant 
....................    frac = (x * PI_DIV_BY_TWO_INV) - quad;  // fractional part of input 
....................    quad = quad % 4;                    // quadrant (0 to 3) 
....................  
....................    if (quad == 0 || quad == 2) 
....................       t = frac * PI_DIV_BY_TWO; 
....................    else if (quad == 1) 
....................       t = (1-frac) * PI_DIV_BY_TWO; 
....................    else // should be 3 
....................       t = (frac-1) * PI_DIV_BY_TWO; 
....................  
....................    y = 0.999999999781; 
....................    t = t * t; 
....................    for (i = 0; i <= 5; i++) 
....................    { 
....................       t2 = t2 * t; 
....................       y = y + p[i] * t2; 
....................    } 
....................  
....................    if (quad == 2 || quad == 1) 
....................       y = -y;  // correct sign 
....................  
....................    return (y); 
.................... } 
....................  
.................... // Overloaded function cos() for data type - Float64 
.................... float64 cos(float64 x) 
.................... { 
....................    float64 y, t, t2 = 1.0; 
....................    unsigned int8 quad, i; 
....................    float64 frac; 
....................    float64 p_64[9] = {               //by the series definition for cosine 
....................      -0.49999999999998740,           // sum ( ( (-1)^n * x^2n )/(2n)! )              
....................       0.04166666666656518, 
....................      -0.00138888888851691, 
....................       0.00002480158658490, 
....................      -0.00000027557239796, 
....................       0.00000000208715031, 
....................      -0.00000000001126577, 
....................       0.00000000000000427, 
....................       0.00000000000000372}; 
....................  
....................    if (x < 0) x = -x;                  // absolute value of input 
....................  
....................    quad = (unsigned int8)(x * PI_DIV_BY_TWO_INV);    // quadrant 
....................    frac = (x * PI_DIV_BY_TWO_INV) - quad;  // fractional part of input 
....................    quad = quad % 4;                    // quadrant (0 to 3) 
....................  
....................    if (quad == 0 || quad == 2) 
....................       t = frac * PI_DIV_BY_TWO; 
....................    else if (quad == 1) 
....................       t = (1-frac) * PI_DIV_BY_TWO; 
....................    else // should be 3 
....................       t = (frac-1) * PI_DIV_BY_TWO; 
....................  
....................    y = 1.0; 
....................    t = t * t; 
....................    for (i = 0; i <= 8; i++) 
....................    { 
....................       t2 = t2 * t; 
....................       y = y + p_64[i] * t2; 
....................    } 
....................  
....................    if (quad == 2 || quad == 1) 
....................       y = -y;  // correct sign 
....................  
....................    return (y); 
.................... } 
....................  
.................... #endif 
....................  
.................... //////////////////////////////////////////////////////////////////////////// 
.................... //   float sin(float x) 
.................... //////////////////////////////////////////////////////////////////////////// 
.................... // Description : returns the sine value of the angle x, which is in radian 
.................... // Date : 9/20/2001 
.................... // 
.................... float32 sin(float32 x) 
.................... { 
....................    return cos(x - PI_DIV_BY_TWO); 
1936:  BSF    FD8.1
1938:  MOVFF  45A,490
193C:  MOVFF  459,48F
1940:  MOVFF  458,48E
1944:  MOVFF  457,48D
1948:  MOVLW  DB
194A:  MOVLB  4
194C:  MOVWF  x94
194E:  MOVLW  0F
1950:  MOVWF  x93
1952:  MOVLW  49
1954:  MOVWF  x92
1956:  MOVLW  7F
1958:  MOVWF  x91
195A:  MOVLB  0
195C:  RCALL  1336
195E:  MOVFF  03,45E
1962:  MOVFF  02,45D
1966:  MOVFF  01,45C
196A:  MOVFF  00,45B
196E:  MOVFF  03,462
1972:  MOVFF  02,461
1976:  MOVFF  01,460
197A:  MOVFF  00,45F
197E:  RCALL  15AE
1980:  GOTO   1B2A (RETURN)
.................... } 
....................  
.................... //Overloaded functions for sin() for PCD 
.................... // Overloaded function sin() for data type - Float48 
.................... #if defined(__PCD__) 
.................... float48 sin(float48 x) 
.................... { 
....................    return cos(x - PI_DIV_BY_TWO); 
.................... } 
....................  
.................... // Overloaded function sin() for data type - Float48 
.................... float64 sin(float64 x) 
.................... { 
....................    return cos(x - PI_DIV_BY_TWO); 
.................... } 
.................... #endif 
....................  
.................... //////////////////////////////////////////////////////////////////////////// 
.................... //   float tan(float x) 
.................... //////////////////////////////////////////////////////////////////////////// 
.................... // Description : returns the tangent value of the angle x, which is in radian 
.................... // Date : 9/20/2001 
.................... // 
.................... float32 tan(float32 x) 
.................... { 
....................    float32 c, s; 
....................  
....................    c = cos(x); 
....................    if (c == 0.0) 
....................       return (1.0e+36); 
....................  
....................    s = sin(x); 
....................    return(s/c); 
.................... } 
.................... //Overloaded functions for tan() for PCD 
.................... // Overloaded function tan() for data type - Float48 
.................... #if defined(__PCD__) 
.................... float48 tan(float48 x) 
.................... { 
....................    float48 c, s; 
....................  
....................    c = cos(x); 
....................    if (c == 0.0) 
....................       return (1.0e+36); 
....................  
....................    s = sin(x); 
....................    return(s/c); 
.................... } 
....................  
.................... // Overloaded function tan() for data type - Float48 
.................... float64 tan(float64 x) 
.................... { 
....................    float64 c, s; 
....................  
....................    c = cos(x); 
....................    if (c == 0.0) 
....................       return (1.0e+36); 
....................  
....................    s = sin(x); 
....................    return(s/c); 
.................... } 
.................... #endif 
....................  
.................... float32 const pas[3] = {0.49559947, -4.6145309, 5.6036290}; 
.................... float32 const qas[3] = {1.0000000,  -5.5484666, 5.6036290}; 
....................  
.................... float32 ASIN_COS(float32 x, unsigned int8 n) 
.................... { 
....................    float32 y, res, r, y2; 
....................    int1 s; 
....................    #ifdef _ERRNO 
....................    if(x <-1 || x > 1) 
....................    { 
....................       errno=EDOM; 
....................    } 
....................    #endif 
....................    s = 0; 
....................    y = x; 
....................  
....................    if (x < 0) 
....................    { 
....................       s = 1; 
....................       y = -y; 
....................    } 
....................  
....................    if (y > 0.5) 
....................    { 
....................       y = sqrt((1.0 - y)*0.5); 
....................       n += 2; 
....................    } 
....................  
....................    y2=y*y; 
....................  
....................    res = pas[0]*y2 + pas[1]; 
....................    res = res*y2 + pas[2]; 
....................  
....................    r = qas[0]*y2 + qas[1]; 
....................    r = r*y2 + qas[2]; 
....................  
....................    res = y*res/r; 
....................  
....................    if (n & 2)     // |x| > 0.5 
....................       res = PI_DIV_BY_TWO - 2.0*res; 
....................    if (s) 
....................       res = -res; 
....................    if (n & 1)           // take arccos 
....................       res = PI_DIV_BY_TWO - res; 
....................  
....................    return(res); 
.................... } 
....................  
....................  
.................... //Overloaded functions for ASIN_COS() for PCD 
.................... // Overloaded function ASIN_COS() for data type - Float48 
.................... #if defined(__PCD__) 
.................... float48 ASIN_COS(float48 x, unsigned int8 n) 
.................... { 
....................    float48 y, res, r, y2; 
....................    int1 s; 
....................    #ifdef _ERRNO 
....................    if(x <-1 || x > 1) 
....................    { 
....................       errno=EDOM; 
....................    } 
....................    #endif 
....................    s = 0; 
....................    y = x; 
....................  
....................    if (x < 0) 
....................    { 
....................       s = 1; 
....................       y = -y; 
....................    } 
....................  
....................    if (y > 0.5) 
....................    { 
....................       y = sqrt((1.0 - y)*0.5); 
....................       n += 2; 
....................    } 
....................  
....................    y2=y*y; 
....................  
....................    res = pas[0]*y2 + pas[1]; 
....................    res = res*y2 + pas[2]; 
....................  
....................    r = qas[0]*y2 + qas[1]; 
....................    r = r*y2 + qas[2]; 
....................  
....................    res = y*res/r; 
....................  
....................    if (n & 2)     // |x| > 0.5 
....................       res = PI_DIV_BY_TWO - 2.0*res; 
....................    if (s) 
....................       res = -res; 
....................    if (n & 1)           // take arccos 
....................       res = PI_DIV_BY_TWO - res; 
....................  
....................    return(res); 
.................... } 
....................  
.................... // Overloaded function ASIN_COS() for data type - Float64 
.................... double pas_64[5]={1.000000000000000,-2.069938587724477,1.421444580548907, 
....................                  -0.360690137621842,0.024929451660228}; 
....................  
.................... double qas_64[5]={-2.236605254391134,1.719212122946451,-0.524122954476133, 
....................                    0.052808872045749,-0.000662536036570}; 
....................                     
.................... float64 ASIN_COS(float64 x, unsigned int8 n) 
.................... { 
....................    float64 y, res, r, y2; 
....................    int1 s; 
....................    #ifdef _ERRNO 
....................    if(x <-1 || x > 1) 
....................    { 
....................       errno=EDOM; 
....................    } 
....................    #endif 
....................    s = 0; 
....................    y = x; 
....................  
....................    if (x < 0) 
....................    { 
....................       s = 1; 
....................       y = -y; 
....................    } 
....................  
....................    if (y > 0.5) 
....................    { 
....................       y = sqrt((1.0 - y)*0.5); 
....................       n += 2; 
....................    } 
....................  
....................    y2=y*y; 
....................  
....................    res = pas_64[4]*y2 + pas_64[3]; 
....................    res = res*y2 + pas_64[2]; 
....................    res = res*y2 + pas_64[1]; 
....................    res = res*y2 + pas_64[0]; 
....................  
....................    r = qas_64[4]*y2 + qas_64[3]; 
....................    r = r*y2 + qas_64[2]; 
....................    r = r*y2 + qas_64[1]; 
....................    r = r*y2 + qas_64[0]; 
....................    r = r*y2 + 1.0; 
....................  
....................    res = y*res/r; 
....................  
....................    if (n & 2)     // |x| > 0.5 
....................       res = PI_DIV_BY_TWO - 2.0*res; 
....................    if (s) 
....................       res = -res; 
....................    if (n & 1)           // take arccos 
....................       res = PI_DIV_BY_TWO - res; 
....................  
....................    return(res); 
.................... } 
.................... #endif 
....................  
.................... //////////////////////////////////////////////////////////////////////////// 
.................... //   float asin(float x) 
.................... //////////////////////////////////////////////////////////////////////////// 
.................... // Description : returns the arcsine value of the value x. 
.................... // Date : N/A 
.................... // 
.................... float32 asin(float32 x) 
.................... { 
....................    float32 r; 
....................  
....................    r = ASIN_COS(x, 0); 
....................    return(r); 
.................... } 
.................... //Overloaded functions for asin() for PCD 
.................... // Overloaded function asin() for data type - Float48 
.................... #if defined(__PCD__) 
.................... float48 asin(float48 x) 
.................... { 
....................    float48 r; 
....................  
....................    r = ASIN_COS(x, 0); 
....................    return(r); 
.................... } 
....................  
.................... // Overloaded function asin() for data type - Float64 
.................... float64 asin(float64 x) 
.................... { 
....................    float64 r; 
....................  
....................    r = ASIN_COS(x, 0); 
....................    return(r); 
.................... } 
.................... #endif 
....................  
.................... //////////////////////////////////////////////////////////////////////////// 
.................... //   float acos(float x) 
.................... //////////////////////////////////////////////////////////////////////////// 
.................... // Description : returns the arccosine value of the value x. 
.................... // Date : N/A 
.................... // 
.................... float32 acos(float32 x) 
.................... { 
....................    float32 r; 
....................  
....................    r = ASIN_COS(x, 1); 
....................    return(r); 
.................... } 
.................... //Overloaded functions for acos() for PCD 
.................... // Overloaded function acos() for data type - Float48 
.................... #if defined(__PCD__) 
.................... float48 acos(float48 x) 
.................... { 
....................    float48 r; 
....................  
....................    r = ASIN_COS(x, 1); 
....................    return(r); 
.................... } 
....................  
.................... // Overloaded function acos() for data type - Float64 
.................... float64 acos(float64 x) 
.................... { 
....................    float64 r; 
....................  
....................    r = ASIN_COS(x, 1); 
....................    return(r); 
.................... } 
.................... #endif 
....................  
.................... float32 const pat[4] = {0.17630401, 5.6710795, 22.376096, 19.818457}; 
.................... float32 const qat[4] = {1.0000000,  11.368190, 28.982246, 19.818457}; 
....................  
.................... //////////////////////////////////////////////////////////////////////////// 
.................... //   float atan(float x) 
.................... //////////////////////////////////////////////////////////////////////////// 
.................... // Description : returns the arctangent value of the value x. 
.................... // Date : N/A 
.................... // 
.................... float32 atan(float32 x) 
.................... { 
....................    float32 y, res, r; 
....................    int1 s, flag; 
....................  
....................    s = 0; 
....................    flag = 0; 
....................    y = x; 
....................  
....................    if (x < 0) 
....................    { 
....................       s = 1; 
....................       y = -y; 
....................    } 
....................  
....................    if (y > 1.0) 
....................    { 
....................       y = 1.0/y; 
....................       flag = 1; 
....................    } 
....................  
....................    res = pat[0]*y*y + pat[1]; 
....................    res = res*y*y + pat[2]; 
....................    res = res*y*y + pat[3]; 
....................  
....................    r = qat[0]*y*y + qat[1]; 
....................    r = r*y*y + qat[2]; 
....................    r = r*y*y + qat[3]; 
....................  
....................    res = y*res/r; 
....................  
....................  
....................    if (flag)                              // for |x| > 1 
....................       res = PI_DIV_BY_TWO - res; 
....................    if (s) 
....................       res = -res; 
....................  
....................    return(res); 
.................... } 
.................... //Overloaded functions for atan() for PCD 
.................... // Overloaded function atan() for data type - Float48 
.................... #if defined(__PCD__) 
.................... float48 atan(float48 x) 
.................... { 
....................    float48 y, res, r; 
....................    int1 s, flag; 
....................  
....................    s = 0; 
....................    flag = 0; 
....................    y = x; 
....................  
....................    if (x < 0) 
....................    { 
....................       s = 1; 
....................       y = -y; 
....................    } 
....................  
....................    if (y > 1.0) 
....................    { 
....................       y = 1.0/y; 
....................       flag = 1; 
....................    } 
....................  
....................    res = pat[0]*y*y + pat[1]; 
....................    res = res*y*y + pat[2]; 
....................    res = res*y*y + pat[3]; 
....................  
....................    r = qat[0]*y*y + qat[1]; 
....................    r = r*y*y + qat[2]; 
....................    r = r*y*y + qat[3]; 
....................  
....................    res = y*res/r; 
....................  
....................  
....................    if (flag)                              // for |x| > 1 
....................       res = PI_DIV_BY_TWO - res; 
....................    if (s) 
....................       res = -res; 
....................  
....................    return(res); 
.................... } 
....................  
.................... float64 pat_64[6]={0.999999999999999,2.249923645595566,1.771541617806449, 
....................                    0.579678874003185,0.072162702162882,0.002281100141660}; 
....................  
.................... float64 qat_64[6]={2.583256978928510,2.432627277466967,1.016760379885393, 
....................                    0.182482977188688,0.011155377971690,0.000100013019160}; 
.................... // Overloaded function atan() for data type - Float64 
.................... float64 atan(float64 x) 
.................... { 
....................    float64 y,y2, res, r; 
....................    int1 s, flag; 
....................  
....................    s = 0; 
....................    flag = 0; 
....................    y = x; 
....................  
....................    if (x < 0) 
....................    { 
....................       s = 1; 
....................       y = -y; 
....................    } 
....................  
....................    if (y > 1.0) 
....................    { 
....................       y = 1.0/y; 
....................       flag = 1; 
....................    } 
....................    y2 = y*y; 
....................    res = pat_64[5]*y2 + pat_64[4]; 
....................    res = res*y2 + pat_64[3]; 
....................    res = res*y2 + pat_64[2]; 
....................    res = res*y2 + pat_64[1]; 
....................    res = res*y2 + pat_64[0]; 
....................  
....................    r = qat_64[5]*y2 + qat_64[4]; 
....................    r = r*y2 + qat_64[3]; 
....................    r = r*y2 + qat_64[2]; 
....................    r = r*y2 + qat_64[1]; 
....................    r = r*y2 + qat_64[0]; 
....................    r = r*y2 + 1.0; 
....................  
....................    res = y*res/r; 
....................  
....................  
....................    if (flag)                              // for |x| > 1 
....................       res = PI_DIV_BY_TWO - res; 
....................    if (s) 
....................       res = -res; 
....................  
....................    return(res); 
.................... } 
.................... #endif 
....................  
.................... ///////////////////////////////////////////////////////////////////////////// 
.................... //   float atan2(float y, float x) 
.................... ///////////////////////////////////////////////////////////////////////////// 
.................... // Description :computes the principal value of arc tangent of y/x, using the 
.................... // signs of both the arguments to determine the quadrant of the return value 
.................... // Returns : returns the arc tangent of y/x. 
.................... // Date : N/A 
.................... // 
....................  
.................... float32 atan2(float32 y,float32 x) 
.................... { 
....................    float32 z; 
....................    int1 sign; 
....................    unsigned int8 quad; 
....................    sign=0; 
....................    quad=0; //quadrant 
....................    quad=((y<=0.0)?((x<=0.0)?3:4):((x<0.0)?2:1)); 
....................    if(y<0.0) 
....................    { 
....................       sign=1; 
....................       y=-y; 
....................    } 
....................    if(x<0.0) 
....................    { 
....................       x=-x; 
....................    } 
....................    if (x==0.0) 
....................    { 
....................       if(y==0.0) 
....................       { 
....................       #ifdef _ERRNO 
....................       { 
....................          errno=EDOM; 
....................       } 
....................       #endif 
....................       } 
....................       else 
....................       { 
....................          if(sign) 
....................          { 
....................          return (-(PI_DIV_BY_TWO)); 
....................          } 
....................          else 
....................          { 
....................          return (PI_DIV_BY_TWO); 
....................          } 
....................       } 
....................    } 
....................    else 
....................    { 
....................       z=y/x; 
....................       switch(quad) 
....................       { 
....................          case 1: 
....................          { 
....................             return atan(z); 
....................             break; 
....................          } 
....................          case 2: 
....................          { 
.................... //            return (atan(z)+PI_DIV_BY_TWO);  //2L3122 
....................             return (PI-atan(z)); 
....................             break; 
....................          } 
....................          case 3: 
....................          { 
....................             return (atan(z)-PI); 
....................             break; 
....................          } 
....................          case 4: 
....................          { 
....................             return (-atan(z)); 
....................             break; 
....................          } 
....................       } 
....................    } 
.................... } 
....................  
.................... //Overloaded functions for atan2() for PCD 
.................... // Overloaded function atan2() for data type - Float48 
.................... #if defined(__PCD__) 
.................... float48 atan2(float48 y,float48 x) 
.................... { 
....................    float48 z; 
....................    int1 sign; 
....................    unsigned int8 quad; 
....................    sign=0; 
....................    quad=0; //quadrant 
....................    quad=((y<=0.0)?((x<=0.0)?3:4):((x<0.0)?2:1)); 
....................    if(y<0.0) 
....................    { 
....................       sign=1; 
....................       y=-y; 
....................    } 
....................    if(x<0.0) 
....................    { 
....................       x=-x; 
....................    } 
....................    if (x==0.0) 
....................    { 
....................       if(y==0.0) 
....................       { 
....................       #ifdef _ERRNO 
....................       { 
....................          errno=EDOM; 
....................       } 
....................       #endif 
....................       } 
....................       else 
....................       { 
....................          if(sign) 
....................          { 
....................          return (-(PI_DIV_BY_TWO)); 
....................          } 
....................          else 
....................          { 
....................          return (PI_DIV_BY_TWO); 
....................          } 
....................       } 
....................    } 
....................    else 
....................    { 
....................       z=y/x; 
....................       switch(quad) 
....................       { 
....................          case 1: 
....................          { 
....................             return atan(z); 
....................             break; 
....................          } 
....................          case 2: 
....................          { 
.................... //            return (atan(z)+PI_DIV_BY_TWO);  //2L3122 
....................             return (PI-atan(z)); 
....................             break; 
....................          } 
....................          case 3: 
....................          { 
....................             return (atan(z)-PI); 
....................             break; 
....................          } 
....................          case 4: 
....................          { 
....................             return (-atan(z)); 
....................             break; 
....................          } 
....................       } 
....................    } 
.................... } 
....................  
.................... // Overloaded function atan2() for data type - Float64 
.................... float64 atan2(float64 y,float64 x) 
.................... { 
....................    float64 z; 
....................    int1 sign; 
....................    unsigned int8 quad; 
....................    sign=0; 
....................    quad=0; //quadrant 
....................    quad=((y<=0.0)?((x<=0.0)?3:4):((x<0.0)?2:1)); 
....................    if(y<0.0) 
....................    { 
....................       sign=1; 
....................       y=-y; 
....................    } 
....................    if(x<0.0) 
....................    { 
....................       x=-x; 
....................    } 
....................    if (x==0.0) 
....................    { 
....................       if(y==0.0) 
....................       { 
....................       #ifdef _ERRNO 
....................       { 
....................          errno=EDOM; 
....................       } 
....................       #endif 
....................       } 
....................       else 
....................       { 
....................          if(sign) 
....................          { 
....................          return (-(PI_DIV_BY_TWO)); 
....................          } 
....................          else 
....................          { 
....................          return (PI_DIV_BY_TWO); 
....................          } 
....................       } 
....................    } 
....................    else 
....................    { 
....................       z=y/x; 
....................       switch(quad) 
....................       { 
....................          case 1: 
....................          { 
....................             return atan(z); 
....................             break; 
....................          } 
....................          case 2: 
....................          { 
.................... //            return (atan(z)+PI_DIV_BY_TWO);  //2L3122 
....................             return (PI-atan(z)); 
....................             break; 
....................          } 
....................          case 3: 
....................          { 
....................             return (atan(z)-PI); 
....................             break; 
....................          } 
....................          case 4: 
....................          { 
....................             return (-atan(z)); 
....................             break; 
....................          } 
....................       } 
....................    } 
.................... } 
.................... #endif 
....................  
.................... //////////////////// Hyperbolic functions //////////////////// 
....................  
.................... //////////////////////////////////////////////////////////////////////////// 
.................... //   float cosh(float x) 
.................... //////////////////////////////////////////////////////////////////////////// 
.................... // Description : Computes the hyperbolic cosine value of x 
.................... // Returns : returns the hyperbolic cosine value of x 
.................... // Date : N/A 
.................... // 
....................  
.................... float32 cosh(float32 x) 
.................... { 
....................    return ((exp(x)+exp(-x))*0.5); 
.................... } 
.................... //Overloaded functions for cosh() for PCD 
.................... // Overloaded function cosh() for data type - Float48 
.................... #if defined(__PCD__) 
.................... float48 cosh(float48 x) 
.................... { 
....................    return ((exp(x)+exp(-x))*0.5); 
.................... } 
....................  
.................... // Overloaded function cosh() for data type - Float64 
.................... float64 cosh(float64 x) 
.................... { 
....................    return ((exp(x)+exp(-x))*0.5); 
.................... } 
.................... #endif 
....................  
.................... //////////////////////////////////////////////////////////////////////////// 
.................... //   float sinh(float x) 
.................... //////////////////////////////////////////////////////////////////////////// 
.................... // Description : Computes the hyperbolic sine value of x 
.................... // Returns : returns the hyperbolic sine value of x 
.................... // Date : N/A 
.................... // 
....................  
.................... float32 sinh(float32 x) 
.................... { 
....................  
....................    return ((exp(x) - exp(-x))*0.5); 
.................... } 
.................... //Overloaded functions for sinh() for PCD 
.................... // Overloaded function sinh() for data type - Float48 
.................... #if defined(__PCD__) 
.................... float48 sinh(float48 x) 
.................... { 
....................  
....................    return ((exp(x) - exp(-x))*0.5); 
.................... } 
....................  
.................... // Overloaded function sinh() for data type - Float48 
.................... float64 sinh(float64 x) 
.................... { 
....................  
....................    return ((exp(x) - exp(-x))*0.5); 
.................... } 
.................... #endif 
....................  
.................... //////////////////////////////////////////////////////////////////////////// 
.................... //   float tanh(float x) 
.................... //////////////////////////////////////////////////////////////////////////// 
.................... // Description : Computes the hyperbolic tangent value of x 
.................... // Returns : returns the hyperbolic tangent value of x 
.................... // Date : N/A 
.................... // 
....................  
.................... float32 tanh(float32 x) 
.................... { 
....................    return(sinh(x)/cosh(x)); 
.................... } 
.................... //Overloaded functions for tanh() for PCD 
.................... // Overloaded function tanh() for data type - Float48 
.................... #if defined(__PCD__) 
.................... float48 tanh(float48 x) 
.................... { 
....................    return(sinh(x)/cosh(x)); 
.................... } 
....................  
.................... // Overloaded function tanh() for data type - Float64 
.................... float64 tanh(float64 x) 
.................... { 
....................    return(sinh(x)/cosh(x)); 
.................... } 
.................... #endif 
....................  
.................... //////////////////////////////////////////////////////////////////////////// 
.................... //   float frexp(float x, signed int *exp) 
.................... //////////////////////////////////////////////////////////////////////////// 
.................... // Description : breaks a floating point number into a normalized fraction and an integral 
.................... // power of 2. It stores the integer in the signed int object pointed to by exp. 
.................... // Returns : returns the value x, such that x is a double with magnitude in the interval 
.................... // [1/2,1) or zero, and value equals x times 2 raised to the power *exp.If value is zero, 
.................... // both parts of the result are zero. 
.................... // Date : N/A 
.................... // 
....................  
.................... #define LOG2 .30102999566398119521 
.................... #define LOG2_INV 3.32192809488736234787 
.................... float32 frexp(float32 x, signed int8 *exp) 
.................... { 
....................    float32 res; 
....................    int1 sign = 0; 
....................    if(x == 0.0) 
....................    { 
....................       *exp=0; 
....................       return (0.0); 
....................    } 
....................    if(x < 0.0) 
....................    { 
....................      x=-x; 
....................      sign=1; 
....................    } 
....................    if (x > 1.0) 
....................    { 
....................       *exp=(ceil(log10(x)*LOG2_INV)); 
....................       res=x/(pow(2, *exp)); 
....................       if (res == 1) 
....................       { 
....................          *exp=*exp+1; 
....................           res=.5; 
....................       } 
....................    } 
....................    else 
....................    { 
....................       if(x < 0.5) 
....................       { 
....................          *exp=-1; 
....................          res=x*2; 
....................       } 
....................       else 
....................       { 
....................          *exp=0; 
....................           res=x; 
....................       } 
....................    } 
....................    if(sign) 
....................    { 
....................       res=-res; 
....................    } 
....................    return res; 
.................... } 
....................  
.................... //Overloaded functions for frexp() for PCD 
.................... // Overloaded function frexp() for data type - Float48 
.................... #if defined(__PCD__) 
.................... float48 frexp(float48 x, signed int8 *exp) 
.................... { 
....................    float48 res; 
....................    int1 sign = 0; 
....................    if(x == 0.0) 
....................    { 
....................       *exp=0; 
....................       return (0.0); 
....................    } 
....................    if(x < 0.0) 
....................    { 
....................      x=-x; 
....................      sign=1; 
....................    } 
....................    if (x > 1.0) 
....................    { 
....................       *exp=(ceil(log10(x)*LOG2_INV)); 
....................       res=x/(pow(2, *exp)); 
....................       if (res == 1) 
....................       { 
....................          *exp=*exp+1; 
....................           res=.5; 
....................       } 
....................    } 
....................    else 
....................    { 
....................       if(x < 0.5) 
....................       { 
....................          *exp=-1; 
....................          res=x*2; 
....................       } 
....................       else 
....................       { 
....................          *exp=0; 
....................           res=x; 
....................       } 
....................    } 
....................    if(sign) 
....................    { 
....................       res=-res; 
....................    } 
....................    return res; 
.................... } 
....................  
.................... // Overloaded function frexp() for data type - Float64 
.................... float64 frexp(float64 x, signed int8 *exp) 
.................... { 
....................    float64 res; 
....................    int1 sign = 0; 
....................    if(x == 0.0) 
....................    { 
....................       *exp=0; 
....................       return (0.0); 
....................    } 
....................    if(x < 0.0) 
....................    { 
....................      x=-x; 
....................      sign=1; 
....................    } 
....................    if (x > 1.0) 
....................    { 
....................       *exp=(ceil(log10(x)*LOG2_INV)); 
....................       res=x/(pow(2, *exp)); 
....................       if (res == 1) 
....................       { 
....................          *exp=*exp+1; 
....................           res=.5; 
....................       } 
....................    } 
....................    else 
....................    { 
....................       if(x < 0.5) 
....................       { 
....................          *exp=-1; 
....................          res=x*2; 
....................       } 
....................       else 
....................       { 
....................          *exp=0; 
....................           res=x; 
....................       } 
....................    } 
....................    if(sign) 
....................    { 
....................       res=-res; 
....................    } 
....................    return res; 
.................... } 
.................... #endif 
....................  
.................... ////////////////////////////////////////////////////////////////////////////// 
.................... //   float ldexp(float x, signed int *exp) 
.................... ////////////////////////////////////////////////////////////////////////////// 
.................... // Description : multiplies a floating point number by an integral power of 2. 
.................... // Returns : returns the value of x times 2 raised to the power exp. 
.................... // Date : N/A 
.................... // 
....................  
.................... float32 ldexp(float32 value, signed int8 exp) 
.................... { 
....................    return (value * pow(2,exp)); 
.................... } 
.................... //Overloaded functions for ldexp() for PCD 
.................... // Overloaded function ldexp() for data type - Float48 
....................  
.................... #if defined(__PCD__) 
.................... float48 ldexp(float48 value, signed int8 exp) 
.................... { 
....................    return (value * pow(2,exp)); 
.................... } 
.................... // Overloaded function ldexp() for data type - Float64 
.................... float64 ldexp(float64 value, signed int8 exp) 
.................... { 
....................    return (value * pow(2,exp)); 
.................... } 
.................... #endif 
....................  
.................... #endif 
....................  
....................  
.................... #include <tv_03_32led_don.c>  
.................... //xxxxxxxxxxxxxxxxxxxxxxxxxxxxxxxxxxxxxxxxxxxxxxxxxxxxxxxx 
.................... //NGUYEN DINH PHU SU PHAM KY THUAT TP HCM 
.................... //xxxxxxxxxxxxxxxxxxxxxxxxxxxxxxxxxxxxxxxxxxxxxxxxxxxxxxxx 
.................... //xxxxxxxxxxxxxxxxxxxxxxxxxxxxxxxxxxxxxxxxxxxxxxxxxxxxxxxx 
.................... //ham 301: chuong trinh con xuat 4 byte ra 32 led don 
.................... //xxxxxxxxxxxxxxxxxxxxxxxxxxxxxxxxxxxxxxxxxxxxxxxxxxxxxxxx 
.................... void xuat_32led_don_4byte(usi8 bld3,bld2,bld1,bld0) 
.................... {      
....................    xuat_1byte(bld3);  xuat_1byte(bld2); 
....................    xuat_1byte(bld1);  xuat_1byte(bld0);             
....................                       
....................    output_high(rck_32led);     
....................    output_low(rck_32led);       
.................... } 
.................... //xxxxxxxxxxxxxxxxxxxxxxxxxxxxxxxxxxxxxxxxxxxxxxxxxxxxxxxx 
.................... //ham 302: chuong trinh con xuat 2 word 16 bitra 32 led don 
.................... //xxxxxxxxxxxxxxxxxxxxxxxxxxxxxxxxxxxxxxxxxxxxxxxxxxxxxxxx 
.................... void xuat_32led_don_2word(usi16 wld1,usi16 wld0) 
.................... {      
....................    unsigned int8  b3,b2,b1,b0; 
....................    b3 = wld1>>8;  b2 = wld1;  
....................    b1 = wld0>>8;  b0 = wld0; 
....................    xuat_32led_don_4byte(b3,b2,b1,b0); 
.................... } 
.................... //xxxxxxxxxxxxxxxxxxxxxxxxxxxxxxxxxxxxxxxxxxxxxxxxxxxxxxxx 
.................... //ham 303: chuong trinh con xuat 1 double word ra 32 led don 
.................... //xxxxxxxxxxxxxxxxxxxxxxxxxxxxxxxxxxxxxxxxxxxxxxxxxxxxxxxx 
.................... void xuat_32led_don_1dw(usi32 dwld) 
.................... {      
....................    unsigned int16  wd1,wd0; 
....................    wd1 = dwld>>16;  wd0 = dwld; 
....................    xuat_32led_don_2word(wd1,wd0); 
.................... } 
.................... //xxxxxxxxxxxxxxxxxxxxxxxxxxxxxxxxxxxxxxxxxxxxxxxxxxxxxxxx 
.................... //ham 304: chuong trinh con xuat 1 byte ra 32 led don 
.................... //xxxxxxxxxxxxxxxxxxxxxxxxxxxxxxxxxxxxxxxxxxxxxxxxxxxxxxxx 
.................... void xuat_32led_don_1byte(usi8 b0) 
.................... {      
....................    xuat_32led_don_4byte(0,0,0,b0); 
.................... }   
....................  
.................... #include <tv_04_4led_7doan.c>  
.................... //xxxxxxxxxxxxxxxxxxxxxxxxxxxxxxxxxxxxxxxxxxxxxxxxxxxxxxxx 
.................... //NGUYEN DINH PHU SU PHAM KY THUAT TP HCM 
.................... //xxxxxxxxxxxxxxxxxxxxxxxxxxxxxxxxxxxxxxxxxxxxxxxxxxxxxxxx 
....................  
.................... //xxxxxxxxxxxxxxxxxxxxxxxxxxxxxxxxxxxxxxxxxxxxxxxxxxxxxxxx 
.................... //khai bao mang va dnh nghia cac bien cho module 4led 7 doan 
.................... //xxxxxxxxxxxxxxxxxxxxxxxxxxxxxxxxxxxxxxxxxxxxxxxxxxxxxxxx 
.................... unsigned int8 dl_4l7d[4]= {0xff,0xff,0xff,0xff}; 
.................... #define ngan4  dl_4l7d[0] 
.................... #define tram4  dl_4l7d[1] 
.................... #define chuc4  dl_4l7d[2] 
.................... #define donvi4 dl_4l7d[3]             
....................                                            
.................... #define l7d_43 dl_4l7d[0] 
.................... #define l7d_42 dl_4l7d[1] 
.................... #define l7d_41 dl_4l7d[2] 
.................... #define l7d_40 dl_4l7d[3]             
.................... //xxxxxxxxxxxxxxxxxxxxxxxxxxxxxxxxxxxxxxxxxxxxxxxxxxxxxxxx 
.................... //ham 401: xuat 4 byte ra 4 led 7 doan 
.................... //xxxxxxxxxxxxxxxxxxxxxxxxxxxxxxxxxxxxxxxxxxxxxxxxxxxxxxxx 
.................... void xuat_4led_7doan_4so() 
.................... {                                                                   
....................    xuat_1byte(dl_4l7d[3]);    
....................    xuat_1byte(dl_4l7d[2]); 
....................    xuat_1byte(dl_4l7d[1]);    
....................    xuat_1byte(dl_4l7d[0]); 
....................                                     
....................    output_low(rck_4l7d);    
....................    output_high(rck_4l7d); 
.................... }                                                   
.................... //xxxxxxxxxxxxxxxxxxxxxxxxxxxxxxxxxxxxxxxxxxxxxxxxxxxxxxxx 
.................... //ham 402: giai ma so x 2 so, luu o led thu y, tuy chon xoa vn 
.................... //xxxxxxxxxxxxxxxxxxxxxxxxxxxxxxxxxxxxxxxxxxxxxxxxxxxxxxxx 
.................... void md4l7d_giaima_2so_vitri_vn(usi8 x,y, int1 xvn) 
.................... {                                         
....................    dl_4l7d[y]   = ma7doan[x%10];        
....................    dl_4l7d[y-1] = ma7doan[x/10%10];               
....................    if(xvn==true)                                                    
....................    {                                                            
....................       if(dl_4l7d[y-1]==maso0) dl_4l7d[y-1]=0xff;                                  
....................    }                                                       
.................... }  
.................... //xxxxxxxxxxxxxxxxxxxxxxxxxxxxxxxxxxxxxxxxxxxxxxxxxxxxxxxx 
.................... //ham 403: giai ma so x 3 so, luu o led thu y, tuy chon xoa vn 
.................... //xxxxxxxxxxxxxxxxxxxxxxxxxxxxxxxxxxxxxxxxxxxxxxxxxxxxxxxx   
.................... void md4l7d_giaima_3so_vitri_vn(usi16 x, usi8 y, int1 xvn) 
.................... {                                         
....................    dl_4l7d[y]   = ma7doan[x%10];        
....................    dl_4l7d[y-1] = ma7doan[x/10%10]; 
....................    dl_4l7d[y-2] = ma7doan[x/100%10]; 
....................    if(xvn==true)          
....................    { 
....................       if(dl_4l7d[y-2]==maso0) 
....................       {                                
....................          dl_4l7d[y-2]=0xff; 
....................          if(dl_4l7d[y-1]==maso0) dl_4l7d[y-1]=0xff; 
....................       } 
....................    }             
.................... } 
.................... //xxxxxxxxxxxxxxxxxxxxxxxxxxxxxxxxxxxxxxxxxxxxxxxxxxxxxxxx 
.................... //ham 404: giai ma so x 4 so, luu o led thu y, tuy chon xoa vn 
.................... //xxxxxxxxxxxxxxxxxxxxxxxxxxxxxxxxxxxxxxxxxxxxxxxxxxxxxxxx 
.................... void md4l7d_giaima_4so_vitri_vn(usi16 x, usi8 y, int1 xvn) 
.................... {                                         
....................    dl_4l7d[y]   = ma7doan[x%10];        
....................    dl_4l7d[y-1] = ma7doan[x/10%10]; 
....................    dl_4l7d[y-2] = ma7doan[x/100%10]; 
....................    dl_4l7d[y-3] = ma7doan[x/1000%10]; 
....................    if(xvn==true)                                   
....................    { 
....................       if(dl_4l7d[y-3]==maso0)  
....................       {                        
....................          dl_4l7d[y-3]=0xff; 
....................          if(dl_4l7d[y-2]==maso0)  
....................          { 
....................             dl_4l7d[y-2]=0xff;  
....................             if(dl_4l7d[y-1]==maso0) dl_4l7d[y-1]=0xff;    
....................          } 
....................       }                         
....................    }           
.................... }   
.................... //xxxxxxxxxxxxxxxxxxxxxxxxxxxxxxxxxxxxxxxxxxxxxxxxxxxxxxxx 
.................... //ham 405: giai ma so x 2 so, luu o led thu y, tuy chon xoa vn 
.................... //xxxxxxxxxxxxxxxxxxxxxxxxxxxxxxxxxxxxxxxxxxxxxxxxxxxxxxxx 
.................... void md4l7d_gma_so_bcd_vitri_vn(usi8 x,y, int1 xvn) 
.................... {                                         
....................    dl_4l7d[y]   = ma7doan[x%16];        
....................    dl_4l7d[y-1] = ma7doan[x/16];               
....................    if(xvn==true)                                                    
....................    {                                                            
....................       if(dl_4l7d[y-1]==maso0) dl_4l7d[y-1]=0xff;                                  
....................    }                                                       
.................... }  
.................... //xxxxxxxxxxxxxxxxxxxxxxxxxxxxxxxxxxxxxxxxxxxxxxxxxxxxxxxx 
.................... //ham 406: hien thi du lieu 2byte tren 4 led 7 doan 
.................... //xxxxxxxxxxxxxxxxxxxxxxxxxxxxxxxxxxxxxxxxxxxxxxxxxxxxxxxx 
.................... void xuat_4led_7doan_2so_4led (unsigned int8 bh,bl) 
.................... {          
....................    dl_4l7d[3] = ma7doan[bh/10%10]; 
....................    dl_4l7d[2] = ma7doan[bh%10];   
....................    dl_4l7d[1] = ma7doan[bl/10%10]; 
....................    dl_4l7d[0] = ma7doan[bl%10];  
....................    xuat_4led_7doan_4so(); 
.................... }                                  
....................  
.................... #include <tv_05_8led_7doan_quet.c>  
.................... //xxxxxxxxxxxxxxxxxxxxxxxxxxxxxxxxxxxxxxxxxxxxxxxxxxxxxxxx 
.................... //NGUYEN DINH PHU SU PHAM KY THUAT TP HCM 
.................... //xxxxxxxxxxxxxxxxxxxxxxxxxxxxxxxxxxxxxxxxxxxxxxxxxxxxxxxx 
.................... //xxxxxxxxxxxxxxxxxxxxxxxxxxxxxxxxxxxxxxxxxxxxxxxxxxxxxxxx 
.................... //ham 501: hien thi led theo thu tu 
.................... //xxxxxxxxxxxxxxxxxxxxxxxxxxxxxxxxxxxxxxxxxxxxxxxxxxxxxxxx 
.................... const unsigned int8 ma_quet[9]=  
....................    {0x7f,0xbf,0xdf,0xef,0xf7,0xfb,0xfd,0xfe,0xff};    
....................  
.................... void xuat_8led_7doan_quet(usi8 ttq,mht) 
.................... {                                                        
....................    xuat_1byte(~(ma_quet[ttq]));    
....................    xuat_1byte(~mht); 
....................  
....................    output_high(rck_8l7dq);  
....................    output_low(rck_8l7dq); 
.................... }                        
.................... //xxxxxxxxxxxxxxxxxxxxxxxxxxxxxxxxxxxxxxxxxxxxxxxxxxxxxxxx 
.................... //ham 502: xuat 2 byte ra tat 8 led quet 
.................... //xxxxxxxxxxxxxxxxxxxxxxxxxxxxxxxxxxxxxxxxxxxxxxxxxxxxxxxx 
.................... void tat_8led_7doan_quet() 
.................... { 
....................    xuat_8led_7doan_quet(8,0xff); 
.................... } 
.................... //xxxxxxxxxxxxxxxxxxxxxxxxxxxxxxxxxxxxxxxxxxxxxxxxxxxxxxxx 
.................... //ham 503: hien thi 8 so tren 8 led quet - khong kiem tra 
.................... //xxxxxxxxxxxxxxxxxxxxxxxxxxxxxxxxxxxxxxxxxxxxxxxxxxxxxxxx 
.................... unsigned int8 dl_8l7dq[8]={0xff,0xff,0xff,0xff,0xff,0xff,0xff,0xff}; 
....................                                                                 
.................... void hien_thi_8led_7doan_quet() 
.................... {      
....................    unsigned int8 ttl=0;                                       
....................    for(ttl=0;ttl<8;ttl++)          
....................    {              
....................       xuat_8led_7doan_quet(ttl,dl_8l7dq[ttl]); 
....................       delay_ms(1);   
....................       tat_8led_7doan_quet();                              
....................    } 
.................... }                                              
.................... //xxxxxxxxxxxxxxxxxxxxxxxxxxxxxxxxxxxxxxxxxxxxxxxxxxxxxxxx 
.................... //ham 504: giai ma 2 so x, vi tri y, tuy chon xoa vn 
.................... //xxxxxxxxxxxxxxxxxxxxxxxxxxxxxxxxxxxxxxxxxxxxxxxxxxxxxxxx 
.................... void md8l7d_gma_2so_vitri_vn(usi8 x,y,int1 xvn) 
.................... {                                         
....................    dl_8l7dq[y]   = ma7doan[x%10];        
....................    dl_8l7dq[y+1] = ma7doan[x/10%10];               
....................    if(xvn==true)                                                    
....................    {                                                            
....................       if(dl_8l7dq[y+1]==maso0) dl_8l7dq[y+1]=0xff;                                  
....................    }                                                       
.................... }   
.................... //xxxxxxxxxxxxxxxxxxxxxxxxxxxxxxxxxxxxxxxxxxxxxxxxxxxxxxxx 
.................... //ham 505: giai ma 3 so x, vi tri y, tuy chon xoa vn 
.................... //xxxxxxxxxxxxxxxxxxxxxxxxxxxxxxxxxxxxxxxxxxxxxxxxxxxxxxxx 
.................... void md8l7d_gma_3so_vitri_vn(usi16 x,usi8 y,int1 xvn) 
.................... {                                         
....................    dl_8l7dq[y]   = ma7doan[x%10];        
....................    dl_8l7dq[y+1] = ma7doan[x/10%10]; 
....................    dl_8l7dq[y+2] = ma7doan[x/100%10]; 
....................    if(xvn==true)          
....................    {        
....................       if(dl_8l7dq[y+2]==maso0) 
....................       {                                
....................          dl_8l7dq[y+2]=0xff; 
....................          if(dl_8l7dq[y+1]==maso0) dl_8l7dq[y+1]=0xff; 
....................       } 
....................    }             
.................... }  
.................... //xxxxxxxxxxxxxxxxxxxxxxxxxxxxxxxxxxxxxxxxxxxxxxxxxxxxxxxx 
.................... //ham 506: giai ma 4 so x, vi tri y, tuy chon xoa vn 
.................... //xxxxxxxxxxxxxxxxxxxxxxxxxxxxxxxxxxxxxxxxxxxxxxxxxxxxxxxx 
.................... void md8l7d_gma_4so_vitri_vn(usi16 x,usi8 y,int1 xvn) 
.................... {                                         
....................    dl_8l7dq[y]   = ma7doan[x%10];        
....................    dl_8l7dq[y+1] = ma7doan[x/10%10]; 
....................    dl_8l7dq[y+2] = ma7doan[x/100%10]; 
....................    dl_8l7dq[y+3] = ma7doan[x/1000%10]; 
....................    if(xvn==true)                                   
....................    { 
....................       if(dl_8l7dq[y+3]==maso0)  
....................       { 
....................          dl_8l7dq[y+3]=0xff; 
....................          if(dl_8l7dq[y+2]==maso0)  
....................          { 
....................             dl_8l7dq[y+2]=0xff;  
....................             if(dl_8l7dq[y+1]==maso0) dl_8l7dq[y+1]=0xff;    
....................          } 
....................       }                         
....................    }           
.................... }    
.................... //xxxxxxxxxxxxxxxxxxxxxxxxxxxxxxxxxxxxxxxxxxxxxxxxxxxxxxxx 
.................... //ham 507: giai ma 2 so bcd x, tai vi tri y, xoa vn: y/n 
.................... //xxxxxxxxxxxxxxxxxxxxxxxxxxxxxxxxxxxxxxxxxxxxxxxxxxxxxxxx 
.................... void md8l7d_gma_so_bcd_vitri_vn(usi8 x,y,int1 xvn) 
.................... {                                         
....................    dl_8l7dq[y]   = ma7doan[x%16];        
....................    dl_8l7dq[y+1] = ma7doan[x/16];               
....................    if(xvn==true)                                                    
....................    {                                                            
....................       if(dl_8l7dq[y+1]==maso0) dl_8l7dq[y+1]=0xff;                                  
....................    }    
.................... }                
.................... //xxxxxxxxxxxxxxxxxxxxxxxxxxxxxxxxxxxxxxxxxxxxxxxxxxxxxxxx 
.................... //ham 508: hien thi 8 so tren 8 led quet voi so lan dl 
.................... //xxxxxxxxxxxxxxxxxxxxxxxxxxxxxxxxxxxxxxxxxxxxxxxxxxxxxxxx 
.................... void delay_quet_8led(unsigned int16 dl) 
.................... {                                 
....................    unsigned int16 i;            
....................    for(i=0;i<dl;i++) 
....................    hien_thi_8led_7doan_quet();         
.................... }  
....................  
.................... #include <tv_05_i2c_ds13_pcf.c> 
.................... //xxxxxxxxxxxxxxxxxxxxxxxxxxxxxxxxxxxxxxxxxxxxxxxxxxxxxxxx 
.................... //NGUYEN DINH PHU SU PHAM KY THUAT TP HCM 
.................... //xxxxxxxxxxxxxxxxxxxxxxxxxxxxxxxxxxxxxxxxxxxxxxxxxxxxxxxx 
.................... //xxxxxxxxxxxxxxxxxxxxxxxxxxxxxxxxxxxxxxxxxxxxxxxxxxxxxxxx 
.................... //dinh nghia dia chi ghi va dia chi doc ds1307 
.................... //xxxxxxxxxxxxxxxxxxxxxxxxxxxxxxxxxxxxxxxxxxxxxxxxxxxxxxxx                     
.................... #define ds13_addr_wr 0xd0 
.................... #define ds13_addr_rd 0xd1 
....................  
.................... //xxxxxxxxxxxxxxxxxxxxxxxxxxxxxxxxxxxxxxxxxxxxxxxxxxxxxxxx   
.................... //khai bao 2 mang:  
.................... //mang ghi: giay-phut-gio-thu-ngay-thang-nam-madk_msds   
.................... //mang doc: giay-phut-gio-thu-ngay-thang-nam-madk_msds   
.................... //xxxxxxxxxxxxxxxxxxxxxxxxxxxxxxxxxxxxxxxxxxxxxxxxxxxxxxxx       
.................... usi8 time_w[9]={0x10,0x22,0x13,0x06,0x22,0x04,0x22,0x90,0x95};   
.................... usi8 time_r[9]={0x30,0x30,0x10,0x08,0x20,0x02,0x20,0x90,0x96}; 
.................... #define giay_ds  time_r[0]               
.................... #define phut_ds  time_r[1]                   
.................... #define gio_ds   time_r[2] 
.................... #define thu_ds   time_r[3] 
.................... #define ngay_ds  time_r[4] 
.................... #define thang_ds time_r[5]                   
.................... #define nam_ds   time_r[6] 
....................  
.................... #define ma_qd   time_w[8]  
.................... #define ma_ds   time_r[8]                                        
.................... //xxxxxxxxxxxxxxxxxxxxxxxxxxxxxxxxxxxxxxxxxxxxxxxxxxxxxxxx   
.................... //cap nhat time: giay-phut-gio-thu-ngay-thang-nam-madk_msds   
.................... //xxxxxxxxxxxxxxxxxxxxxxxxxxxxxxxxxxxxxxxxxxxxxxxxxxxxxxxx  
.................... void ds1307_cap_nhat_time(int1 sel)                  
.................... {          
....................    usi8 i;    
....................    i2c_start(); 
*
0656:  BSF    F93.0
0658:  MOVLW  05
065A:  MOVWF  00
065C:  DECFSZ 00,F
065E:  BRA    065C
0660:  BSF    F93.1
0662:  MOVLW  06
0664:  MOVWF  00
0666:  DECFSZ 00,F
0668:  BRA    0666
066A:  BCF    F8A.0
066C:  BCF    F93.0
066E:  MOVLW  05
0670:  MOVWF  00
0672:  DECFSZ 00,F
0674:  BRA    0672
0676:  BCF    F8A.1
0678:  BCF    F93.1
....................    i2c_write(ds13_addr_wr);         
067A:  MOVLW  D0
067C:  MOVLB  4
067E:  MOVWF  x4F
0680:  MOVLB  0
0682:  RCALL  04B8
....................    i2c_write(0x00);     
0684:  MOVLB  4
0686:  CLRF   x4F
0688:  MOVLB  0
068A:  RCALL  04B8
....................    for(i=0;i<9;i++)                           
068C:  MOVLB  4
068E:  CLRF   x4D
0690:  MOVF   x4D,W
0692:  SUBLW  08
0694:  BNC   06D8
....................    {   
....................       if(sel)  i2c_write(time_w[i]); 
0696:  MOVF   x4C,F
0698:  BZ    06B8
069A:  CLRF   03
069C:  MOVF   x4D,W
069E:  ADDLW  14
06A0:  MOVWF  FE9
06A2:  MOVLW  00
06A4:  ADDWFC 03,W
06A6:  MOVWF  FEA
06A8:  MOVFF  FEF,44E
06AC:  MOVFF  44E,44F
06B0:  MOVLB  0
06B2:  RCALL  04B8
06B4:  BRA    06D2
06B6:  MOVLB  4
....................       else     i2c_write(time_r[i]); 
06B8:  CLRF   03
06BA:  MOVF   x4D,W
06BC:  ADDLW  1D
06BE:  MOVWF  FE9
06C0:  MOVLW  00
06C2:  ADDWFC 03,W
06C4:  MOVWF  FEA
06C6:  MOVFF  FEF,44E
06CA:  MOVFF  44E,44F
06CE:  MOVLB  0
06D0:  RCALL  04B8
06D2:  MOVLB  4
06D4:  INCF   x4D,F
06D6:  BRA    0690
....................    }                                  
....................    i2c_stop();         
06D8:  BCF    F93.0
06DA:  NOP   
06DC:  BSF    F93.1
06DE:  BTFSS  F81.1
06E0:  BRA    06DE
06E2:  MOVLW  05
06E4:  MOVWF  00
06E6:  DECFSZ 00,F
06E8:  BRA    06E6
06EA:  BRA    06EC
06EC:  NOP   
06EE:  BSF    F93.0
06F0:  MOVLW  05
06F2:  MOVWF  00
06F4:  DECFSZ 00,F
06F6:  BRA    06F4
06F8:  MOVLB  0
06FA:  GOTO   0718 (RETURN)
.................... }                       
.................... //xxxxxxxxxxxxxxxxxxxxxxxxxxxxxxxxxxxxxxxxxxxxxxxxxxxxxxxx   
.................... //doc thoi gian    
.................... //xxxxxxxxxxxxxxxxxxxxxxxxxxxxxxxxxxxxxxxxxxxxxxxxxxxxxxxx                              
.................... void ds1307_doc_time(usi8 j)      
.................... {    
....................    usi8 i;  
....................    i2c_start(); 
*
0598:  BSF    F93.0
059A:  MOVLW  05
059C:  MOVWF  00
059E:  DECFSZ 00,F
05A0:  BRA    059E
05A2:  BSF    F93.1
05A4:  MOVLW  06
05A6:  MOVWF  00
05A8:  DECFSZ 00,F
05AA:  BRA    05A8
05AC:  BCF    F8A.0
05AE:  BCF    F93.0
05B0:  MOVLW  05
05B2:  MOVWF  00
05B4:  DECFSZ 00,F
05B6:  BRA    05B4
05B8:  BCF    F8A.1
05BA:  BCF    F93.1
....................    i2c_write(ds13_addr_wr); 
05BC:  MOVLW  D0
05BE:  MOVLB  4
05C0:  MOVWF  x4F
05C2:  MOVLB  0
05C4:  RCALL  04B8
....................    i2c_write(0x00);                      
05C6:  MOVLB  4
05C8:  CLRF   x4F
05CA:  MOVLB  0
05CC:  RCALL  04B8
....................    i2c_start();                 
05CE:  BSF    F93.0
05D0:  MOVLW  05
05D2:  MOVWF  00
05D4:  DECFSZ 00,F
05D6:  BRA    05D4
05D8:  BSF    F93.1
05DA:  MOVLW  06
05DC:  MOVWF  00
05DE:  DECFSZ 00,F
05E0:  BRA    05DE
05E2:  BTFSS  F81.1
05E4:  BRA    05E2
05E6:  BCF    F8A.0
05E8:  BCF    F93.0
05EA:  MOVLW  05
05EC:  MOVWF  00
05EE:  DECFSZ 00,F
05F0:  BRA    05EE
05F2:  BCF    F8A.1
05F4:  BCF    F93.1
....................                  
....................    i2c_write(ds13_addr_rd); 
05F6:  MOVLW  D1
05F8:  MOVLB  4
05FA:  MOVWF  x4F
05FC:  MOVLB  0
05FE:  RCALL  04B8
....................    for(i=0;i<j;i++) time_r[i]=i2c_read();   
0600:  MOVLB  4
0602:  CLRF   x4D
0604:  MOVF   x4C,W
0606:  SUBWF  x4D,W
0608:  BC    062A
060A:  CLRF   03
060C:  MOVF   x4D,W
060E:  ADDLW  1D
0610:  MOVWF  FE9
0612:  MOVLW  00
0614:  ADDWFC 03,W
0616:  MOVWF  FEA
0618:  MOVLW  01
061A:  MOVWF  00
061C:  MOVLB  0
061E:  RCALL  052E
0620:  MOVFF  01,FEF
0624:  MOVLB  4
0626:  INCF   x4D,F
0628:  BRA    0604
....................                                   
....................    i = i2c_read(0); //not ack, don't care i   
062A:  CLRF   00
062C:  MOVLB  0
062E:  RCALL  052E
0630:  MOVFF  01,44D
....................    i2c_stop(); 
0634:  BCF    F93.0
0636:  NOP   
0638:  BSF    F93.1
063A:  BTFSS  F81.1
063C:  BRA    063A
063E:  MOVLW  05
0640:  MOVWF  00
0642:  DECFSZ 00,F
0644:  BRA    0642
0646:  BRA    0648
0648:  NOP   
064A:  BSF    F93.0
064C:  MOVLW  05
064E:  MOVWF  00
0650:  DECFSZ 00,F
0652:  BRA    0650
0654:  RETURN 0
.................... }                                                                        
.................... //xxxxxxxxxxxxxxxxxxxxxxxxxxxxxxxxxxxxxxxxxxxxxxxxxxxxxxxx   
.................... //kiem tra ma da luu: sai thi cap nhat, dung thi thoat 
.................... //xxxxxxxxxxxxxxxxxxxxxxxxxxxxxxxxxxxxxxxxxxxxxxxxxxxxxxxx            
.................... void ds1307_kiem_tra_ma()                                
.................... {                                               
....................    ds1307_doc_time(9);           
*
06FE:  MOVLW  09
0700:  MOVLB  4
0702:  MOVWF  x4C
0704:  MOVLB  0
0706:  RCALL  0598
....................    if(ma_qd!=ma_ds)    
0708:  MOVF   25,W
070A:  SUBWF  1C,W
070C:  BZ    0718
....................    { 
....................       ds1307_cap_nhat_time(1); 
070E:  MOVLW  01
0710:  MOVLB  4
0712:  MOVWF  x4C
0714:  MOVLB  0
0716:  BRA    0656
....................    } 
0718:  GOTO   1E6C (RETURN)
.................... } 
.................... //xxxxxxxxxxxxxxxxxxxxxxxxxxxxxxxxxxxxxxxxxxxxxxxxxxxxxxxx    
.................... //xxxxxxxxxxxxxxxxxxxxxxxxxxxxxxxxxxxxxxxxxxxxxxxxxxxxxxxx 
.................... //thu vien cua pcf8591: 4adc:2lm35, joystick, 1dac: led 
.................... //step size bang 5 
.................... //xxxxxxxxxxxxxxxxxxxxxxxxxxxxxxxxxxxxxxxxxxxxxxxxxxxxxxxx    
.................... //xxxxxxxxxxxxxxxxxxxxxxxxxxxxxxxxxxxxxxxxxxxxxxxxxxxxxxxx    
.................... #define  pcf_addr_wr  0x90                     
.................... #define  pcf_addr_rd  0x91 
....................                                                     
.................... #define  pcf_chan0 0x40 
.................... #define  pcf_chan1 0x41 
.................... #define  pcf_chan2 0x42 
.................... #define  pcf_chan3 0x43 
.................... //xxxxxxxxxxxxxxxxxxxxxxxxxxxxxxxxxxxxxxxxxxxxxxxxxxxxxxxx   
.................... //ham thiet lap kenh 
.................... //xxxxxxxxxxxxxxxxxxxxxxxxxxxxxxxxxxxxxxxxxxxxxxxxxxxxxxxx                                     
.................... void pcf_channel(usi8 chan) 
.................... {                                   
....................    i2c_start(); 
....................    i2c_write(pcf_addr_wr); 
....................    i2c_write(chan);       
....................    i2c_stop(); 
.................... } 
.................... //xxxxxxxxxxxxxxxxxxxxxxxxxxxxxxxxxxxxxxxxxxxxxxxxxxxxxxxx   
.................... //ham vua chon kenh, vua xuat du lieu ra DAC 
.................... //xxxxxxxxxxxxxxxxxxxxxxxxxxxxxxxxxxxxxxxxxxxxxxxxxxxxxxxx  
.................... void pcf_xuat_dac(usi8 dac_out) 
.................... { 
....................    i2c_start();                      
....................    i2c_write(pcf_addr_wr); 
....................    i2c_write(pcf_chan0); 
....................    i2c_write(dac_out); 
....................    i2c_stop();              
.................... }                     
.................... //xxxxxxxxxxxxxxxxxxxxxxxxxxxxxxxxxxxxxxxxxxxxxxxxxxxxxxxx   
.................... //ham thiet lap kenh va doc ket qua cua lan truoc  
.................... //xxxxxxxxxxxxxxxxxxxxxxxxxxxxxxxxxxxxxxxxxxxxxxxxxxxxxxxx  
.................... usi8 pcf_doc_adc(usi8 ch) 
.................... {     
....................    usi8 kq;  
....................    kq=0;   
....................    pcf_channel(ch); 
....................    i2c_start();                            
....................    i2c_write(pcf_addr_rd);         
....................    kq= i2c_read(0); 
....................    i2c_stop();        
....................    return kq; 
.................... } 
.................... //xxxxxxxxxxxxxxxxxxxxxxxxxxxxxxxxxxxxxxxxxxxxxxxxxxxxxxxx   
.................... //ham doc kenh, so lan  
.................... //xxxxxxxxxxxxxxxxxxxxxxxxxxxxxxxxxxxxxxxxxxxxxxxxxxxxxxxx  
.................... usi8 pcf_doc_chan(usi8 chan, usi8 solan)                                      
.................... {  
....................    unsigned int16 pcf; 
....................    usi8 i;            
....................    pcf = 0;      
....................    for(i=0;i<solan;i++)             
....................    { 
....................       delay_us(30);                               
....................       pcf=pcf + pcf_doc_adc(chan);               
....................    }                                               
....................    pcf = pcf/solan;    
....................    return (pcf%256); 
.................... } 
....................  
....................                                                                  
....................  
.................... #include <tv_06_lcd_glcd.c>  //xuat du lieu                                             
.................... //xxxxxxxxxxxxxxxxxxxxxxxxxxxxxxxxxxxxxxxxxxxxxxxxxxxxxxxx 
.................... //NGUYEN DINH PHU SU PHAM KY THUAT TP HCM 
.................... //xxxxxxxxxxxxxxxxxxxxxxxxxxxxxxxxxxxxxxxxxxxxxxxxxxxxxxxx 
....................  
.................... //xxxxxxxxxxxxxxxxxxxxxxxxxxxxxxxxxxxxxxxxxxxxxxxxxxxxxxxx     
.................... //khai bao: mang 4 byte ra glcd va lcd 
.................... //xxxxxxxxxxxxxxxxxxxxxxxxxxxxxxxxxxxxxxxxxxxxxxxxxxxxxxxx   
.................... unsigned int8 g_lcd[4]={0,0,0,0};  
.................... #define glcd_ct g_lcd[0] 
.................... #define glcd_dt g_lcd[1] 
.................... #define lcd_ct  g_lcd[2]      
.................... #define lcd_dt  g_lcd[3] 
.................... //xxxxxxxxxxxxxxxxxxxxxxxxxxxxxxxxxxxxxxxxxxxxxxxxxxxxxxxx     
.................... //ham 601: xuat du lieu 4 byte ra glcd va lcd 
.................... //xxxxxxxxxxxxxxxxxxxxxxxxxxxxxxxxxxxxxxxxxxxxxxxxxxxxxxxx  
.................... void xuat_glcd_lcd() 
.................... {                                                   
....................    xuat_1byte(glcd_ct); xuat_1byte(glcd_dt); 
*
0334:  MOVFF  26,465
0338:  RCALL  024A
033A:  MOVFF  27,465
033E:  RCALL  024A
....................    xuat_1byte(lcd_ct);  xuat_1byte(lcd_dt);        
0340:  MOVFF  28,465
0344:  RCALL  024A
0346:  MOVFF  29,465
034A:  RCALL  024A
....................           
....................    output_high(rck_lcd);      
034C:  BCF    F95.2
034E:  BSF    F8C.2
....................    output_low(rck_lcd);                           
0350:  BCF    F95.2
0352:  BCF    F8C.2
0354:  GOTO   036A (RETURN)
.................... } 
.................... //xxxxxxxxxxxxxxxxxxxxxxxxxxxxxxxxxxxxxxxxxxxxxxxxxxxxxxxx     
.................... //ham 602: ham xuat 2 byte ra lcd  
.................... //xxxxxxxxxxxxxxxxxxxxxxxxxxxxxxxxxxxxxxxxxxxxxxxxxxxxxxxx  
.................... void xuat_lcd(usi8 lcd_ctr,lcd_dta) 
.................... {      
....................    lcd_ct = ~lcd_ctr;        
....................    lcd_dt = ~lcd_dta;       
....................    xuat_glcd_lcd(); 
.................... } 
.................... //xxxxxxxxxxxxxxxxxxxxxxxxxxxxxxxxxxxxxxxxxxxxxxxxxxxxxxxx     
.................... //ham 603: ham xuat 2 byte ra glcd  
.................... //xxxxxxxxxxxxxxxxxxxxxxxxxxxxxxxxxxxxxxxxxxxxxxxxxxxxxxxx  
.................... void xuat_glcd(usi8 glcd_ctr,glcd_dta) 
.................... {      
....................    glcd_ct = ~glcd_ctr;      
0358:  MOVLB  4
035A:  MOVFF  463,26
035E:  COMF   26,F
....................    glcd_dt = ~glcd_dta;      
0360:  MOVFF  464,27
0364:  COMF   27,F
....................    xuat_glcd_lcd(); 
0366:  MOVLB  0
0368:  BRA    0334
036A:  RETURN 0
.................... } 
....................  
.................... #include <tv_06_lcd.c>       //cac ham lcd   
.................... //xxxxxxxxxxxxxxxxxxxxxxxxxxxxxxxxxxxxxxxxxxxxxxxxxxxxxxxx 
.................... //NGUYEN DINH PHU SU PHAM KY THUAT TP HCM 
.................... //xxxxxxxxxxxxxxxxxxxxxxxxxxxxxxxxxxxxxxxxxxxxxxxxxxxxxxxx 
....................  
.................... //xxxxxxxxxxxxxxxxxxxxxxxxxxxxxxxxxxxxxxxxxxxxxxxxxxxxxxxx 
.................... //dinh nghia bien dieu khien LCD va cac bit cua bien 
.................... //xxxxxxxxxxxxxxxxxxxxxxxxxxxxxxxxxxxxxxxxxxxxxxxxxxxxxxxx   
.................... unsigned int8 lcd_ctrl = 0xff;                      
.................... #bit lcd_p  = lcd_ctrl.3                                        
.................... #bit lcd_rs = lcd_ctrl.2 
.................... #bit lcd_rw = lcd_ctrl.1                                           
.................... #bit lcd_e  = lcd_ctrl.0              
....................                                                             
.................... //xxxxxxxxxxxxxxxxxxxxxxxxxxxxxxxxxxxxxxxxxxxxxxxxxxxxxxxx 
.................... //Dinh nghia cac lenh dieu khien cua LCD 
.................... //xxxxxxxxxxxxxxxxxxxxxxxxxxxxxxxxxxxxxxxxxxxxxxxxxxxxxxxx   
.................... #define lcd_clear_display      0x01     
.................... #define lcd_cursor_home        0x02                                                                                  
.................... //Lenh function set co nhieu bit lua chon 
.................... #define lcd_fs_function_set    0x20   //constant  
.................... #define fs_8bit                0x10                 
.................... #define fs_2line               0x08 
.................... #define fs_5x10                0x04 
.................... //Lenh dieu khien hien thi  
.................... #define lcd_dc_display_control 0x08  //constant 
.................... #define dc_display_on          0x04   
.................... #define dc_cursor_on           0x02 
.................... #define dc_blink_on            0x01                                                           
.................... //Lenh display entry mode */   
.................... #define lcd_em_entry_mode      0x04  //constant  
.................... #define em_shift_inc           0x01                       
.................... #define em_left                0x02                                                 
....................  
.................... /* Flags for display/cursor shift */                            
.................... #define lcd_cd_cursor_display  0x10   //constant               
.................... #define cd_display_move        0x08 
.................... #define cd_move_right          0x04 
....................  
.................... #define lcd_shift_left         0x18  
.................... #define lcd_shift_right        0x1C  
....................  
.................... #define lcd_ddram_addr         0x80 
.................... #define lcd_cgram_addr         0x40 
.................... //xxxxxxxxxxxxxxxxxxxxxxxxxxxxxxxxxxxxxxxxxxxxxxxxxxxxxxxx   
.................... void lcd_goto_xy(usi8 x,usi8 y); 
.................... void lcd_xuat_8bit(int8 db); 
.................... void lcd_command(int8 db); 
.................... void lcd_data(int8 db); 
.................... void lcd_puts(usi8 x, usi8 y, char* str);                  
.................... void lcd_setup();                                         
.................... //xxxxxxxxxxxxxxxxxxxxxxxxxxxxxxxxxxxxxxxxxxxxxxxxxxxxxxxx   
.................... //ham 604: ham xuat 8bit ra lcd 
.................... //xxxxxxxxxxxxxxxxxxxxxxxxxxxxxxxxxxxxxxxxxxxxxxxxxxxxxxxx   
.................... void lcd_xuat(int8 db)  
.................... {                                                      
....................    lcd_e=1; xuat_lcd(lcd_ctrl,db);    
....................    delay_us(20);                        
....................    lcd_e=0; xuat_lcd(lcd_ctrl,db);      
.................... }                                                               
.................... //xxxxxxxxxxxxxxxxxxxxxxxxxxxxxxxxxxxxxxxxxxxxxxxxxxxxxxxx     
.................... //ham 605: ham xuat ma lenh dk lcd 
.................... //xxxxxxxxxxxxxxxxxxxxxxxxxxxxxxxxxxxxxxxxxxxxxxxxxxxxxxxx  
.................... void lcd_command(int8 db)    
.................... { 
....................    lcd_rs = 0; lcd_xuat(db);                                        
.................... } 
.................... //xxxxxxxxxxxxxxxxxxxxxxxxxxxxxxxxxxxxxxxxxxxxxxxxxxxxxxxx   
.................... //ham 606: ham xuat du lieu ra lcd 
.................... //xxxxxxxxxxxxxxxxxxxxxxxxxxxxxxxxxxxxxxxxxxxxxxxxxxxxxxxx  
.................... void lcd_data(int8 db)        
.................... { 
....................    lcd_rs = 1; lcd_xuat(db); 
.................... }                                         
.................... //xxxxxxxxxxxxxxxxxxxxxxxxxxxxxxxxxxxxxxxxxxxxxxxxxxxxxxxx   
.................... //ham 607: ham khoi tao lcd 
.................... //xxxxxxxxxxxxxxxxxxxxxxxxxxxxxxxxxxxxxxxxxxxxxxxxxxxxxxxx  
.................... void lcd_setup() 
.................... {                      
....................    lcd_e  = 0;   lcd_rw = 0;  
....................    lcd_rs = 1;   lcd_p  = 0; 
....................    lcd_command(lcd_fs_function_set|fs_8bit|fs_2line);          
....................    delay_us(40);   
....................    lcd_command(lcd_dc_display_control|dc_display_on);    
....................    delay_us(40); 
....................    lcd_command(lcd_clear_display);       
....................    delay_ms(2);       
....................    lcd_command(lcd_em_entry_mode|em_left);        
....................    delay_us(40);                 
.................... }             
.................... //xxxxxxxxxxxxxxxxxxxxxxxxxxxxxxxxxxxxxxxxxxxxxxxxxxxxxxxx   
.................... //ham 608: di chuyen con tro den toa do x,y 
.................... //xxxxxxxxxxxxxxxxxxxxxxxxxxxxxxxxxxxxxxxxxxxxxxxxxxxxxxxx  
.................... void lcd_goto_xy(usi8 x,usi8 y)  
.................... {                       
....................    const unsigned int8 lcd_vitri[]={0x80,0xc0,0x94,0xd4}; 
....................    lcd_command(lcd_vitri[x]+y);    //delay_us(20); 
.................... }  
.................... //xxxxxxxxxxxxxxxxxxxxxxxxxxxxxxxxxxxxxxxxxxxxxxxxxxxxxxxx            
.................... //ham 609: ham xoa man hinh LCD 
.................... //xxxxxxxxxxxxxxxxxxxxxxxxxxxxxxxxxxxxxxxxxxxxxxxxxxxxxxxx  
.................... void lcd_clear()  
.................... {                       
....................    lcd_command(lcd_clear_display);       
....................    delay_ms(2); 
.................... }  
.................... //xxxxxxxxxxxxxxxxxxxxxxxxxxxxxxxxxxxxxxxxxxxxxxxxxxxxxxxx 
.................... //ham 609: ham mo den backlight lcd  
.................... //xxxxxxxxxxxxxxxxxxxxxxxxxxxxxxxxxxxxxxxxxxxxxxxxxxxxxxxx   
.................... void lcd_back_light_on() 
.................... { 
....................    lcd_p = 0; xuat_lcd(lcd_ctrl,0x00);    
.................... } 
.................... //xxxxxxxxxxxxxxxxxxxxxxxxxxxxxxxxxxxxxxxxxxxxxxxxxxxxxxxx 
.................... //ham 610: tat den backlight lcd  
.................... //xxxxxxxxxxxxxxxxxxxxxxxxxxxxxxxxxxxxxxxxxxxxxxxxxxxxxxxx   
.................... void lcd_back_light_off() 
.................... { 
....................    lcd_p = 1;  xuat_lcd(lcd_ctrl,0x00);     
.................... } 
.................... //xxxxxxxxxxxxxxxxxxxxxxxxxxxxxxxxxxxxxxxxxxxxxxxxxxxxxxxx   
.................... //ham 611: hien thi mang trn lcd tai x,y (hang,cot) 
.................... //xxxxxxxxxxxxxxxxxxxxxxxxxxxxxxxxxxxxxxxxxxxxxxxxxxxxxxxx  
.................... void lcd_puts(usi8 x, usi8 y, unsigned  char* str)  
.................... {                  
....................    while (*str)  
....................    { 
....................       if(y>=20)  
....................       { 
....................          y = 0;   x++; 
....................       } 
....................       if(x>=4) x = 0; 
....................       lcd_goto_xy(x,y);       
....................       if (*str == '\n')  
....................       {                    
....................          x++; 
....................          lcd_goto_xy(x,y); 
....................       }  
....................       else if (*str == '\r')  
....................       { 
....................          lcd_goto_xy(0,y); 
....................       }  
....................       else  
....................          { 
....................             lcd_data(*str); 
....................             y++;                       
....................              
....................          } 
....................       str++; 
....................    } 
.................... } 
.................... //xxxxxxxxxxxxxxxxxxxxxxxxxxxxxxxxxxxxxxxxxxxxxxxxxxxxxxxx   
.................... //mang so to cua LCD 
.................... //xxxxxxxxxxxxxxxxxxxxxxxxxxxxxxxxxxxxxxxxxxxxxxxxxxxxxxxx  
.................... const unsigned int8 lcd_so_to[10][6] ={ 
....................                   0,1,2,4,3,5,    // so 0 
....................                   1,2,32,3,7,3,   // so 1 
....................                   6,6,2,4,3,3,    // so 2 
....................                   6,6,2,3,3,5,    // so 3 
....................                   7,3,7,32,32,7,  // so 4 
....................                   7,6,6,3,3,5,    // so 5                                
....................                   0,6,6,4,3,5,    // so 6 
....................                   1,1,7,32,32,7,  // so 7 
....................                   0,6,2,4,3,5,    // so 8 
....................                   0,6,2,3,3,5};   // so 9 
.................... //xxxxxxxxxxxxxxxxxxxxxxxxxxxxxxxxxxxxxxxxxxxxxxxxxxxxxxxx   
.................... //mang tung doan so to cua LCD 
.................... //xxxxxxxxxxxxxxxxxxxxxxxxxxxxxxxxxxxxxxxxxxxxxxxxxxxxxxxx                    
.................... const unsigned int8 lcd_ma_8doan[] = { 
....................    0x07,0x0f,0x1f,0x1f,0x1f,0x1f,0x1f,0x1f,  //doan f - 0 
....................    0x1f,0x1f,0x1f,0x00,0x00,0x00,0x00,0x00,  //doan a - 1 
....................    0x1c,0x1e,0x1f,0x1f,0x1f,0x1f,0x1f,0x1f,  //doan b - 2 
....................    0x00,0x00,0x00,0x00,0x00,0x1f,0x1f,0x1f,  //doan d - 3 
....................    0x1f,0x1f,0x1f,0x1f,0x1f,0x1f,0x0f,0x07,  //doan e - 4 
....................    0x1f,0x1f,0x1f,0x1f,0x1f,0x1f,0x1e,0x1c,  //doan c - 5       
....................    0x1f,0x1f,0x1f,0x00,0x00,0x00,0x1f,0x1f,  //doan g+d-6  
....................    0x1f,0x1f,0x1f,0x1f,0x1f,0x1f,0x1f,0x1f}; //doan i  -7      
.................... //xxxxxxxxxxxxxxxxxxxxxxxxxxxxxxxxxxxxxxxxxxxxxxxxxxxxxxxx   
.................... //ham 612: copy mang so to vao cgram 
.................... //xxxxxxxxxxxxxxxxxxxxxxxxxxxxxxxxxxxxxxxxxxxxxxxxxxxxxxxx                                   
.................... void lcd_khoi_tao_cgram_so_to()                                                   
.................... {                                                                       
....................    usi8 i; 
....................    lcd_command(lcd_cgram_addr); 
....................    for(i=0;i<64;i++)   
....................      lcd_data(lcd_ma_8doan[i]);   
.................... }          
.................... //xxxxxxxxxxxxxxxxxxxxxxxxxxxxxxxxxxxxxxxxxxxxxxxxxxxxxxxx   
.................... //ham 613: hien thi so to tai toa do x,y 
.................... //xxxxxxxxxxxxxxxxxxxxxxxxxxxxxxxxxxxxxxxxxxxxxxxxxxxxxxxx  
.................... void lcd_hien_thi_so_to(si8 so, x, y)  
.................... {                         
....................    usi8 i; 
....................    lcd_goto_xy(x,y); 
....................    for(i=0;i<6;i++) 
....................    {                                                            
....................       if(i==3) lcd_goto_xy(x+1,y); 
....................       lcd_data(lcd_so_to[so][i]); 
....................    }                         
.................... }  
.................... //xxxxxxxxxxxxxxxxxxxxxxxxxxxxxxxxxxxxxxxxxxxxxxxxxxxxxxxx   
.................... //ham 614: xoa so to tai toa do x,y 
.................... //xxxxxxxxxxxxxxxxxxxxxxxxxxxxxxxxxxxxxxxxxxxxxxxxxxxxxxxx  
.................... void lcd_xoa_so_to(si8 x, y) 
.................... {   
....................    usi8 i; 
....................    lcd_goto_xy(x,y);          
....................    for(i=0;i<6;i++) 
....................    {             
....................       if(i==3) lcd_goto_xy(x+1,y);     
....................       lcd_data(' '); 
....................    } 
.................... }  
.................... //xxxxxxxxxxxxxxxxxxxxxxxxxxxxxxxxxxxxxxxxxxxxxxxxxxxxxxxx   
.................... //ham 615: hien thi so hex toa do x,y 
.................... //xxxxxxxxxxxxxxxxxxxxxxxxxxxxxxxxxxxxxxxxxxxxxxxxxxxxxxxx  
.................... void lcd_hthi_byte(usi8 sh,x,y)  
.................... {   
....................    usi8 bh,bl; 
....................    lcd_goto_xy(x,y); 
....................    bh=sh/16; bl=sh%16;                                                 
....................    if(bh>9) lcd_data(bh+0x37); 
....................    else     lcd_data(bh+0x30); 
....................    if(bl>9) lcd_data(bl+0x37); 
....................    else     lcd_data(bl+0x30); 
.................... }  
.................... //xxxxxxxxxxxxxxxxxxxxxxxxxxxxxxxxxxxxxxxxxxxxxxxxxxxxxxxx   
.................... //ham 616: giai ma hien thi 2 so tai toa do x,y 
.................... //xxxxxxxxxxxxxxxxxxxxxxxxxxxxxxxxxxxxxxxxxxxxxxxxxxxxxxxx  
.................... void lcd_gm_ht_2so_nho_xvn(usi16 so,usi8 x,usi8 y,int1 xvn)       
.................... {                            
....................    usi8 ch,dv;           
....................    lcd_goto_xy(x,y);                    
....................    ch = so/10%10+0x30;  dv = so%10+0x30; 
....................    if(xvn)  
....................    { 
....................       if(ch==0x30) ch=" "; 
....................    } 
....................    lcd_data(ch);   
....................    lcd_data(dv);    
.................... } 
.................... //xxxxxxxxxxxxxxxxxxxxxxxxxxxxxxxxxxxxxxxxxxxxxxxxxxxxxxxx   
.................... //ham 617: giai ma hien thi 3 so tai toa do x,y 
.................... //xxxxxxxxxxxxxxxxxxxxxxxxxxxxxxxxxxxxxxxxxxxxxxxxxxxxxxxx  
.................... void lcd_gm_ht_3so_nho_xvn(usi16 so,usi8 x,usi8 y,int1 xvn)       
.................... {                            
....................    usi8 tr,ch,dv;           
....................    lcd_goto_xy(x,y);                    
....................    tr = so/100%10+0x30;  
....................    ch = so/10%10+0x30;         
....................    dv = so%10+0x30; 
....................    if(xvn)  
....................    { 
....................       if(tr==0x30) 
....................       {      
....................          tr=" "; 
....................          if(ch==0x30) ch=" "; 
....................       } 
....................    } 
....................    lcd_data(tr);     
....................    lcd_data(ch);   
....................    lcd_data(dv);    
.................... } 
.................... //xxxxxxxxxxxxxxxxxxxxxxxxxxxxxxxxxxxxxxxxxxxxxxxxxxxxxxxx   
.................... //ham 618: giai ma hien thi 4 so tai toa do x,y 
.................... //xxxxxxxxxxxxxxxxxxxxxxxxxxxxxxxxxxxxxxxxxxxxxxxxxxxxxxxx  
.................... void lcd_gm_ht_4so_nho_xvn(usi16 so,usi8 x,usi8 y,int1 xvn)       
.................... {                            
....................    usi8 ng,tr,ch,dv;           
....................    lcd_goto_xy(x,y);                 
....................    ng = so/1000%10+0x30;     
....................    tr = so/100%10+0x30;  
....................    ch = so/10%10+0x30;         
....................    dv = so%10+0x30; 
....................    if(xvn)  
....................    { 
....................       if(ng==0x30) 
....................       {   
....................          ng=" "; 
....................          if(tr==0x30) 
....................          {      
....................             tr=" "; 
....................             if(ch==0x30) ch=" "; 
....................          } 
....................       } 
....................    } 
....................    lcd_data(ng);  lcd_data(tr);     
....................    lcd_data(ch);  lcd_data(dv);    
.................... } 
.................... //xxxxxxxxxxxxxxxxxxxxxxxxxxxxxxxxxxxxxxxxxxxxxxxxxxxxxxxx   
.................... //ham 619: giai ma hien thi 5 so tai toa do x,y 
.................... //xxxxxxxxxxxxxxxxxxxxxxxxxxxxxxxxxxxxxxxxxxxxxxxxxxxxxxxx  
.................... void lcd_gm_ht_5so_nho_xvn(usi16 so,usi8 x,usi8 y)       
.................... {                            
....................    usi8 cn,ng,tr,ch,dv;           
....................    lcd_goto_xy(x,y); 
....................    cn = so/10000%10+0x30;     
....................    ng = so/1000%10+0x30;     
....................    tr = so/100%10+0x30;  
....................    ch = so/10%10+0x30;         
....................    dv = so%10+0x30; 
....................    if(cn==0x30) 
....................    { 
....................      cn=" "; 
....................      if(ng==0x30) 
....................       {   
....................         ng=" "; 
....................         if(tr==0x30) 
....................         {      
....................         tr=" "; 
....................         if(ch==0x30) ch=" "; 
....................       } 
....................       } 
....................    } 
....................    lcd_data(cn); 
....................    lcd_data(ng);  lcd_data(tr);     
....................    lcd_data(ch);  lcd_data(dv);    
.................... } 
.................... //xxxxxxxxxxxxxxxxxxxxxxxxxxxxxxxxxxxxxxxxxxxxxxxxxxxxxxxx   
.................... //ham 620: giai ma hien thi 2 so to tai toa do x,y 
.................... //xxxxxxxxxxxxxxxxxxxxxxxxxxxxxxxxxxxxxxxxxxxxxxxxxxxxxxxx  
.................... void lcd_gm_ht_2so_to_xvn(usi16 so,usi8 x,usi8 y,int1 xvn) 
.................... {  
....................    usi8 ch,dv;     
....................    lcd_goto_xy(x,y); 
....................    ch = so/10%10;         
....................    dv = so%10; 
....................    lcd_hien_thi_so_to(ch,x,y);                
....................    lcd_hien_thi_so_to(dv,x,y+3);   
....................    if((ch==0)&&(xvn)) lcd_xoa_so_to(x,y); 
.................... } 
.................... //xxxxxxxxxxxxxxxxxxxxxxxxxxxxxxxxxxxxxxxxxxxxxxxxxxxxxxxx   
.................... //ham 621: giai ma hien thi 3 so to tai toa do x,y 
.................... //xxxxxxxxxxxxxxxxxxxxxxxxxxxxxxxxxxxxxxxxxxxxxxxxxxxxxxxx  
.................... void lcd_gm_ht_3so_to_xvn(usi16 so,usi8 x,usi8 y,int1 xvn) 
.................... {  
....................    usi8 tr,ch,dv;           
....................    lcd_goto_xy(x,y);                    
....................    tr = so/100%10;  
....................    ch = so/10%10;         
....................    dv = so%10; 
....................    lcd_hien_thi_so_to(tr,x,y);                
....................    lcd_hien_thi_so_to(ch,x,y+3);   
....................    lcd_hien_thi_so_to(dv,x,y+6); 
....................    if((tr==0)&&(xvn)) 
....................    {      
....................       lcd_xoa_so_to(x,y); 
....................       if(ch==0) lcd_xoa_so_to(x,y+3); 
....................    } 
.................... } 
.................... //xxxxxxxxxxxxxxxxxxxxxxxxxxxxxxxxxxxxxxxxxxxxxxxxxxxxxxxx   
.................... //ham 622: giai ma hien thi 4 so to tai toa do x,y 
.................... //xxxxxxxxxxxxxxxxxxxxxxxxxxxxxxxxxxxxxxxxxxxxxxxxxxxxxxxx  
.................... void lcd_gm_ht_4so_to_xvn(usi16 so,usi8 x,usi8 y,int1 xvn) 
.................... {  
....................    usi8 ng,tr,ch,dv;           
....................    lcd_goto_xy(x,y);                    
....................    ng = so/1000%10;  
....................    tr = so/100%10;  
....................    ch = so/10%10;         
....................    dv = so%10; 
....................    lcd_hien_thi_so_to(ng,x,y);                
....................    lcd_hien_thi_so_to(tr,x,y+3);   
....................    lcd_hien_thi_so_to(ch,x,y+6); 
....................    lcd_hien_thi_so_to(dv,x,y+9);   
....................    if((ng==0)&&(xvn)) 
....................    {      
....................       lcd_xoa_so_to(x,y); 
....................       if(tr==0)  
....................      { 
....................       lcd_xoa_so_to(x,y+3); 
....................       if(ch==0) lcd_xoa_so_to(x,y+6); 
....................      } 
....................    } 
.................... } 
.................... //xxxxxxxxxxxxxxxxxxxxxxxxxxxxxxxxxxxxxxxxxxxxxxxxxxxxxxxx   
.................... //ham 623: giai ma hien thi 4 so to tai toa do x,y 
.................... //xxxxxxxxxxxxxxxxxxxxxxxxxxxxxxxxxxxxxxxxxxxxxxxxxxxxxxxx  
.................... void lcd_gm_ht_5so_to_xvn(usi16 so,usi8 x,usi8 y,int1 xvn) 
.................... {  
....................    usi8 cn,ng,tr,ch,dv;  
....................  
....................       lcd_goto_xy(x,y); 
....................       ng = so/1000%10;  
....................       ng = so/1000%10;  
....................       tr = so/100%10;  
....................       ch = so/10%10;         
....................       dv = so%10; 
....................       lcd_hien_thi_so_to(cn,x,y);                
....................       lcd_hien_thi_so_to(ng,x,y+3);   
....................       lcd_hien_thi_so_to(tr,x,y+6); 
....................       lcd_hien_thi_so_to(ch,x,y+9);  
....................       lcd_hien_thi_so_to(dv,x,y+12); 
....................       if((cn==0)&&(xvn)) 
....................       {      
....................          lcd_xoa_so_to(x,y); 
....................          if(ng==0)  
....................          { 
....................             lcd_xoa_so_to(x,y+3); 
....................             if(tr==0)  
....................             { 
....................                lcd_xoa_so_to(x,y+6); 
....................                if(ch==0) lcd_xoa_so_to(x,y+9); 
....................             } 
....................          } 
....................       } 
.................... } 
.................... //xxxxxxxxxxxxxxxxxxxxxxxxxxxxxxxxxxxxxxxxxxxxxxxxxxxxxxxx   
.................... //ham 624: giai ma hien thi 4 so to tai toa do x,y 
.................... //xxxxxxxxxxxxxxxxxxxxxxxxxxxxxxxxxxxxxxxxxxxxxxxxxxxxxxxx  
.................... void lcd_hien_thi_2so_tp_nho(usi8 tp,usi8 x, y) 
.................... {    
....................    lcd_goto_xy(x,y); 
....................    lcd_data(".");                                         
....................    lcd_data(tp/10%10+0x30); 
....................    lcd_data(tp%10+0x30);    
.................... }   
....................  
....................  
....................  
.................... #include <tv_dht11.c>                                             
.................... //xxxxxxxxxxxxxxxxxxxxxxxxxxxxxxxxxxxxxxxxxxxxxxxxxxxxxxxx 
.................... //NGUYEN DINH PHU SU PHAM KY THUAT TP HCM 
.................... //xxxxxxxxxxxxxxxxxxxxxxxxxxxxxxxxxxxxxxxxxxxxxxxxxxxxxxxx 
....................  
.................... #define dht11_pin_low()    output_drive(dht11); output_low(dht11) 
.................... #define dht11_pin_high()   output_drive(dht11); output_high(dht11) 
.................... #define dht11_pin_float()  output_float(dht11) 
.................... #define dht11_pin_read()   input_state(dht11)   
.................... //xxxxxxxxxxxxxxxxxxxxxxxxxxxxxxxxxxxxxxxxxxxxxxxxxxxxxxx 
.................... //ham bat dau giao tiep dht11 
.................... //xxxxxxxxxxxxxxxxxxxxxxxxxxxxxxxxxxxxxxxxxxxxxxxxxxxxxxx   
.................... void dht11_start()         
.................... {                                 
....................    dht11_pin_low(); 
....................    delay_ms(20);                                        
....................    dht11_pin_high(); 
....................    dht11_pin_float(); 
....................    delay_us(40);    
.................... }  
.................... //xxxxxxxxxxxxxxxxxxxxxxxxxxxxxxxxxxxxxxxxxxxxxxxxxxxxxxx 
.................... //ham kiem tra dap ung cua DHT11:do thuc te cac thong so 
.................... //xxxxxxxxxxxxxxxxxxxxxxxxxxxxxxxxxxxxxxxxxxxxxxxxxxxxxxx   
.................... int1 dht11_check_response()         
.................... {                                 
....................    unsigned int8 cnt=0;    
....................    int1 tt=1, tt1=1; 
....................    do 
....................    { 
....................       if(dht11_pin_read()==0) cnt++; //       
....................       else                    tt=0;  //het o muc 0,xung ln 1,        
....................    }while ((cnt<200)&&(tt==1));      //dung: cnt<200 v tt=1; sai  
....................                                                 
....................    cnt=0; tt1=1; 
....................    do 
....................    { 
....................       if(dht11_pin_read()==1) cnt++;        
....................       else                    tt1=0;  //het o muc 1, xung xuong muc 0        
....................    }while ((cnt<200)&&(tt1==1));               
....................    return tt;  
.................... }        
.................... //xxxxxxxxxxxxxxxxxxxxxxxxxxxxxxxxxxxxxxxxxxxxxxxxxxxxxxx 
.................... //ham doc 5 byte cua DHT11 
.................... //xxxxxxxxxxxxxxxxxxxxxxxxxxxxxxxxxxxxxxxxxxxxxxxxxxxxxxx   
.................... unsigned int8 dht11_read()         
.................... {                                                                                
....................    unsigned int8 kq,j;     
....................    for(j=0;j<8;j++)                                                
....................    {                                                          
....................       while(!dht11_pin_read());  //doi het muc 0     
....................       delay_us(30); 
....................       if(dht11_pin_read()==1)  
....................       {              
....................          kq = (kq<<1)+1;     
....................          delay_us(40);           //bit 1 thi them delay 
....................       }                           
....................       else kq = kq<<1;   
....................    }     
....................    return kq;  
.................... }   
.................... //xxxxxxxxxxxxxxxxxxxxxxxxxxxxxxxxxxxxxxxxxxxxxxxxxxxxxxx 
.................... //ham hien thi thong bao tren lcd khong co dht11 
.................... //xxxxxxxxxxxxxxxxxxxxxxxxxxxxxxxxxxxxxxxxxxxxxxxxxxxxxxx   
.................... void hien_thi_no_dht11()  
.................... {  
....................    lcd_goto_xy(0,0);                                                         
....................    lcd_data("NO DHT11");                                            
.................... }               
.................... //xxxxxxxxxxxxxxxxxxxxxxxxxxxxxxxxxxxxxxxxxxxxxxxxxxxxxxx 
.................... //ham hien thi thong bao check sum sai 
.................... //xxxxxxxxxxxxxxxxxxxxxxxxxxxxxxxxxxxxxxxxxxxxxxxxxxxxxxx   
.................... void hien_thi_sai_dht11()          
.................... {  
....................    lcd_goto_xy(0,0);                                                         
....................    lcd_data("DOC SAI DU LIEU DHT11");  
.................... } 
....................  
.................... #include <tv_08_relay_triac_buzzer_dc.c>   
.................... //xxxxxxxxxxxxxxxxxxxxxxxxxxxxxxxxxxxxxxxxxxxxxxxxxxxxxxxx 
.................... //NGUYEN DINH PHU SU PHAM KY THUAT TP HCM 
.................... //xxxxxxxxxxxxxxxxxxxxxxxxxxxxxxxxxxxxxxxxxxxxxxxxxxxxxxxx 
....................  
.................... //xxxxxxxxxxxxxxxxxxxxxxxxxxxxxxxxxxxxxxxxxxxxxxxxxxxxxxxx 
.................... //ham 801: dk relay,triac, buzzer, dong co, sim 
.................... //xxxxxxxxxxxxxxxxxxxxxxxxxxxxxxxxxxxxxxxxxxxxxxxxxxxxxxxx 
.................... void xuat_buzzer_relay() 
.................... {      
....................    unsigned int8 rbdc1,rbdc2; 
....................    rbdc1=rbdc; rbdc2=rbdc>>8;       
....................    xuat_1byte(rbdc2);      xuat_1byte(rbdc1);             
....................    output_high(rck_rlb);    
....................    output_low(rck_rlb); 
.................... }                                    
.................... //xxxxxxxxxxxxxxxxxxxxxxxxxxxxxxxxxxxxxxxxxxxxxxxxxxxxxxxx 
.................... //ham 802: dk buzzer on 
.................... //xxxxxxxxxxxxxxxxxxxxxxxxxxxxxxxxxxxxxxxxxxxxxxxxxxxxxxxx 
.................... void buzzer_on() 
.................... {     
....................    buzzer=1; 
....................    xuat_buzzer_relay();          
.................... } 
.................... //xxxxxxxxxxxxxxxxxxxxxxxxxxxxxxxxxxxxxxxxxxxxxxxxxxxxxxxx 
.................... //ham 803: dk buzzer off 
.................... //xxxxxxxxxxxxxxxxxxxxxxxxxxxxxxxxxxxxxxxxxxxxxxxxxxxxxxxx 
.................... void buzzer_off() 
.................... {      
....................    buzzer=0; 
....................    xuat_buzzer_relay(); 
.................... }   
.................... //xxxxxxxxxxxxxxxxxxxxxxxxxxxxxxxxxxxxxxxxxxxxxxxxxxxxxxxx 
.................... //ham 804: dk buzzer on roi off de tao bip 
.................... //xxxxxxxxxxxxxxxxxxxxxxxxxxxxxxxxxxxxxxxxxxxxxxxxxxxxxxxx 
.................... void buzzer_on_off(usi16 dl) 
.................... {      
....................    buzzer=1; 
....................    xuat_buzzer_relay(); 
....................    delay_ms(dl); 
....................    buzzer=0; 
....................    xuat_buzzer_relay(); 
.................... }   
.................... //xxxxxxxxxxxxxxxxxxxxxxxxxxxxxxxxxxxxxxxxxxxxxxxxxxxxxxxx 
.................... //ham 805: dk Relay 1 on 
.................... //xxxxxxxxxxxxxxxxxxxxxxxxxxxxxxxxxxxxxxxxxxxxxxxxxxxxxxxx 
.................... void relay_1_on() 
.................... {     
....................    relay_1=1; 
....................    xuat_buzzer_relay();          
.................... } 
.................... //xxxxxxxxxxxxxxxxxxxxxxxxxxxxxxxxxxxxxxxxxxxxxxxxxxxxxxxx 
.................... //ham 806: dk Relay 1 off 
.................... //xxxxxxxxxxxxxxxxxxxxxxxxxxxxxxxxxxxxxxxxxxxxxxxxxxxxxxxx 
.................... void relay_1_off() 
.................... {     
....................    relay_1=0; 
....................    xuat_buzzer_relay();          
.................... } 
.................... //xxxxxxxxxxxxxxxxxxxxxxxxxxxxxxxxxxxxxxxxxxxxxxxxxxxxxxxx 
.................... //ham 807: dk Relay 2 on 
.................... //xxxxxxxxxxxxxxxxxxxxxxxxxxxxxxxxxxxxxxxxxxxxxxxxxxxxxxxx 
.................... void relay_2_on() 
.................... {     
....................    relay_2=1; 
....................    xuat_buzzer_relay();          
.................... } 
.................... //xxxxxxxxxxxxxxxxxxxxxxxxxxxxxxxxxxxxxxxxxxxxxxxxxxxxxxxx 
.................... //ham 808: dk Relay 2 off 
.................... //xxxxxxxxxxxxxxxxxxxxxxxxxxxxxxxxxxxxxxxxxxxxxxxxxxxxxxxx 
.................... void relay_2_off() 
.................... {     
....................    relay_2=0; 
....................    xuat_buzzer_relay();          
.................... } 
.................... //xxxxxxxxxxxxxxxxxxxxxxxxxxxxxxxxxxxxxxxxxxxxxxxxxxxxxxxx 
.................... //ham 809: dk 2 Relay ON 
.................... //xxxxxxxxxxxxxxxxxxxxxxxxxxxxxxxxxxxxxxxxxxxxxxxxxxxxxxxx 
.................... void relay_1_relay_2_on() 
.................... {     
....................    relay_1=1;  relay_2=1; 
....................    xuat_buzzer_relay();          
.................... } 
.................... //xxxxxxxxxxxxxxxxxxxxxxxxxxxxxxxxxxxxxxxxxxxxxxxxxxxxxxxx 
.................... //ham 810: dk 2 Relay Off 
.................... //xxxxxxxxxxxxxxxxxxxxxxxxxxxxxxxxxxxxxxxxxxxxxxxxxxxxxxxx 
.................... void relay_1_relay_2_off() 
.................... {     
....................    relay_1=0;  relay_2=0; 
....................    xuat_buzzer_relay();          
.................... } 
.................... //xxxxxxxxxxxxxxxxxxxxxxxxxxxxxxxxxxxxxxxxxxxxxxxxxxxxxxxx 
.................... //ham 811: dk triac 1 on 
.................... //xxxxxxxxxxxxxxxxxxxxxxxxxxxxxxxxxxxxxxxxxxxxxxxxxxxxxxxx 
.................... void triac_1_on() 
.................... {     
....................    triac_1=1; 
....................    xuat_buzzer_relay();          
.................... } 
.................... //xxxxxxxxxxxxxxxxxxxxxxxxxxxxxxxxxxxxxxxxxxxxxxxxxxxxxxxx 
.................... //ham 812: dk triac 1 off 
.................... //xxxxxxxxxxxxxxxxxxxxxxxxxxxxxxxxxxxxxxxxxxxxxxxxxxxxxxxx 
.................... void triac_1_off() 
.................... {     
....................    triac_1=0; 
....................    xuat_buzzer_relay();          
.................... } 
.................... //xxxxxxxxxxxxxxxxxxxxxxxxxxxxxxxxxxxxxxxxxxxxxxxxxxxxxxxx 
.................... //ham 813: dk triac 2 on 
.................... //xxxxxxxxxxxxxxxxxxxxxxxxxxxxxxxxxxxxxxxxxxxxxxxxxxxxxxxx 
.................... void triac_2_on() 
.................... {     
....................    triac_2=1; 
....................    xuat_buzzer_relay();          
.................... } 
.................... //xxxxxxxxxxxxxxxxxxxxxxxxxxxxxxxxxxxxxxxxxxxxxxxxxxxxxxxx 
.................... //ham 814: dk triac 2 off 
.................... //xxxxxxxxxxxxxxxxxxxxxxxxxxxxxxxxxxxxxxxxxxxxxxxxxxxxxxxx 
.................... void triac_2_off()               
.................... {                                                        
....................    triac_2=0; 
....................    xuat_buzzer_relay();          
.................... }        
....................  
.................... #include <tv_07_adc_cb.c>                                           
.................... //xxxxxxxxxxxxxxxxxxxxxxxxxxxxxxxxxxxxxxxxxxxxxxxxxxxxxxxx 
.................... //NGUYEN DINH PHU SU PHAM KY THUAT TP HCM 
.................... //xxxxxxxxxxxxxxxxxxxxxxxxxxxxxxxxxxxxxxxxxxxxxxxxxxxxxxxx 
....................  
.................... //xxxxxxxxxxxxxxxxxxxxxxxxxxxxxxxxxxxxxxxxxxxxxxxxxxxxxxxx 
.................... //xxxxxxxxxxxxxxxxxxxxxxxxxxxxxxxxxxxxxxxxxxxxxxxxxxxxxxxx 
.................... //ham 701: chuyen doi theo kenh va so lan, tra ve T/F  
.................... //xxxxxxxxxxxxxxxxxxxxxxxxxxxxxxxxxxxxxxxxxxxxxxxxxxxxxxxx    
.................... //xxxxxxxxxxxxxxxxxxxxxxxxxxxxxxxxxxxxxxxxxxxxxxxxxxxxxxxx  
.................... //dinh nghia cac kenh ADC noi voi cac cam bien  
.................... #define chan_lm35a   0                         
.................... #define chan_lm35b   1 
.................... #define chan_cbkc    2 
.................... //xxxxxxxxxxxxxxxxxxxxxxxxxxxxxxxxxxxxxxxxxxxxxxxxxxxxxxxx   
.................... float h701_adc_read(usi8 solan,chan_i)                       
.................... { 
....................    float kq_adc; 
....................    set_adc_channel(chan_i);                
....................    delay_us(20);                                           
....................    kq_adc = 0;              
....................    for(int8 i=0;i<solan;i++)   
....................    { 
....................       kq_adc = kq_adc + read_adc();                         
....................    } 
....................    kq_adc = kq_adc/solan;      
....................    return kq_adc;  
.................... } 
.................... //xxxxxxxxxxxxxxxxxxxxxxxxxxxxxxxxxxxxxxxxxxxxxxxxxxxxxxxx 
.................... //ham 702: tach so thuc thanh phan nguyen va thap phan 
.................... //xxxxxxxxxxxxxxxxxxxxxxxxxxxxxxxxxxxxxxxxxxxxxxxxxxxxxxxx   
.................... usi16 so_ng,so_tp; 
.................... void float_to_ng_2so_tp(float st)                       
.................... {    
....................    so_ng = st/1;       //nguyen                           
....................    st = st-so_ng;      //tphan 
....................    st = st*100;                                                          
....................    so_tp = st/1;    
.................... }  
.................... //xxxxxxxxxxxxxxxxxxxxxxxxxxxxxxxxxxxxxxxxxxxxxxxxxxxxxxxx    
.................... //xxxxxxxxxxxxxxxxxxxxxxxxxxxxxxxxxxxxxxxxxxxxxxxxxxxxxxxx 
.................... //ham 703: do nhiet lm35a, lm35b, dkhien den, bao dong 
.................... //xxxxxxxxxxxxxxxxxxxxxxxxxxxxxxxxxxxxxxxxxxxxxxxxxxxxxxxx    
.................... //xxxxxxxxxxxxxxxxxxxxxxxxxxxxxxxxxxxxxxxxxxxxxxxxxxxxxxxx    
.................... #define nd_tren  34                                                       
.................... #define nd_duoi  32          
.................... int1 ttqn=0,buz_ena=0;              
.................... void so_sanh_1nd_dk_buzzer(usi16 nd1)                         
.................... {                                    
....................    if((nd1>nd_tren)&&(ttqn==0))         
....................    { 
....................       ttqn = 1;                                                               
....................       if(buz_ena)   buzzer_on();                                    
....................       triac_2_off();  
....................    }                                                                            
....................    else if((nd1<nd_tren)&&(ttqn==1)) 
....................    { 
....................       ttqn = 0;  
....................       buzzer_off(); 
....................    } 
....................    else if((nd1<nd_duoi)&&(ttqn==0))   
....................       triac_2_on(); 
.................... }    
....................  
.................... //xxxxxxxxxxxxxxxxxxxxxxxxxxxxxxxxxxxxxxxxxxxxxxxxxxxxxxxx     
.................... //xxxxxxxxxxxxxxxxxxxxxxxxxxxxxxxxxxxxxxxxxxxxxxxxxxxxxxxx 
.................... //bai 711: doc gia tri cua joystick hien thi lcd           
.................... //xxxxxxxxxxxxxxxxxxxxxxxxxxxxxxxxxxxxxxxxxxxxxxxxxxxxxxxx 
.................... //xxxxxxxxxxxxxxxxxxxxxxxxxxxxxxxxxxxxxxxxxxxxxxxxxxxxxxxx    
.................... //!void h711_lcd_hien_thi_joystick(usi8 x,y)                                  
.................... //!{                                              
.................... //!   lcd_goto_xy(0,0);                                                         
.................... //!   lcd_data("JOYSTICK"); 
.................... //!   lcd_goto_xy(1,4);                                                         
.................... //!   lcd_data("VRX:"); 
.................... //!   lcd_goto_xy(3,4);                                                         
.................... //!   lcd_data("VRY:"); 
.................... //!}  
.................... //! 
.................... //xxxxxxxxxxxxxxxxxxxxxxxxxxxxxxxxxxxxxxxxxxxxxxxxxxxxxxxx 
.................... //vrx noi kenh thu 1 AN1, vry noi voi an2 
.................... //cho phep hien thi 2 so thap phan tuy thuoc vao http 
.................... //dung bien nguyen tam de khi bang thi khong can hthi lai 
.................... //xxxxxxxxxxxxxxxxxxxxxxxxxxxxxxxxxxxxxxxxxxxxxxxxxxxxxxxx 
.................... //!usi16 vrx_ng,vrx_ngt; 
.................... //!void h711_adc_js_vrx_doc_xuly(usi8 solan)                                      
.................... //!{                                               
.................... //!   float vrx; 
.................... //!   vrx=h701_adc_read(solan,chan_js_vrx); 
.................... //!   h701_foat_to_ng_2so_tp(vrx);       
.................... //!   vrx_ng = so_ng; 
.................... //!} 
.................... //!//xxxxxxxxxxxxxxxxxxxxxxxxxxxxxxxxxxxxxxxxxxxxxxxxxxxxxxxx 
.................... //!void h711_adc_js_vrx_ht_lcd_7doan(usi8 x,y,z,int1 ht_l7d,ht_lcd)                                      
.................... //!{                                                  
.................... //!   if(vrx_ngt!=vrx_ng) 
.................... //!   { 
.................... //!      vrx_ngt=vrx_ng; 
.................... //!      if(ht_l7d)   
.................... //!      { 
.................... //!         giaima_bin_4so_vitri_vn(vrx_ng,z,cx_vn);  //4 
.................... //!         xuat_8led_7doan();  
.................... //!      } 
.................... //!      if(ht_lcd) lcd_gm_ht_4so_to_xvn(vrx_ng,x,y,kx_vn);//0,8 
.................... //!   }           
.................... //!}   
.................... //!//xxxxxxxxxxxxxxxxxxxxxxxxxxxxxxxxxxxxxxxxxxxxxxxxxxxxxxxx 
.................... //!void h711_adc_js_vrx_all(usi8 solan, x,y,z,int1 ht_l7d,ht_lcd)                                      
.................... //!{                                                  
.................... //!     h711_adc_js_vrx_doc_xuly(solan); 
.................... //!     h711_adc_js_vrx_ht_lcd_7doan(x,y,z,ht_l7d,ht_lcd); 
.................... //!}   
.................... //! 
.................... //!//xxxxxxxxxxxxxxxxxxxxxxxxxxxxxxxxxxxxxxxxxxxxxxxxxxxxxxxx 
.................... //!usi16 vry_ng,vry_ngt; 
.................... //!void h712_adc_js_vry_doc_xuly(usi8 solan)                                      
.................... //!{                                            
.................... //!   float vry;   
.................... //!   vry=h701_adc_read(solan,chan_js_vry); 
.................... //!   h701_foat_to_ng_2so_tp(vry);       
.................... //!   vry_ng = so_ng; 
.................... //!} 
.................... //! 
.................... //!void h712_adc_js_vry_ht_lcd_7doan(usi8 x,y,z,int1 ht_l7d,ht_lcd)                                      
.................... //!{                                              
.................... //!   if(vry_ngt!=vry_ng) 
.................... //!   { 
.................... //!      vry_ngt=vry_ng; 
.................... //!      if(ht_l7d)   
.................... //!      {   
.................... //!         giaima_bin_4so_vitri_vn(vry_ng,z,cx_vn);//0 
.................... //!         xuat_8led_7doan(); 
.................... //!      }                   
.................... //!      if(ht_lcd) lcd_gm_ht_4so_to_xvn(vry_ng,x,y,kx_vn);//2,8 
.................... //!   }                              
.................... //!}   
.................... //!  
.................... //!void h712_adc_js_vry_all(usi8 solan,x,y,z,int1 ht_l7d,ht_lcd )                                      
.................... //!{  
.................... //!   h712_adc_js_vry_doc_xuly(solan); 
.................... //!   h712_adc_js_vry_ht_lcd_7doan(x,y,z,ht_l7d,ht_lcd); 
.................... //!}      
....................  
.................... //xxxxxxxxxxxxxxxxxxxxxxxxxxxxxxxxxxxxxxxxxxxxxxxxxxxxxxxx 
.................... //ham kiem tra phim on                           
.................... //neu co nhan thi dao bit tt_on_off va tra ve co nhan 
.................... //neu khong nhan tra ve tt khong nhan 
.................... //xxxxxxxxxxxxxxxxxxxxxxxxxxxxxxxxxxxxxxxxxxxxxxxxxxxxxxxx      
.................... //!int1 phim_on_off_btn_joy()    
.................... //!{                      
.................... //!   if(phim_bt_joy_c1(c_ktnp,0)==co_nhan)    
.................... //!   { 
.................... //!      tt_on_off = ~tt_on_off; 
.................... //!      return co_nhan;    
.................... //!   }                                     
.................... //!   else   return khong_nhan;                    
.................... //!}   
.................... //!//xxxxxxxxxxxxxxxxxxxxxxxxxxxxxxxxxxxxxxxxxxxxxxxxxxxxxxxx 
.................... //!void h713_32led_on_off_btj()        
.................... //!{                               
.................... //!   tt_1btn = phim_on_off_btn_joy(); 
.................... //!   if(tt_1btn==co_nhan)               
.................... //!      h323_dk_32led_theo_tt_on_off(); 
.................... //!}             
....................  
....................  
.................... //!void b711_adc_joystick(usi8 solan,x,y,z,int1 ht_l7d,ht_lcd)                                      
.................... //!{                                            
.................... //!   h711_adc_js_vrx_all(solan,x,y,z,ht_l7d,ht_lcd);                                                                 
.................... //!   h711_adc_js_vry_all(solan);                       
.................... //!   h711_32led_on_off_btj();              
.................... //!}   
....................  
.................... //xxxxxxxxxxxxxxxxxxxxxxxxxxxxxxxxxxxxxxxxxxxxxxxxxxxxxxxx     
.................... //xxxxxxxxxxxxxxxxxxxxxxxxxxxxxxxxxxxxxxxxxxxxxxxxxxxxxxxx 
.................... //bai 711: doc gia tri cua joystick hien thi lcd           
.................... //xxxxxxxxxxxxxxxxxxxxxxxxxxxxxxxxxxxxxxxxxxxxxxxxxxxxxxxx 
.................... //xxxxxxxxxxxxxxxxxxxxxxxxxxxxxxxxxxxxxxxxxxxxxxxxxxxxxxxx    
....................  
.................... //xxxxxxxxxxxxxxxxxxxxxxxxxxxxxxxxxxxxxxxxxxxxxxxxxxxxxxxx 
.................... //ham kiem tra phim on                           
.................... //neu co nhan thi dao bit tt_on_off va tra ve co nhan 
.................... //neu khong nhan tra ve tt khong nhan 
.................... //xxxxxxxxxxxxxxxxxxxxxxxxxxxxxxxxxxxxxxxxxxxxxxxxxxxxxxxx                                                    
....................                                                                     
.................... //xxxxxxxxxxxxxxxxxxxxxxxxxxxxxxxxxxxxxxxxxxxxxxxxxxxxxxxx     
.................... //xxxxxxxxxxxxxxxxxxxxxxxxxxxxxxxxxxxxxxxxxxxxxxxxxxxxxxxx 
.................... //ham 712: do nhiet lm35a, dkhien den, bao dong           
.................... //xxxxxxxxxxxxxxxxxxxxxxxxxxxxxxxxxxxxxxxxxxxxxxxxxxxxxxxx 
.................... //xxxxxxxxxxxxxxxxxxxxxxxxxxxxxxxxxxxxxxxxxxxxxxxxxxxxxxxx 
.................... //!void b712_adc_lm35a_lm35b_joystick()                                      
.................... //!{ 
.................... //!          
.................... //!}  
.................... //!  
.................... //xxxxxxxxxxxxxxxxxxxxxxxxxxxxxxxxxxxxxxxxxxxxxxxxxxxxxxxx       
.................... //ham 712: do nhiet lm35a, lm35b, dkhien den, bao dong 
.................... //xxxxxxxxxxxxxxxxxxxxxxxxxxxxxxxxxxxxxxxxxxxxxxxxxxxxxxxx    
....................      
.................... //xxxxxxxxxxxxxxxxxxxxxxxxxxxxxxxxxxxxxxxxxxxxxxxxxxxxxxxx   
.................... //xxxxxxxxxxxxxxxxxxxxxxxxxxxxxxxxxxxxxxxxxxxxxxxxxxxxxxxx 
.................... //ham 721: do nhiet lm35a, lm35b, dkhien den, bao dong 
.................... //xxxxxxxxxxxxxxxxxxxxxxxxxxxxxxxxxxxxxxxxxxxxxxxxxxxxxxxx   
.................... //xxxxxxxxxxxxxxxxxxxxxxxxxxxxxxxxxxxxxxxxxxxxxxxxxxxxxxxx  
.................... //!void h721_lcd_ht_text_cbkc_gp2d12()                             
.................... //!{                                              
.................... //!   lcd_goto_xy(0,0);                                                         
.................... //!   lcd_data("Cam bien khoang cach");  
.................... //!   lcd_goto_xy(1,0);                                                         
.................... //!   lcd_data("SHARP GP2D12:10-80cm");     
.................... //!}   
.................... //!//xxxxxxxxxxxxxxxxxxxxxxxxxxxxxxxxxxxxxxxxxxxxxxxxxxxxxxxx  
.................... //!usi16 kc_ng,kc_tp,kc_ngt=0; 
.................... //!void h721_adc_cbkc_gp2d12_doc_xuly(usi8 sl)                                      
.................... //!{                 
.................... //!   float kc;   
.................... //!   kc=h701_adc_read(sl,chan_cbkc); 
.................... //!   kc = pow(4277/kc,1.106);                                     
.................... //!   if(kc>80) kc=80;   
.................... //!   h701_foat_to_ng_2so_tp(kc);       
.................... //!   kc_ng = so_ng;                               
.................... //!   kc_tp = so_tp;  
.................... //!}     
.................... //!//xxxxxxxxxxxxxxxxxxxxxxxxxxxxxxxxxxxxxxxxxxxxxxxxxxxxxxxx 
.................... //!void h721_adc_cbkc_gp2d12_ht_lcd_7doan(usi8 x,y,z,int1 ht_l7d,ht_lcd,ht_tp)                                      
.................... //!{                 
.................... //!   if(kc_ngt!=kc_ng) 
.................... //!   { 
.................... //!      kc_ngt=kc_ng;       
.................... //!      if(ht_l7d)  
.................... //!      { 
.................... //!         giaima_bin_2so_vitri_vn(kc_ng,z,cx_vn);//3 
.................... //!         xuat_8led_7doan(); 
.................... //!      } 
.................... //!      if(ht_lcd) lcd_gm_ht_2so_to_xvn(kc_ng,x,y,kx_vn);//2,0 
.................... //!   } 
.................... //!   if(ht_tp) lcd_hien_thi_2so_tp_nho(kc_tp,x+1,y+6);   
.................... //!} 
.................... //!//xxxxxxxxxxxxxxxxxxxxxxxxxxxxxxxxxxxxxxxxxxxxxxxxxxxxxxxx 
.................... //!void b721_adc_cbkc_gp2d12_all(usi8 solan,x,y,z,int1 ht_l7d,ht_lcd,ht_tp)                                      
.................... //!{ 
.................... //!   h721_adc_cbkc_gp2d12_doc_xuly(solan); 
.................... //!   h721_adc_cbkc_gp2d12_ht_lcd_7doan(x,y,z,ht_l7d,ht_lcd,ht_tp); 
.................... //!}     
.................... //xxxxxxxxxxxxxxxxxxxxxxxxxxxxxxxxxxxxxxxxxxxxxxxxxxxxxxxx   
.................... //xxxxxxxxxxxxxxxxxxxxxxxxxxxxxxxxxxxxxxxxxxxxxxxxxxxxxxxx 
.................... //ham 721: do nhiet lm35a, lm35b, dkhien den, bao dong 
.................... //xxxxxxxxxxxxxxxxxxxxxxxxxxxxxxxxxxxxxxxxxxxxxxxxxxxxxxxx   
.................... //xxxxxxxxxxxxxxxxxxxxxxxxxxxxxxxxxxxxxxxxxxxxxxxxxxxxxxxx   
....................   
.................... //!void b722_adc_lm35a_lm35a_joystick_cbkc()                                      
.................... //!{                                                         
.................... //!      giaima_bin_2so_vitri_vn(lm35b/1,2,kx_vn);                                               
.................... //!      giaima_bin_2so_vitri_vn(lm35a/1,0,kx_vn);                 
.................... //!      xuat_8led_7doan();                                                  
.................... //!      h701_lcd_hien_thi_so_tp(lm35a,1,0,sole_1);   
.................... //!      h701_lcd_hien_thi_so_tp(lm35b,1,7,sole_1);     
.................... //!      h701_lcd_hien_thi_so_tp(vrx,3,0,sole_1);          
.................... //!      h701_lcd_hien_thi_so_tp(vry,3,7,sole_1);           
.................... //!      h701_lcd_hien_thi_so_tp(cb_kc,1,14,sole_1);                           
.................... //!}      
.................... //xxxxxxxxxxxxxxxxxxxxxxxxxxxxxxxxxxxxxxxxxxxxxxxxxxxxxxxx 
.................... //ham 721: do nhiet lm35a, lm35b, dkhien den, bao dong 
.................... //xxxxxxxxxxxxxxxxxxxxxxxxxxxxxxxxxxxxxxxxxxxxxxxxxxxxxxxx   
.................... //!//xxxxxxxxxxxxxxxxxxxxxxxxxxxxxxxxxxxxxxxxxxxxxxxxxxxxxxxx 
.................... //!void h731_lcd_hien_thi_hcsr04(usi8 x,y)                             
.................... //!{                                              
.................... //!   lcd_goto_xy(x,y);                                                         
.................... //!   lcd_data("HCSR04");                                            
.................... //!}               
.................... //!void h731_hcsr04_do_khoangcach()                               
.................... //!{                                                              
.................... //!   output_high(trig);       
.................... //!   delay_us(20);    
.................... //!   output_low(trig);           
.................... //!                                            
.................... //!   set_timer3(0);                                           
.................... //!   while(!(input(echo)));          
.................... //!   setup_timer_3(t3_internal|t3_div_by_8);   
.................... //!                                 
.................... //!   while(input(echo));                                    
.................... //!   setup_timer_3(t3_disabled); 
.................... //!                                                  
.................... //!} 
.................... //! 
.................... //!usi16 gt_t3,kcsa_ng,kcsa_tp,kcsa_ngt=0; 
.................... //!void h731_cbkc_hc04_do_xuly()                                      
.................... //!{                   
.................... //!   float kcsa;   
.................... //!   h731_hcsr04_do_khoangcach(); 
.................... //!   gt_t3 = get_timer3(); 
.................... //!  
.................... //!   kcsa = gt_t3*1.6;                                               
.................... //!   kcsa = (kcsa/58); 
.................... //!    
.................... //!   h701_foat_to_ng_2so_tp(kcsa);       
.................... //!   kcsa_ng = so_ng; 
.................... //!   kcsa_tp = so_tp;  
.................... //!} 
.................... //! 
.................... //!void h731_cbkc_hc04_ht_lcd_7doan(usi8 x,y,z,int1 ht_l7d,ht_lcd)                                      
.................... //!{                     
.................... //!   if(kcsa_ngt!=kcsa_ng) 
.................... //!   { 
.................... //!      kcsa_ngt=kcsa_ng; 
.................... //!      if(ht_l7d)         
.................... //!      {   
.................... //!         giaima_bin_4so_vitri_vn(kcsa_ng,z,cx_vn); //0 
.................... //!         xuat_8led_7doan(); 
.................... //!      } 
.................... //!      if(ht_lcd)lcd_gm_ht_4so_to_xvn(kcsa_ng,x,y,kx_vn);//2,8 
.................... //!   }   
.................... //!} 
.................... //! 
.................... //!void h731_cbkc_hc04_all(usi8 x,y,z,int1 ht_l7d,ht_lcd)                                      
.................... //!{     
.................... //!   h731_cbkc_hc04_do_xuly(); 
.................... //!   h731_cbkc_hc04_ht_lcd_7doan(x,y,z,ht_l7d,ht_lcd); 
.................... //!} 
.................... //!//xxxxxxxxxxxxxxxxxxxxxxxxxxxxxxxxxxxxxxxxxxxxxxxxxxxxxxxx 
.................... //! 
.................... //!//xxxxxxxxxxxxxxxxxxxxxxxxxxxxxxxxxxxxxxxxxxxxxxxxxxxxxxxx 
.................... //!void b761_ket_hop_5_module()                             
.................... //!{                                                                   
.................... //!     //b622_glcd_dem_giay_kim_c1();      
.................... //!     //b536_lcd_dem_xung_timer0_so_to(); 
.................... //!     b424_gpg_3bt(20,10);                  
.................... //!     b351_32led_4yc_tu_dong_if();             
....................      //h761_adc_lm35a_lm35b_joystick_cbkc_hc04();   
.................... //!}                                                  
.................... //!//xxxxxxxxxxxxxxxxxxxxxxxxxxxxxxxxxxxxxxxxxxxxxxxxxxxxxxxx 
.................... //!//bai 643: ham chinh ket hop 32 led, 8 led 7doan, lcd, glcd         
.................... //!//xxxxxxxxxxxxxxxxxxxxxxxxxxxxxxxxxxxxxxxxxxxxxxxxxxxxxxxx   
.................... //!void b742_lcd_dem_xung_timer0_so_to()                                                   
.................... //!{                                                                       
.................... //!   t0 = get_timer0();                                       
.................... //!   if(t0!=t0_tam)               
.................... //!   {                                                          
.................... //!      giaima_bin_3so_vitri_vn(t0,0,cx_vn);            
.................... //!      h536_giai_ma_ht_so_to(t0);  
.................... //!      //h603_glcd_giai_ma_hien_thi(glcd_addr_line1,t0);  
.................... //!      t0_tam = t0;                    
.................... //!   }                                                                                
.................... //!   if (t0>=120)   set_timer0(0);                                                  
.................... //!}  
.................... //!  
.................... //!void b742_ket_hop_5_module()                             
.................... //!{                                                                   
.................... //!     //b622_glcd_dem_giay_kim_c1(); 
.................... //!      
.................... //!     b742_lcd_dem_xung_timer0_so_to(); 
.................... //!     b424_gpg_3bt(20,10);                  
.................... //!     b351_32led_4yc_tu_dong_if();                                               
.................... //!} 
.................... //!  
.................... //!           
....................  
.................... #include <tv_07_ds18b20.c>  
.................... //xxxxxxxxxxxxxxxxxxxxxxxxxxxxxxxxxxxxxxxxxxxxxxxxxxxxxxxx 
.................... //NGUYEN DINH PHU SU PHAM KY THUAT TP HCM 
.................... //xxxxxxxxxxxxxxxxxxxxxxxxxxxxxxxxxxxxxxxxxxxxxxxxxxxxxxxx 
....................  
.................... //xxxxxxxxxxxxxxxxxxxxxxxxxxxxxxxxxxxxxxxxxxxxxxxxxxxxxxxx 
.................... //dinh nghia chan giao tiep, thu vien, cac lenh ds13b20       
.................... //xxxxxxxxxxxxxxxxxxxxxxxxxxxxxxxxxxxxxxxxxxxxxxxxxxxxxxxx  
.................... #define  touch_pin pin_a5   
.................... #include <touch.c>                               
.................... /////////////////////////////////////////////////////////////////////////// 
.................... ////                        Dallas Touch Driver                        //// 
.................... ////                                                                   //// 
.................... ////                                                                   //// 
.................... ////  data = touch_read_bit()     Reads one bit from a touch device    //// 
.................... ////                                                                   //// 
.................... ////  data = touch_read_BYTE()    Reads one byte from a touch device.  //// 
.................... ////                                                                   //// 
.................... ////  ok = touch_write_bit(data)  Writes one bit to a touch device     //// 
.................... ////                              and returns true if all went ok.     //// 
.................... ////                              A false indicates a collision with   //// 
.................... ////                              another device.                      //// 
.................... ////                                                                   //// 
.................... ////  ok = touch_write_byte(data) Writes one byte to a touch device    //// 
.................... ////                              and returns true if all went ok.     //// 
.................... ////                              A false indicates a collision with   //// 
.................... ////                              another device.                      //// 
.................... ////                                                                   //// 
.................... ////  present = touch_present()   Issues a reset and returns true      //// 
.................... ////                              if the touch device is there.        //// 
.................... ////                                                                   //// 
.................... ////  reset_pulse()               Issues a reset and waits for a       //// 
.................... ////                              present pulse.                       //// 
.................... ////                                                                   //// 
.................... /////////////////////////////////////////////////////////////////////////// 
.................... ////        (C) Copyright 1996,2010 Custom Computer Services           //// 
.................... //// This source code may only be used by licensed users of the CCS C  //// 
.................... //// compiler.  This source code may only be distributed to other      //// 
.................... //// licensed users of the CCS C compiler.  No other use, reproduction //// 
.................... //// or distribution is permitted without written permission.          //// 
.................... //// Derivative programs created using this software in object code    //// 
.................... //// form are not restricted in any way.                               //// 
.................... /////////////////////////////////////////////////////////////////////////// 
....................  
.................... #ifndef  TOUCH_C 
.................... #define  TOUCH_C 
....................  
.................... #ifndef TOUCH_PIN 
....................    #define TOUCH_PIN  PIN_B0 
.................... #endif 
....................  
.................... #define TOUCH_PIN_LOW()    output_drive(TOUCH_PIN); output_low(TOUCH_PIN) 
.................... #define TOUCH_PIN_HIGH()    output_drive(TOUCH_PIN); output_high(TOUCH_PIN) 
.................... #define TOUCH_PIN_FLOAT()  output_float(TOUCH_PIN) 
.................... #define TOUCH_PIN_READ()      input_state(TOUCH_PIN) 
....................  
.................... ///////////////////////////// 
.................... ////                     //// 
.................... //// Function Prototypes //// 
.................... ////                     //// 
.................... ///////////////////////////// 
....................  
.................... /* 
.................... int1 touch_read_bit() 
.................... This will read back a bit from the DS1993 
.................... PARAMS: none 
.................... RETURNS: A bit from the DS1993 
.................... */ 
.................... int1 touch_read_bit(); 
....................  
.................... /* 
.................... BYTE touch_read_byte() 
.................... This will read back a byte from the DS1993 
.................... PARAMS: none 
.................... RETURNS: A byte from the DS1993 
.................... */ 
.................... BYTE touch_read_byte(); 
....................  
.................... /* 
.................... BOOLEAN touch_write_bit(int1 data) 
.................... This will write a bit to the DS1993 
.................... PARAMS: The bit to write 
.................... RETURNS: True if completed successfully, false if otherwise 
.................... */ 
.................... BOOLEAN touch_write_bit(int1 data); 
....................  
.................... /* 
.................... BOOLEAN touch_write_byte(BYTE data) 
.................... This will write a byte to the DS1993 
.................... PARAMS: The byte to write 
.................... RETURNS: True if completed successfully, false if otherwise 
.................... */ 
.................... BOOLEAN touch_write_byte(BYTE data); 
....................  
.................... /* 
.................... BOOLEAN touch_present() 
.................... This will evaluate whether or not there is a touch present on the DS1993 
.................... PARAMS: none 
.................... RETURNS: True if a touch is present, false if otherwise 
.................... */ 
.................... BOOLEAN touch_present(); 
....................  
.................... /* 
.................... void reset_pulse() 
.................... This will send the DS1993 a reset pulse 
.................... PARAMS: none 
.................... RETURNS: none 
.................... */ 
.................... void reset_pulse(); 
....................  
.................... ////////////////////////////////// 
.................... ////                          //// 
.................... //// Function Implementations //// 
.................... ////                          //// 
.................... ////////////////////////////////// 
....................  
.................... /* 
.................... int1 touch_read_bit() 
.................... This will read back a bit from the DS1993 
.................... PARAMS: none 
.................... RETURNS: A bit from the DS1993 
.................... */ 
.................... int1 touch_read_bit() 
.................... { 
....................    int1 data; 
....................  
....................    TOUCH_PIN_LOW(); 
....................    delay_us(14); 
....................    TOUCH_PIN_FLOAT(); 
....................    delay_us(5); 
....................    data = TOUCH_PIN_READ(); 
....................    delay_us(100); 
....................  
....................    return data; 
.................... } 
....................  
.................... /* 
.................... BYTE touch_read_byte() 
.................... This will read back a byte from the DS1993 
.................... PARAMS: none 
.................... RETURNS: A byte from the DS1993 
.................... */ 
.................... BYTE touch_read_byte() 
.................... { 
....................    BYTE i,data; 
....................  
....................    for(i=1; i <= 8; ++i) 
....................       shift_right(&data, 1, touch_read_bit()); 
....................  
....................    return data; 
.................... } 
....................  
.................... /* 
.................... BOOLEAN touch_write_bit(int1 data) 
.................... This will write a bit to the DS1993 
.................... PARAMS: The bit to write 
.................... RETURNS: True if completed successfully, false if otherwise 
.................... */ 
.................... BOOLEAN touch_write_bit(int1 data) 
.................... { 
....................    TOUCH_PIN_LOW(); 
....................    delay_us(10); 
....................    if(data) 
....................    { 
....................       TOUCH_PIN_HIGH(); 
....................       delay_us(10); 
....................       if(!TOUCH_PIN_READ()) 
....................          return FALSE; 
....................    } 
....................    else 
....................    { 
....................       TOUCH_PIN_LOW(); 
....................       delay_us(10); 
....................       if(TOUCH_PIN_READ()) 
....................          return FALSE; 
....................    } 
....................    delay_us(50); 
....................    TOUCH_PIN_HIGH(); 
....................    delay_us(50); 
....................    return TRUE; 
.................... } 
....................  
.................... /* 
.................... BOOLEAN touch_write_byte(BYTE data) 
.................... This will write a byte to the DS1993 
.................... PARAMS: The byte to write 
.................... RETURNS: True if completed successfully, false if otherwise 
.................... */ 
.................... BOOLEAN touch_write_byte(BYTE data) 
.................... { 
....................    BYTE i; 
....................  
....................    for(i=1; i<=8; ++i) 
....................       if(!touch_write_bit(shift_right(&data, 1, 0))) 
....................          return FALSE; 
....................  
....................    return TRUE; 
.................... } 
....................  
.................... /* 
.................... BOOLEAN touch_present() 
.................... This will evaluate whether or not there is a touch present on the DS1993 
.................... PARAMS: none 
.................... RETURNS: True if a touch is present, false if otherwise 
.................... */ 
.................... BOOLEAN touch_present() 
.................... { 
....................    BOOLEAN present; 
....................    TOUCH_PIN_LOW(); 
....................    delay_us(500); 
....................    TOUCH_PIN_FLOAT(); 
....................    delay_us(5); 
....................  
....................    if(!TOUCH_PIN_READ()) 
....................       return FALSE; 
....................  
....................    delay_us(65); 
....................    present = !TOUCH_PIN_READ(); 
....................    delay_us(240); 
....................    return present; 
.................... } 
....................  
.................... /* 
.................... void reset_pulse() 
.................... This will send the DS1993 a reset pulse 
.................... PARAMS: none 
.................... RETURNS: none 
.................... */ 
.................... void reset_pulse() 
.................... { 
....................    TOUCH_PIN_LOW(); 
....................    delay_us(500); 
....................    TOUCH_PIN_FLOAT(); 
....................    delay_us(5); 
....................    while(!touch_present()); 
.................... } 
....................  
....................  
.................... #endif 
....................  
.................... #define  search_rom       0xf0 
.................... #define  read_rom         0x33 
.................... #define  match_rom        0x55     
.................... #define  skip_rom         0xcc 
.................... #define  alarm_search     0xec 
.................... #define  read_scratchpad  0xbe  
.................... #define  write_scratchpad 0x4e                                
.................... #define  copy_scratchpad  0x48   
.................... #define  convert_t        0x44  
.................... //xxxxxxxxxxxxxxxxxxxxxxxxxxxxxxxxxxxxxxxxxxxxxxxxxxxxxxxx 
.................... //Thong bao khong co ds13b20       
.................... //xxxxxxxxxxxxxxxxxxxxxxxxxxxxxxxxxxxxxxxxxxxxxxxxxxxxxxxx  
.................... void ds18b20_no_ds18b()  
.................... {    
....................    lcd_goto_xy(0,0);        
....................    lcd_data("NO DS18B20");  
.................... }  
.................... //xxxxxxxxxxxxxxxxxxxxxxxxxxxxxxxxxxxxxxxxxxxxxxxxxxxxxxxx 
.................... //ham khoi tao ds13b20       
.................... //xxxxxxxxxxxxxxxxxxxxxxxxxxxxxxxxxxxxxxxxxxxxxxxxxxxxxxxx  
.................... void ds18b20_khoi_tao() 
.................... {                          
....................    touch_present(); 
....................    touch_write_byte(skip_rom);       
....................    touch_write_byte(write_scratchpad);                      
....................    touch_write_byte(0x0);        
....................    touch_write_byte(0x0);     
....................    touch_write_byte(0x7f); //12 bit 
....................  
....................    touch_present();    
....................    touch_write_byte(skip_rom); 
....................    touch_write_byte(convert_t);      
.................... } 
.................... //xxxxxxxxxxxxxxxxxxxxxxxxxxxxxxxxxxxxxxxxxxxxxxxxxxxxxxxx 
.................... //doc nhiet do tu ds13b20, tra ve nhiet do la 16 bit     
.................... //xxxxxxxxxxxxxxxxxxxxxxxxxxxxxxxxxxxxxxxxxxxxxxxxxxxxxxxx                                                  
.................... unsigned int16 ds18b20_read_temp()                                         
.................... {                                     
....................    unsigned int8  bl,bh;                                                              
....................    unsigned int16 w;  
....................    touch_write_byte(skip_rom); 
....................    touch_write_byte(read_scratchpad);                  
....................    bl = touch_read_byte(); 
....................    bh = touch_read_byte();                              
....................    w  = make16(bh,bl);                                                           
....................                                                          
....................    touch_present();    
....................    touch_write_byte(skip_rom); 
....................    touch_write_byte(convert_t);  
....................    return w; 
.................... }   
.................... //xxxxxxxxxxxxxxxxxxxxxxxxxxxxxxxxxxxxxxxxxxxxxxxxxxxxxxxx 
.................... //ham doc ma ROM cua DS18b20 va hien thi tai hang x, cot y  
.................... //xxxxxxxxxxxxxxxxxxxxxxxxxxxxxxxxxxxxxxxxxxxxxxxxxxxxxxxx     
.................... void ds18b20_doc_rom(usi8 x,y)   
.................... {     
....................    unsigned int8 rom_code[8];        
....................    unsigned int8 xh,xl; 
....................    signed int8 i; 
....................    if(touch_present()) 
....................    { 
....................       touch_write_byte(read_rom);                                                                             
....................       for(i=0;i<8;i++)                  
....................       rom_code[i] = touch_read_byte();                                  
....................       lcd_goto_xy(x,y);      
....................       for(i=7;i>-1;i--)  
....................       { 
....................          xh=rom_code[i]/16;               
....................          if(xh>9) xh=xh+0x37; 
....................          else     xh=xh+0x30;           
....................          xl=rom_code[i]%16;               
....................          if(xl>9) xl=xl+0x37; 
....................          else     xl=xl+0x30; 
....................                         
....................          lcd_data(xh); 
....................          lcd_data(xl);          
....................       }         
....................    } 
....................    else ds18b20_no_ds18b();      
.................... } 
....................  
.................... #include <tv_07_i2c_at24cxx.c>     
.................... //xxxxxxxxxxxxxxxxxxxxxxxxxxxxxxxxxxxxxxxxxxxxxxxxxxxxxxxx 
.................... //NGUYEN DINH PHU SU PHAM KY THUAT TP HCM 
.................... //xxxxxxxxxxxxxxxxxxxxxxxxxxxxxxxxxxxxxxxxxxxxxxxxxxxxxxxx 
....................  
.................... #define at24_addr_wr 0xa0 
.................... #define at24_addr_rd 0xa1 
.................... //xxxxxxxxxxxxxxxxxxxxxxxxxxxxxxxxxxxxxxxxxxxxxxxxxxxxxxxx 
.................... //ham reset  
.................... //xxxxxxxxxxxxxxxxxxxxxxxxxxxxxxxxxxxxxxxxxxxxxxxxxxxxxxxx 
.................... void at24_reset() 
.................... {                 
....................    i2c_start();          
....................    i2c_stop(); 
.................... } 
.................... //xxxxxxxxxxxxxxxxxxxxxxxxxxxxxxxxxxxxxxxxxxxxxxxxxxxxxxxx 
.................... //ham khoi tao ghi 
.................... //xxxxxxxxxxxxxxxxxxxxxxxxxxxxxxxxxxxxxxxxxxxxxxxxxxxxxxxx 
.................... void at24_khoi_tao_ghi(usi16 addr) 
.................... {                  
....................    i2c_start();                        
....................    i2c_write(at24_addr_wr);   
....................    i2c_write(addr>>8);          
....................    i2c_write(addr);          
.................... } 
.................... //xxxxxxxxxxxxxxxxxxxxxxxxxxxxxxxxxxxxxxxxxxxxxxxxxxxxxxxx 
.................... //ham khoi tao doc 
.................... //xxxxxxxxxxxxxxxxxxxxxxxxxxxxxxxxxxxxxxxxxxxxxxxxxxxxxxxx     
.................... void at24_khoi_tao_doc(usi16 addr) 
.................... {    
....................    i2c_start(); 
....................    i2c_write(at24_addr_wr);   
....................    i2c_write(addr>>8);         
....................    i2c_write(addr);            
....................    i2c_start();                 
....................    i2c_write(at24_addr_rd);   
.................... }     
.................... //xxxxxxxxxxxxxxxxxxxxxxxxxxxxxxxxxxxxxxxxxxxxxxxxxxxxxxxx 
.................... //ham ghi 1byte 
.................... //xxxxxxxxxxxxxxxxxxxxxxxxxxxxxxxxxxxxxxxxxxxxxxxxxxxxxxxx 
.................... void at24_ghi_1byte(usi16 addr,usi8 data_1byte) 
.................... {           
....................    i2c_start();                      
....................    i2c_write(at24_addr_wr);   
....................    i2c_write(addr>>8);          
....................    i2c_write(addr);    
....................    i2c_write(data_1byte);    
....................    i2c_stop(); 
.................... } 
.................... //xxxxxxxxxxxxxxxxxxxxxxxxxxxxxxxxxxxxxxxxxxxxxxxxxxxxxxxx 
.................... //ham doc 1 byte 
.................... //xxxxxxxxxxxxxxxxxxxxxxxxxxxxxxxxxxxxxxxxxxxxxxxxxxxxxxxx 
.................... unsigned int8 at24_doc_1byte(usi16 addr) 
.................... {    
....................    unsigned int8 data_1byte; 
....................    i2c_start();            
....................    i2c_write(at24_addr_wr);   
....................    i2c_write(addr>>8);         
....................    i2c_write(addr);            
....................    i2c_start();                 
....................    i2c_write(at24_addr_rd);   
....................    data_1byte = i2c_read(0); 
....................    i2c_stop(); 
....................    return(data_1byte); 
.................... }   
....................  
....................  
.................... //!#include <tv_08_step_motor.c>     
.................... //!#include <tv_08_dc_motor.c>  
.................... #include <tv_09_matran_led_mbi.c> 
.................... //xxxxxxxxxxxxxxxxxxxxxxxxxxxxxxxxxxxxxxxxxxxxxxxxxxxxxxxx 
.................... //NGUYEN DINH PHU SU PHAM KY THUAT TP HCM 
.................... //xxxxxxxxxxxxxxxxxxxxxxxxxxxxxxxxxxxxxxxxxxxxxxxxxxxxxxxx 
....................  
.................... //xxxxxxxxxxxxxxxxxxxxxxxxxxxxxxxxxxxxxxxxxxxxxxxxxxxxxxxx 
.................... //ham xuat 2 byte 
.................... //xxxxxxxxxxxxxxxxxxxxxxxxxxxxxxxxxxxxxxxxxxxxxxxxxxxxxxxx 
.................... void xuat_2byte(unsigned int16 v) 
.................... { 
....................    int8 i; 
....................    #bit msb = v.15 
....................    for(i=0;i<16;i++) 
....................    {                                                  
....................       output_bit(ssdo,msb);     
....................       output_low(ssck);    
....................       output_high(ssck); 
....................       v= v<<1;          
....................    } 
.................... } 
.................... //xxxxxxxxxxxxxxxxxxxxxxxxxxxxxxxxxxxxxxxxxxxxxxxxxxxxxxxx 
.................... //chuong trinh con xuat ra led ma tran 
.................... //xxxxxxxxxxxxxxxxxxxxxxxxxxxxxxxxxxxxxxxxxxxxxxxxxxxxxxxx 
.................... void xuat_matranled( usi16 mahang,usi16 macot1, 
....................                      usi16 macot2,usi16 macot3) 
.................... {       
....................    xuat_2byte(macot3);   
....................    xuat_2byte(macot2); 
....................    xuat_2byte(macot1);   
....................    xuat_2byte(mahang); 
....................        
....................    output_high(rck_mtl);  
....................    output_low(rck_mtl); 
.................... } 
.................... //xxxxxxxxxxxxxxxxxxxxxxxxxxxxxxxxxxxxxxxxxxxx 
.................... //chuong trinh con xuat ra led ma tran 
.................... //xxxxxxxxxxxxxxxxxxxxxxxxxxxxxxxxxxxxxxxxxxxx 
.................... // void tat_matranled() 
.................... // {       
....................    // xuat_2byte(0); xuat_2byte(0); 
....................    // xuat_2byte(0); xuat_2byte(0);            
....................    // output_high(rck_matranled);  
....................    // output_low(rck_matranled); 
.................... // } 
.................... //xxxxxxxxxxxxxxxxxxxxxxxxxxxxxxxxxxxxxxxxxxxxxxxxxxxxxxxx 
.................... //hieu chinh 4bit cao 
.................... //xxxxxxxxxxxxxxxxxxxxxxxxxxxxxxxxxxxxxxxxxxxxxxxxxxxxxxxx 
.................... unsigned  int8 hieu_chinh_4bit_cao(unsigned int8 xzy) 
.................... { 
....................    int1  btg; 
....................    unsigned int8   bx;    
....................    #bit bit4  = bx.4 
....................    #bit bit5  = bx.5 
....................    #bit bit6  = bx.6 
....................    #bit bit7  = bx.7 
....................    bx=xzy; 
....................    btg=bit4;   bit4=bit7;  bit7=btg; 
....................    btg=bit5;   bit5=bit6;  bit6=btg;       
....................    return(bx);   
.................... }    
....................  
....................  
....................  
.................... #include<tv_06_glcd.c> 
.................... //xxxxxxxxxxxxxxxxxxxxxxxxxxxxxxxxxxxxxxxxxxxxxxxxxxxxxxxx 
.................... //NGUYEN DINH PHU SU PHAM KY THUAT TP HCM 
.................... //xxxxxxxxxxxxxxxxxxxxxxxxxxxxxxxxxxxxxxxxxxxxxxxxxxxxxxxx 
....................  
.................... //xxxxxxxxxxxxxxxxxxxxxxxxxxxxxxxxxxxxxxxxxxxxxxxxxxxxxxxx 
.................... //dinh nghia bien dieu khien GLCD va cac bit cua bien       
.................... //xxxxxxxxxxxxxxxxxxxxxxxxxxxxxxxxxxxxxxxxxxxxxxxxxxxxxxxx  
.................... unsigned int8 glcd_ctr;    
.................... #bit glcd_p    = glcd_ctr.5            
.................... #bit glcd_rs   = glcd_ctr.4 
.................... #bit glcd_rw   = glcd_ctr.3 
.................... #bit glcd_e    = glcd_ctr.2 
.................... #bit glcd_nc   = glcd_ctr.1 
.................... #bit glcd_psb  = glcd_ctr.0                              
.................... //xxxxxxxxxxxxxxxxxxxxxxxxxxxxxxxxxxxxxxxxxxxxxxxxxxxxxxxx 
.................... //Dinh nghia cac lenh dieu khien cua GLCD 
.................... //xxxxxxxxxxxxxxxxxxxxxxxxxxxxxxxxxxxxxxxxxxxxxxxxxxxxxxxx  
.................... #define glcd_text_mode      0x30 
.................... #define glcd_graphic_mode   0x36                      
....................  
.................... #define glcd_clear_display  0x01 
.................... #define glcd_cursor_display 0x0c 
.................... #define glcd_entry_mode     0x06 
....................  
.................... #define glcd_addr_line0     0x80 
.................... #define glcd_addr_line1     0x90 
.................... #define glcd_addr_line2     0x88 
.................... #define glcd_addr_line3     0x98 
.................... //xxxxxxxxxxxxxxxxxxxxxxxxxxxxxxxxxxxxxxxxxxxxxxxxxxxxxxxx   
.................... //ham 621: xuat data/lenh ra glcd 
.................... //xxxxxxxxxxxxxxxxxxxxxxxxxxxxxxxxxxxxxxxxxxxxxxxxxxxxxxxx    
.................... void glcd_xuat_db(int8 db) 
.................... { 
....................    glcd_e=1; xuat_glcd(glcd_ctr,db);  
036C:  BSF    30.2
036E:  MOVFF  30,463
0372:  MOVFF  462,464
0376:  RCALL  0358
....................    delay_us(20); 
0378:  MOVLW  20
037A:  MOVWF  00
037C:  DECFSZ 00,F
037E:  BRA    037C
0380:  BRA    0382
0382:  NOP   
....................    glcd_e=0; xuat_glcd(glcd_ctr,db);   
0384:  BCF    30.2
0386:  MOVFF  30,463
038A:  MOVFF  462,464
038E:  RCALL  0358
0390:  RETURN 0
.................... }                                  
.................... //xxxxxxxxxxxxxxxxxxxxxxxxxxxxxxxxxxxxxxxxxxxxxxxxxxxxxxxx   
.................... //ham 622: xuat lenh ra glcd     
.................... //xxxxxxxxxxxxxxxxxxxxxxxxxxxxxxxxxxxxxxxxxxxxxxxxxxxxxxxx   
.................... void glcd_command(int8 db)    
.................... { 
....................    glcd_rs = 0; 
0392:  BCF    30.4
....................    glcd_xuat_db(db);       
0394:  MOVFF  461,462
0398:  RCALL  036C
039A:  RETURN 0
.................... } 
.................... //xxxxxxxxxxxxxxxxxxxxxxxxxxxxxxxxxxxxxxxxxxxxxxxxxxxxxxxx   
.................... //ham 623: xuat data ra glcd 
.................... //xxxxxxxxxxxxxxxxxxxxxxxxxxxxxxxxxxxxxxxxxxxxxxxxxxxxxxxx  
.................... void glcd_data(int8 db)                  
.................... { 
....................    glcd_rs = 1;      
*
1C54:  BSF    30.4
....................    glcd_xuat_db(db);      
1C56:  MOVFF  44F,462
1C5A:  CALL   036C
1C5E:  RETURN 0
.................... }  
.................... //xxxxxxxxxxxxxxxxxxxxxxxxxxxxxxxxxxxxxxxxxxxxxxxxxxxxxxxx   
.................... //ham 624: khoi tao GLCD  
.................... //xxxxxxxxxxxxxxxxxxxxxxxxxxxxxxxxxxxxxxxxxxxxxxxxxxxxxxxx    
.................... void setup_glcd (int8 glcd_fs_mode) 
.................... {                      
....................    glcd_psb = 1; 
*
03C4:  BSF    30.0
....................    glcd_nc = 1;                              
03C6:  BSF    30.1
....................    glcd_e  = 0; 
03C8:  BCF    30.2
....................    glcd_rw = 0;           
03CA:  BCF    30.3
....................    glcd_p =0;          
03CC:  BCF    30.5
....................    glcd_command(glcd_fs_mode);          
03CE:  MOVFF  460,461
03D2:  RCALL  0392
....................    delay_us(10); 
03D4:  MOVLW  10
03D6:  MOVWF  00
03D8:  DECFSZ 00,F
03DA:  BRA    03D8
03DC:  NOP   
....................    glcd_command(glcd_cursor_display);        
03DE:  MOVLW  0C
03E0:  MOVLB  4
03E2:  MOVWF  x61
03E4:  MOVLB  0
03E6:  RCALL  0392
....................    delay_us(10);     
03E8:  MOVLW  10
03EA:  MOVWF  00
03EC:  DECFSZ 00,F
03EE:  BRA    03EC
03F0:  NOP   
....................    glcd_command(glcd_clear_display);       
03F2:  MOVLW  01
03F4:  MOVLB  4
03F6:  MOVWF  x61
03F8:  MOVLB  0
03FA:  RCALL  0392
....................    delay_ms(10);                                           
03FC:  MOVLW  0A
03FE:  MOVLB  4
0400:  MOVWF  x61
0402:  MOVLB  0
0404:  RCALL  039C
....................    glcd_command(glcd_entry_mode);       
0406:  MOVLW  06
0408:  MOVLB  4
040A:  MOVWF  x61
040C:  MOVLB  0
040E:  RCALL  0392
....................    delay_us(10);                                                
0410:  MOVLW  10
0412:  MOVWF  00
0414:  DECFSZ 00,F
0416:  BRA    0414
0418:  NOP   
041A:  RETURN 0
.................... } 
.................... //xxxxxxxxxxxxxxxxxxxxxxxxxxxxxxxxxxxxxxxxxxxxxxxxxxxxxxxx   
.................... //ham 608: xuat data ra glcd 
.................... //xxxxxxxxxxxxxxxxxxxxxxxxxxxxxxxxxxxxxxxxxxxxxxxxxxxxxxxx  
.................... void glcd_clear()                  
.................... {    
....................    glcd_command(glcd_clear_display);       
....................    delay_ms(10);      
.................... }   
.................... void glcd_text_or_graphic(int8 x)                  
.................... {                                    
....................    glcd_command(x);          
....................    delay_us(10);      
.................... } 
.................... //xxxxxxxxxxxxxxxxxxxxxxxxxxxxxxxxxxxxxxxxxxxxxxxxxxxxxxxx 
.................... //dinh nghia cac hang so kich thuoc hinh anh cua GLCD        
.................... //xxxxxxxxxxxxxxxxxxxxxxxxxxxxxxxxxxxxxxxxxxxxxxxxxxxxxxxx      
.................... #define glcd_ngang  16 //16x16=256 pixel 
.................... #define glcd_doc    32 //32 hang 
.................... #define glcd_width  128 //danh cho thu vien graphic.c 
.................... int8 doc, ngang; 
.................... //xxxxxxxxxxxxxxxxxxxxxxxxxxxxxxxxxxxxxxxxxxxxxxxxxxxxxxxx 
.................... //xay dung loai du lieu dots: dung de xu diem anh 
.................... //dang word va byte de de truy xuat 
.................... //xxxxxxxxxxxxxxxxxxxxxxxxxxxxxxxxxxxxxxxxxxxxxxxxxxxxxxxx                               
.................... typedef union  
.................... {  
....................   unsigned int16 word;  
....................   unsigned int8 nbyte[2];  
.................... } dots;      
....................  
.................... //xxxxxxxxxxxxxxxxxxxxxxxxxxxxxxxxxxxxxxxxxxxxxxxxxxxxxxxx 
.................... //xay dung loai du lieu gd_ram kieu co cau truc "struct"       
.................... //xxxxxxxxxxxxxxxxxxxxxxxxxxxxxxxxxxxxxxxxxxxxxxxxxxxxxxxx      
.................... typedef struct  
.................... {  
....................   int1 refresh;  
....................   dots pixel[glcd_doc][glcd_ngang];     
.................... } gd_ram;       
.................... gd_ram gdram_vdk;  
.................... //xxxxxxxxxxxxxxxxxxxxxxxxxxxxxxxxxxxxxxxxxxxxxxxxxxxxxxxx 
.................... //ham 610: xoa vung nho gdram_vdk cung mau glcd_color   
.................... //nhung chua xuat ra GLCD  
.................... //xxxxxxxxxxxxxxxxxxxxxxxxxxxxxxxxxxxxxxxxxxxxxxxxxxxxxxxx    
.................... void glcd_mau_nen(int1 glcd_color)  
.................... {   
....................   int16 d;  
....................   if(glcd_color)  d=0xffff; else d=0; 
*
043E:  MOVLB  4
0440:  MOVF   x60,F
0442:  BZ    044A
0444:  SETF   x62
0446:  SETF   x61
0448:  BRA    044E
044A:  CLRF   x62
044C:  CLRF   x61
....................   for (doc=0; doc<glcd_doc; doc++)  
044E:  CLRF   31
0450:  MOVF   31,W
0452:  SUBLW  1F
0454:  BNC   04B2
....................   {  
....................     for (ngang=0; ngang<glcd_ngang; ngang++)  
0456:  CLRF   32
0458:  MOVF   32,W
045A:  SUBLW  0F
045C:  BNC   04AE
....................     {  
....................       gdram_vdk.pixel[doc][ngang].word = d;  
045E:  CLRF   x81
0460:  MOVFF  31,480
0464:  CLRF   x83
0466:  MOVLW  20
0468:  MOVWF  x82
046A:  MOVLB  0
046C:  RCALL  041C
046E:  MOVFF  02,03
0472:  MOVF   01,W
0474:  ADDLW  01
0476:  MOVLB  4
0478:  MOVWF  x63
047A:  MOVLW  00
047C:  ADDWFC 02,W
047E:  MOVWF  x64
0480:  CLRF   03
0482:  MOVFF  32,02
0486:  BCF    FD8.0
0488:  RLCF   02,F
048A:  RLCF   03,F
048C:  MOVF   02,W
048E:  ADDWF  x63,F
0490:  MOVF   03,W
0492:  ADDWFC x64,F
0494:  MOVLW  33
0496:  ADDWF  x63,W
0498:  MOVWF  FE9
049A:  MOVLW  00
049C:  ADDWFC x64,W
049E:  MOVWF  FEA
04A0:  MOVFF  462,FEC
04A4:  MOVF   FED,F
04A6:  MOVFF  461,FEF
04AA:  INCF   32,F
04AC:  BRA    0458
....................     }  
04AE:  INCF   31,F
04B0:  BRA    0450
....................   }  
....................   gdram_vdk.refresh = true;  
04B2:  BSF    33.0
04B4:  MOVLB  0
04B6:  RETURN 0
.................... }  
.................... //xxxxxxxxxxxxxxxxxxxxxxxxxxxxxxxxxxxxxxxxxxxxxxxxxxxxxxxx 
.................... //ham 610: lam 1 pixel co mau la color nhung chua xuat ra GLCD       
.................... //xxxxxxxxxxxxxxxxxxxxxxxxxxxxxxxxxxxxxxxxxxxxxxxxxxxxxxxx    
.................... void glcd_pixel(int8 x, int8 y, int1 color)                      
.................... {  
....................   int8  b;  
....................   if(y>31){x += 128; y-= 32;};                  
*
071C:  MOVLB  4
071E:  MOVF   x7D,W
0720:  SUBLW  1F
0722:  BC    072C
0724:  MOVLW  80
0726:  ADDWF  x7C,F
0728:  MOVLW  20
072A:  SUBWF  x7D,F
....................   doc = y;  
072C:  MOVFF  47D,31
....................   ngang = x/16;                                          
0730:  SWAPF  x7C,W
0732:  MOVWF  32
0734:  MOVLW  0F
0736:  ANDWF  32,F
....................   b = 15 - (x % 16);    
0738:  MOVF   x7C,W
073A:  ANDLW  0F
073C:  XORLW  FF
073E:  ADDLW  10
0740:  MOVWF  x7F
....................   if(color==1) bit_set(gdram_vdk.pixel[doc][ngang].word,b);  
0742:  DECFSZ x7E,W
0744:  BRA    07B0
0746:  CLRF   x81
0748:  MOVFF  31,480
074C:  CLRF   x83
074E:  MOVLW  20
0750:  MOVWF  x82
0752:  MOVLB  0
0754:  RCALL  041C
0756:  MOVFF  02,03
075A:  MOVF   01,W
075C:  ADDLW  01
075E:  MOVLB  4
0760:  MOVWF  x80
0762:  MOVLW  00
0764:  ADDWFC 02,W
0766:  MOVWF  x81
0768:  CLRF   03
076A:  MOVFF  32,02
076E:  BCF    FD8.0
0770:  RLCF   02,F
0772:  RLCF   03,F
0774:  MOVF   02,W
0776:  ADDWF  x80,F
0778:  MOVF   03,W
077A:  ADDWFC x81,F
077C:  MOVLW  33
077E:  ADDWF  x80,W
0780:  MOVWF  01
0782:  MOVLW  00
0784:  ADDWFC x81,W
0786:  MOVWF  03
0788:  MOVFF  01,FE9
078C:  MOVWF  FEA
078E:  CLRF   03
0790:  MOVLW  01
0792:  MOVWF  02
0794:  MOVF   x7F,W
0796:  MOVWF  00
0798:  BZ    07A4
079A:  BCF    FD8.0
079C:  RLCF   02,F
079E:  RLCF   03,F
07A0:  DECFSZ 00,F
07A2:  BRA    079A
07A4:  MOVF   02,W
07A6:  IORWF  FEF,F
07A8:  MOVF   03,W
07AA:  IORWF  FEC,W
07AC:  MOVWF  FEF
07AE:  BRA    0822
....................   else         bit_clear(gdram_vdk.pixel[doc][ngang].word,b);  
07B0:  CLRF   x81
07B2:  MOVFF  31,480
07B6:  CLRF   x83
07B8:  MOVLW  20
07BA:  MOVWF  x82
07BC:  MOVLB  0
07BE:  RCALL  041C
07C0:  MOVFF  02,03
07C4:  MOVF   01,W
07C6:  ADDLW  01
07C8:  MOVLB  4
07CA:  MOVWF  x80
07CC:  MOVLW  00
07CE:  ADDWFC 02,W
07D0:  MOVWF  x81
07D2:  CLRF   03
07D4:  MOVFF  32,02
07D8:  BCF    FD8.0
07DA:  RLCF   02,F
07DC:  RLCF   03,F
07DE:  MOVF   02,W
07E0:  ADDWF  x80,F
07E2:  MOVF   03,W
07E4:  ADDWFC x81,F
07E6:  MOVLW  33
07E8:  ADDWF  x80,W
07EA:  MOVWF  01
07EC:  MOVLW  00
07EE:  ADDWFC x81,W
07F0:  MOVWF  03
07F2:  MOVFF  01,FE9
07F6:  MOVWF  FEA
07F8:  CLRF   03
07FA:  MOVLW  01
07FC:  MOVWF  02
07FE:  MOVF   x7F,W
0800:  MOVWF  00
0802:  BZ    080E
0804:  BCF    FD8.0
0806:  RLCF   02,F
0808:  RLCF   03,F
080A:  DECFSZ 00,F
080C:  BRA    0804
080E:  MOVF   02,W
0810:  XORLW  FF
0812:  MOVWF  00
0814:  MOVLW  FF
0816:  XORWF  03,F
0818:  MOVF   00,W
081A:  ANDWF  FEF,F
081C:  MOVF   03,W
081E:  ANDWF  FEC,W
0820:  MOVWF  FEF
....................   gdram_vdk.refresh = true;      
0822:  BSF    33.0
0824:  MOVLB  0
0826:  RETURN 0
.................... }  
.................... //xxxxxxxxxxxxxxxxxxxxxxxxxxxxxxxxxxxxxxxxxxxxxxxxxxxxxxxx 
.................... //ham 610: ham xuat toan bo du lieu 16x32=512word ra GLCD       
.................... //xxxxxxxxxxxxxxxxxxxxxxxxxxxxxxxxxxxxxxxxxxxxxxxxxxxxxxxx    
.................... void gdram_vdk_to_gdram_glcd_all()  
.................... {  
....................   if(gdram_vdk.refresh)  
*
1C60:  BTFSS  33.0
1C62:  BRA    1D4A
....................   {  
....................     for(doc=0; doc<glcd_doc; doc++)  
1C64:  CLRF   31
1C66:  MOVF   31,W
1C68:  SUBLW  1F
1C6A:  BNC   1D48
....................     {  
....................       glcd_command(0x80+doc);   // set vertical address.  
1C6C:  MOVLW  80
1C6E:  ADDWF  31,W
1C70:  MOVLB  4
1C72:  MOVWF  x4C
1C74:  MOVWF  x61
1C76:  MOVLB  0
1C78:  CALL   0392
....................       glcd_command(0x80+0);   // set horizontal address.  
1C7C:  MOVLW  80
1C7E:  MOVLB  4
1C80:  MOVWF  x61
1C82:  MOVLB  0
1C84:  CALL   0392
....................  
....................       for(ngang=0; ngang<glcd_ngang; ngang++)  
1C88:  CLRF   32
1C8A:  MOVF   32,W
1C8C:  SUBLW  0F
1C8E:  BNC   1D44
....................       {                                   
....................         glcd_data(gdram_vdk.pixel[doc][ngang].nbyte[1]);     
1C90:  MOVLB  4
1C92:  CLRF   x81
1C94:  MOVFF  31,480
1C98:  CLRF   x83
1C9A:  MOVLW  20
1C9C:  MOVWF  x82
1C9E:  MOVLB  0
1CA0:  CALL   041C
1CA4:  MOVFF  02,03
1CA8:  MOVF   01,W
1CAA:  ADDLW  01
1CAC:  MOVLB  4
1CAE:  MOVWF  x4C
1CB0:  MOVLW  00
1CB2:  ADDWFC 02,W
1CB4:  MOVWF  x4D
1CB6:  CLRF   03
1CB8:  MOVFF  32,02
1CBC:  BCF    FD8.0
1CBE:  RLCF   02,F
1CC0:  RLCF   03,F
1CC2:  MOVF   02,W
1CC4:  ADDWF  x4C,F
1CC6:  MOVF   03,W
1CC8:  ADDWFC x4D,F
1CCA:  MOVLW  01
1CCC:  ADDWF  x4C,W
1CCE:  MOVWF  01
1CD0:  MOVLW  00
1CD2:  ADDWFC x4D,W
1CD4:  MOVWF  03
1CD6:  MOVF   01,W
1CD8:  ADDLW  33
1CDA:  MOVWF  FE9
1CDC:  MOVLW  00
1CDE:  ADDWFC 03,W
1CE0:  MOVWF  FEA
1CE2:  MOVFF  FEF,44C
1CE6:  MOVFF  44C,44F
1CEA:  MOVLB  0
1CEC:  RCALL  1C54
....................         glcd_data(gdram_vdk.pixel[doc][ngang].nbyte[0]);     
1CEE:  MOVLB  4
1CF0:  CLRF   x81
1CF2:  MOVFF  31,480
1CF6:  CLRF   x83
1CF8:  MOVLW  20
1CFA:  MOVWF  x82
1CFC:  MOVLB  0
1CFE:  CALL   041C
1D02:  MOVFF  02,03
1D06:  MOVF   01,W
1D08:  ADDLW  01
1D0A:  MOVLB  4
1D0C:  MOVWF  x4C
1D0E:  MOVLW  00
1D10:  ADDWFC 02,W
1D12:  MOVWF  x4D
1D14:  CLRF   03
1D16:  MOVFF  32,02
1D1A:  BCF    FD8.0
1D1C:  RLCF   02,F
1D1E:  RLCF   03,F
1D20:  MOVF   02,W
1D22:  ADDWF  x4C,F
1D24:  MOVF   03,W
1D26:  ADDWFC x4D,F
1D28:  MOVLW  33
1D2A:  ADDWF  x4C,W
1D2C:  MOVWF  FE9
1D2E:  MOVLW  00
1D30:  ADDWFC x4D,W
1D32:  MOVWF  FEA
1D34:  MOVFF  FEF,44E
1D38:  MOVFF  44E,44F
1D3C:  MOVLB  0
1D3E:  RCALL  1C54
1D40:  INCF   32,F
1D42:  BRA    1C8A
....................       }  
1D44:  INCF   31,F
1D46:  BRA    1C66
....................     }  
....................     gdram_vdk.refresh = false;  
1D48:  BCF    33.0
....................   }  
1D4A:  GOTO   1EF2 (RETURN)
.................... }  
.................... //xxxxxxxxxxxxxxxxxxxxxxxxxxxxxxxxxxxxxxxxxxxxxxxxxxxxxxxx 
.................... //ham 610: ham xuat 1 vung du lieu bat dau tai (x,y)  
.................... //va rong va cao ra GLCD 
.................... //xxxxxxxxxxxxxxxxxxxxxxxxxxxxxxxxxxxxxxxxxxxxxxxxxxxxxxxx  
.................... void gdram_vdk_to_gdram_glcd_area(int8 x,int8 y,int8 rong, int8 cao) 
.................... {                                                  
....................   int8 hesox,hesoy;  
....................   if (gdram_vdk.refresh)  
....................   {        
....................       if(((rong+x)/16)!=0) rong=((rong)/16)+1; 
....................       else                 rong=((rong)/16);  
....................       x = x/16; 
....................       for(doc=y;doc<(y+cao);doc++)  
....................       {  
....................          if(doc>31) 
....................             {   
....................                hesoy = doc-32; 
....................                hesox = 8+x; 
....................                } 
....................          else  
....................          { 
....................             hesoy = doc; 
....................             hesox = x; 
....................             } 
....................          glcd_command(0x80+hesoy);    
....................          glcd_command(0x80+hesox);   
....................        
....................          for(ngang=hesox; ngang<(hesox+rong); ngang++)  
....................          {  
....................             glcd_data( gdram_vdk.pixel[hesoy][ngang].nbyte[1]);   // write high byte.  
....................             glcd_data( gdram_vdk.pixel[hesoy][ngang].nbyte[0]);   // write low byte.  
....................          }  
....................        }  
....................     gdram_vdk.refresh = false;  
....................   }       
.................... } 
.................... //xxxxxxxxxxxxxxxxxxxxxxxxxxxxxxxxxxxxxxxxxxxxxxxxxxxxxxxx 
.................... //vung du lieu nhi phan cua anh logo spkt 
.................... //xxxxxxxxxxxxxxxxxxxxxxxxxxxxxxxxxxxxxxxxxxxxxxxxxxxxxxxx    
....................  
.................... const unsigned char logo_spk [] = { 
.................... 0x00, 0x00, 0x00, 0x00, 0x00, 0x00, 0x00, 0x00, 0x00, 0x00, 0x00, 0x00, 0x00, 0x00, 0x00, 0x00, 
.................... 0x00, 0x00, 0x00, 0x00, 0x00, 0x00, 0x00, 0x00, 0x00, 0x00, 0x00, 0x01, 0x80, 0x00, 0x00, 0x00, 
.................... 0x00, 0x00, 0x00, 0x01, 0x80, 0x00, 0x00, 0x00, 0x00, 0x00, 0x00, 0x01, 0x80, 0x00, 0x00, 0x00, 
.................... 0x00, 0x00, 0x00, 0x07, 0xe0, 0x00, 0x00, 0x00, 0x00, 0x00, 0x00, 0x07, 0xa0, 0x00, 0x00, 0x00, 
.................... 0x00, 0x00, 0x00, 0x03, 0x20, 0x00, 0x00, 0x00, 0x00, 0x00, 0x00, 0x03, 0x20, 0x00, 0x00, 0x00, 
....................                                                                     
.................... 0x00, 0x00, 0x00, 0x02, 0x20, 0x00, 0x00, 0x00, 0x00, 0x00, 0x00, 0x02, 0x30, 0x00, 0x00, 0x00, 
.................... 0x00, 0x00, 0x00, 0x02, 0x30, 0x00, 0x00, 0x00, 0x00, 0x7f, 0x00, 0x00, 0x30, 0x00, 0x7e, 0x00, 
.................... 0x00, 0xfe, 0x00, 0x07, 0xe0, 0x00, 0x3f, 0x00, 0x01, 0xf8, 0x00, 0x03, 0xe0, 0x00, 0x1f, 0x80, 
.................... 0x03, 0xf0, 0x00, 0x01, 0xc0, 0x00, 0x0f, 0xc0, 0x03, 0xe0, 0x00, 0x01, 0xc0, 0x00, 0x07, 0xe0, 
.................... 0x07, 0xc0, 0x00, 0x03, 0xc0, 0x00, 0x03, 0xf0, 0x0f, 0xc0, 0x00, 0x17, 0xf4, 0x00, 0x01, 0xf0, 
....................  
.................... 0x0f, 0x80, 0x00, 0x1d, 0x98, 0x00, 0x00, 0xf8, 0x1f, 0x00, 0x00, 0x11, 0x8c, 0x00, 0x00, 0xf8, 
.................... 0x1f, 0x01, 0x00, 0x31, 0x84, 0x00, 0x80, 0x7c, 0x3e, 0x06, 0x00, 0x31, 0x86, 0x00, 0x20, 0x7c, 
.................... 0x3e, 0x18, 0x00, 0x71, 0x86, 0x00, 0x1c, 0x3e, 0x3c, 0x43, 0x00, 0x31, 0x84, 0x00, 0xc3, 0x3e, 
.................... 0x7c, 0x0c, 0x00, 0x11, 0x8c, 0x00, 0x38, 0x1e, 0x7c, 0x31, 0x00, 0x1d, 0x98, 0x00, 0x86, 0x1f, 
.................... 0x78, 0xc6, 0x00, 0x1f, 0xfc, 0x00, 0x63, 0x1f, 0x78, 0x18, 0x00, 0x03, 0xc0, 0x00, 0x0c, 0x1f, 
....................  
.................... 0xf8, 0x63, 0x80, 0x01, 0x80, 0x00, 0xc7, 0x0f, 0xf9, 0x8e, 0x00, 0x00, 0x00, 0x00, 0x38, 0x8f, 
.................... 0xf8, 0x38, 0x80, 0x00, 0x00, 0x01, 0x0c, 0x0f, 0xf8, 0xc3, 0x80, 0x00, 0x00, 0x00, 0xe3, 0x8f, 
.................... 0xf9, 0x8e, 0x00, 0x00, 0x00, 0x00, 0x30, 0xcf, 0xf8, 0x38, 0xf8, 0x00, 0x00, 0x1f, 0x9e, 0x0f, 
.................... 0xf8, 0xe3, 0xfe, 0x00, 0x00, 0x7f, 0xe3, 0x8f, 0xf9, 0x9f, 0xff, 0xc0, 0x03, 0xff, 0xf9, 0xcf, 
.................... 0x78, 0xff, 0xff, 0xe0, 0x07, 0xff, 0xff, 0x0f, 0x78, 0x1f, 0xff, 0xe0, 0x07, 0xff, 0xfc, 0x1f, 
....................  
.................... 0x7c, 0x07, 0xff, 0xe0, 0x07, 0xff, 0xe0, 0x1f, 0x7c, 0x00, 0xff, 0xe0, 0x07, 0xff, 0x80, 0x1e, 
.................... 0x7c, 0x00, 0x1f, 0xe0, 0x07, 0xfc, 0x00, 0x3e, 0x3e, 0x01, 0xcf, 0xe0, 0x07, 0xf3, 0x80, 0x3e, 
.................... 0x3e, 0x01, 0xff, 0xe0, 0x03, 0xff, 0x80, 0x7c, 0x1f, 0x01, 0xff, 0xe0, 0x03, 0xff, 0xc0, 0x7c, 
.................... 0x1f, 0x01, 0xff, 0xc0, 0x03, 0xff, 0xc0, 0xf8, 0x0f, 0x83, 0xff, 0xc0, 0x01, 0xff, 0xc0, 0xf8, 
.................... 0x0f, 0x83, 0xff, 0xc0, 0x01, 0xff, 0xc1, 0xf0, 0x07, 0xc3, 0xff, 0x80, 0x01, 0xff, 0xe3, 0xf0, 
....................  
.................... 0x03, 0xe3, 0xff, 0x80, 0x01, 0xff, 0xe7, 0xe0, 0x03, 0xf7, 0xff, 0x80, 0x00, 0xff, 0xef, 0xc0, 
.................... 0x01, 0xff, 0xff, 0x80, 0x00, 0xff, 0xff, 0x80, 0x00, 0xff, 0xff, 0x00, 0x00, 0xff, 0xff, 0x80, 
.................... 0x00, 0x7f, 0xff, 0x00, 0x00, 0xff, 0xff, 0x00, 0x00, 0x3f, 0xff, 0x00, 0x00, 0xff, 0xfe, 0x00, 
.................... 0x00, 0x1f, 0xff, 0x00, 0x00, 0x7f, 0xf8, 0x00, 0x00, 0x0f, 0xfe, 0x00, 0x00, 0x7f, 0xf0, 0x00, 
.................... 0x00, 0x03, 0xff, 0x00, 0x00, 0x7f, 0xe0, 0x00, 0x00, 0x00, 0xff, 0xfc, 0x1f, 0xff, 0x80, 0x00, 
....................  
.................... 0x00, 0x00, 0x7f, 0xff, 0xff, 0xfe, 0x00, 0x00, 0x00, 0x00, 0x0f, 0xff, 0xff, 0xf8, 0x00, 0x00, 
.................... 0x00, 0x00, 0x01, 0xff, 0xff, 0xc0, 0x00, 0x00, 0x00, 0x00, 0x00, 0x0f, 0xf0, 0x00, 0x00, 0x00 
.................... }; 
....................  
.................... //xxxxxxxxxxxxxxxxxxxxxxxxxxxxxxxxxxxxxxxxxxxxxxxxxxxxxxxx 
.................... //Ham xuat anh logo spk ra GLCD theo cach truc tiep 
.................... //xxxxxxxxxxxxxxxxxxxxxxxxxxxxxxxxxxxxxxxxxxxxxxxxxxxxxxxx                  
.................... //!void glcd_xuat_anh(int width,int height,int x,int y)  
.................... //!{                                         
.................... //!   unsigned int i=0, j=0, k=0;                                                    
.................... //!   unsigned int16 n=0;                                       
.................... //!   ngang=0;      n=0;                                  
.................... //!   for(j=0;j<height;j++)          //doc                               
.................... //!   {                            
.................... //!      if(j>31) {ngang=8; k=j-32;} 
.................... //!      else k=j;                                               
.................... //!      glcd_command(0x80+(y+k)); //vertical address.  
.................... //!      glcd_command(0x80+((x/16)+ngang));   //horizontal address. 
.................... //!                                                                                 
.................... //!      for(i=0;i<width/16;i++)  
.................... //!      {                                  
.................... //!         glcd_data(logo_spk[n]);    n++;                                                      
.................... //!         glcd_data(logo_spk[n]);    n++;                                    
.................... //!      }                                                         
.................... //!   }                                                           
.................... //!}     
.................... //xxxxxxxxxxxxxxxxxxxxxxxxxxxxxxxxxxxxxxxxxxxxxxxxxxxxxxxx 
.................... //Ham xuat anh logo spk ra GLCD 
.................... //xxxxxxxxxxxxxxxxxxxxxxxxxxxxxxxxxxxxxxxxxxxxxxxxxxxxxxxx                  
.................... //!void glcd_xuat_anh_ok(int width,int height,int x,int y)  
.................... //!{                        
.................... //!   unsigned int i=0, j=0, k=0;                                                    
.................... //!   unsigned int16 n=0;   
.................... //!   ngang=0;                                                  
.................... //!   for(j=0;j<height;j++)  //cot tinh theo pixel                                                                      
.................... //!   {                            
.................... //!      if(j>31) {ngang=8; k=j-32;}     //chuyen vung                        
.................... //!      else k=j;                                                
.................... //!      for(i=0;i<width/16;i++)                                    
.................... //!      {                                  
.................... //!         gdram_vdk.pixel[y+k][x/16+ngang+i].nbyte[1] = logo_spk[n];  
.................... //!         n++;                                                      
.................... //!         gdram_vdk.pixel[y+k][x/16+ngang+i].nbyte[0] = logo_spk[n];  
.................... //!         n++;                                    
.................... //!      }  
.................... //!   }                                                           
.................... //!}                                                                                        
.................... //xxxxxxxxxxxxxxxxxxxxxxxxxxxxxxxxxxxxxxxxxxxxxxxxxxxxxxxx 
.................... //Ham xuat anh logo spkt ra GLCD 
.................... //xxxxxxxxxxxxxxxxxxxxxxxxxxxxxxxxxxxxxxxxxxxxxxxxxxxxxxxx     
.................... void glcd_xuat_anh(int width,int height,int x,int y)  
.................... {                        
....................    unsigned int i=0, j=0, k=0;                                                    
....................    unsigned int16 n=0;  
....................    for(j=0;j<height;j++)                                      
....................    {     
....................       i=0; 
....................       do 
....................       {                                 
....................          for(k=8;k>0;k--) 
....................          {                   
....................             glcd_pixel(x+i,y+j,bit_test(logo_spk[n],(k-1)));  
....................             i++;                       
....................          }                  
....................          n++;            
....................       }while(i<width);   
....................    }  
.................... } 
....................  
.................... void glcd_xuat_anh_c3(int width,int height,int x,int y)  
.................... {                        
....................    unsigned int i=0, j=0, k=0;                                                    
....................    unsigned int16 count=0;  
....................    for(j=0;j<height;j++)                                      
....................    {     
....................       for(;i<width;)  
....................       {  
....................          for(k=8;k>0;k--) 
....................          { 
....................             glcd_pixel(x+i,y+j,bit_test(logo_spk[count],(k-1)));  
....................             i++;                         
....................          }  
....................          count++;            
....................       }                                    
....................       i=0;  
....................    }  
.................... } 
....................         
....................  
....................  
.................... #include<graphics.c>  
.................... ///////////////////////////////////////////////////////////////////////// 
.................... ////                          graphics.c                             //// 
.................... ////                                                                 //// 
.................... ////   This file contains functions to draw lines, rectangles, bars, //// 
.................... ////   circles and text to a display. A function which draws a       //// 
.................... ////   single pixel must be defined before calling the functions in  //// 
.................... ////   this file. Call it glcd_pixel(x, y, color) where x is the     //// 
.................... ////   horizontal coordinate, y is the vertical coordinate, and      //// 
.................... ////   color is 1 bit to turn the pixel on or off.                   //// 
.................... ////                                                                 //// 
.................... ////   * Note: (0, 0) is treated as the upper left corner            //// 
.................... ////                                                                 //// 
.................... ///////////////////////////////////////////////////////////////////////// 
.................... ////                                                                 //// 
.................... ////  glcd_line(x1, y1, x2, y2, color)                               //// 
.................... ////     * Draws a line from the first point to the second point     //// 
.................... ////       with the given color                                      //// 
.................... ////       - color can be ON or OFF                                  //// 
.................... ////                                                                 //// 
.................... ////  glcd_rect(x1, y1, x2, y2, fill, color)                         //// 
.................... ////     * Draws a rectangle with one corner at point (x1,y1) and    //// 
.................... ////       the other corner at point (x2,y2)                         //// 
.................... ////       - fill can be YES or NO                                   //// 
.................... ////       - color can be ON or OFF                                  //// 
.................... ////                                                                 //// 
.................... ////  glcd_bar(x1, y1, x2, y2, width, color)                         //// 
.................... ////     * Draws a bar (wide line) from the first point to the       //// 
.................... ////       second point                                              //// 
.................... ////       - width is the number of pixels wide                      //// 
.................... ////       - color is ON or OFF                                      //// 
.................... ////                                                                 //// 
.................... ////  glcd_circle(x, y, radius, fill, color)                         //// 
.................... ////     * Draws a circle with center at (x,y)                       //// 
.................... ////       - fill can be YES or NO                                   //// 
.................... ////       - color can be ON or OFF                                  //// 
.................... ////                                                                 //// 
.................... ////  glcd_text57(x, y, textptr, size, color)                        //// 
.................... ////     * Write the null terminated text pointed to by textptr with //// 
.................... ////       the upper left coordinate of the first character at (x,y) //// 
.................... ////       Characters are 5 pixels wide and 7 pixels tall            //// 
.................... ////       - size is an integer that scales the size of the text     //// 
.................... ////       - color is ON or OFF                                      //// 
.................... ////     * Note - This function wraps characters to the next line    //// 
.................... ////              use #define GLCD_WIDTH to specify a display width  //// 
.................... ////                                                                 //// 
.................... ///////////////////////////////////////////////////////////////////////// 
.................... ////        (C) Copyright 1996, 2010 Custom Computer Services        //// 
.................... //// This source code may only be used by licensed users of the CCS  //// 
.................... //// C compiler.  This source code may only be distributed to other  //// 
.................... //// licensed users of the CCS C compiler.  No other use,            //// 
.................... //// reproduction or distribution is permitted without written       //// 
.................... //// permission.  Derivative programs created using this software    //// 
.................... //// in object code form are not restricted in any way.              //// 
.................... ///////////////////////////////////////////////////////////////////////// 
....................  
....................  
.................... ///////////////////////////////////////////////////////////////////////// 
.................... #ifndef GRAPHICS_DRAWING_FUNCTIONS 
.................... #define GRAPHICS_DRAWING_FUNCTIONS 
.................... ///////////////////////////////////////////////////////////////////////// 
....................  
....................  
.................... ///////////////////////////////////////////////////////////////////////// 
.................... #ifndef ON 
.................... #define ON  1 
.................... #endif 
....................  
.................... #ifndef OFF 
.................... #define OFF 0 
.................... #endif 
....................  
.................... #ifndef YES 
.................... #define YES 1 
.................... #endif 
....................  
.................... #ifndef NO 
.................... #define NO  0 
.................... #endif 
.................... ///////////////////////////////////////////////////////////////////////// 
....................  
....................  
.................... ///////////////////////////////////////////////////////////////////////// 
.................... //// Defines a 5x7 font 
.................... ///////////////////////////////////////////////////////////////////////// 
.................... const unsigned int8 FONT[51][5] ={0x00, 0x00, 0x00, 0x00, 0x00, // SPACE 
....................                          0x00, 0x00, 0x5F, 0x00, 0x00, // ! 
....................                          0x00, 0x03, 0x00, 0x03, 0x00, // " 
....................                          0x14, 0x3E, 0x14, 0x3E, 0x14, // # 
....................                          0x24, 0x2A, 0x7F, 0x2A, 0x12, // $ 
....................                          0x43, 0x33, 0x08, 0x66, 0x61, // % 
....................                          0x36, 0x49, 0x55, 0x22, 0x50, // & 
....................                          0x00, 0x05, 0x03, 0x00, 0x00, // ' 
....................                          0x00, 0x1C, 0x22, 0x41, 0x00, // ( 
....................                          0x00, 0x41, 0x22, 0x1C, 0x00, // ) 
....................                          0x14, 0x08, 0x3E, 0x08, 0x14, // * 
....................                          0x08, 0x08, 0x3E, 0x08, 0x08, // + 
....................                          0x00, 0x50, 0x30, 0x00, 0x00, // , 
....................                          0x08, 0x08, 0x08, 0x08, 0x08, // - 
....................                          0x00, 0x60, 0x60, 0x00, 0x00, // . 
....................                          0x20, 0x10, 0x08, 0x04, 0x02, // / 
....................                          0x3E, 0x51, 0x49, 0x45, 0x3E, // 0 
....................                          0x00, 0x04, 0x02, 0x7F, 0x00, // 1 
....................                          0x42, 0x61, 0x51, 0x49, 0x46, // 2 
....................                          0x22, 0x41, 0x49, 0x49, 0x36, // 3 
....................                          0x18, 0x14, 0x12, 0x7F, 0x10, // 4 
....................                          0x27, 0x45, 0x45, 0x45, 0x39, // 5 
....................                          0x3E, 0x49, 0x49, 0x49, 0x32, // 6 
....................                          0x01, 0x01, 0x71, 0x09, 0x07, // 7 
....................                          0x36, 0x49, 0x49, 0x49, 0x36, // 8 
....................                          0x26, 0x49, 0x49, 0x49, 0x3E, // 9 
....................                          0x00, 0x36, 0x36, 0x00, 0x00, // : 
....................                          0x00, 0x56, 0x36, 0x00, 0x00, // ; 
....................                          0x08, 0x14, 0x22, 0x41, 0x00, // < 
....................                          0x14, 0x14, 0x14, 0x14, 0x14, // = 
....................                          0x00, 0x41, 0x22, 0x14, 0x08, // > 
....................                          0x02, 0x01, 0x51, 0x09, 0x06, // ? 
....................                          0x3E, 0x41, 0x59, 0x55, 0x5E, // @ 
....................                          0x7E, 0x09, 0x09, 0x09, 0x7E, // A 
....................                          0x7F, 0x49, 0x49, 0x49, 0x36, // B 
....................                          0x3E, 0x41, 0x41, 0x41, 0x22, // C 
....................                          0x7F, 0x41, 0x41, 0x41, 0x3E, // D 
....................                          0x7F, 0x49, 0x49, 0x49, 0x41, // E 
....................                          0x7F, 0x09, 0x09, 0x09, 0x01, // F 
....................                          0x3E, 0x41, 0x41, 0x49, 0x3A, // G 
....................                          0x7F, 0x08, 0x08, 0x08, 0x7F, // H 
....................                          0x00, 0x41, 0x7F, 0x41, 0x00, // I 
....................                          0x30, 0x40, 0x40, 0x40, 0x3F, // J 
....................                          0x7F, 0x08, 0x14, 0x22, 0x41, // K 
....................                          0x7F, 0x40, 0x40, 0x40, 0x40, // L 
....................                          0x7F, 0x02, 0x0C, 0x02, 0x7F, // M 
....................                          0x7F, 0x02, 0x04, 0x08, 0x7F, // N 
....................                          0x3E, 0x41, 0x41, 0x41, 0x3E, // O 
....................                          0x7F, 0x09, 0x09, 0x09, 0x06, // P 
....................                          0x1E, 0x21, 0x21, 0x21, 0x5E, // Q 
....................                          0x7F, 0x09, 0x09, 0x09, 0x76};// R 
....................  
.................... const unsigned int8 FONT2[44][5]={0x26, 0x49, 0x49, 0x49, 0x32, // S 
....................                          0x01, 0x01, 0x7F, 0x01, 0x01, // T 
....................                          0x3F, 0x40, 0x40, 0x40, 0x3F, // U 
....................                          0x1F, 0x20, 0x40, 0x20, 0x1F, // V 
....................                          0x7F, 0x20, 0x10, 0x20, 0x7F, // W 
....................                          0x41, 0x22, 0x1C, 0x22, 0x41, // X 
....................                          0x07, 0x08, 0x70, 0x08, 0x07, // Y 
....................                          0x61, 0x51, 0x49, 0x45, 0x43, // Z 
....................                          0x00, 0x7F, 0x41, 0x00, 0x00, // [ 
....................                          0x02, 0x04, 0x08, 0x10, 0x20, // \ 
....................                          0x00, 0x00, 0x41, 0x7F, 0x00, // ] 
....................                          0x04, 0x02, 0x01, 0x02, 0x04, // ^ 
....................                          0x40, 0x40, 0x40, 0x40, 0x40, // _ 
....................                          0x00, 0x01, 0x02, 0x04, 0x00, // ` 
....................                          0x20, 0x54, 0x54, 0x54, 0x78, // a 
....................                          0x7F, 0x44, 0x44, 0x44, 0x38, // b 
....................                          0x38, 0x44, 0x44, 0x44, 0x44, // c 
....................                          0x38, 0x44, 0x44, 0x44, 0x7F, // d 
....................                          0x38, 0x54, 0x54, 0x54, 0x18, // e 
....................                          0x04, 0x04, 0x7E, 0x05, 0x05, // f 
....................                          0x08, 0x54, 0x54, 0x54, 0x3C, // g 
....................                          0x7F, 0x08, 0x04, 0x04, 0x78, // h 
....................                          0x00, 0x44, 0x7D, 0x40, 0x00, // i 
....................                          0x20, 0x40, 0x44, 0x3D, 0x00, // j 
....................                          0x7F, 0x10, 0x28, 0x44, 0x00, // k 
....................                          0x00, 0x41, 0x7F, 0x40, 0x00, // l 
....................                          0x7C, 0x04, 0x78, 0x04, 0x78, // m 
....................                          0x7C, 0x08, 0x04, 0x04, 0x78, // n 
....................                          0x38, 0x44, 0x44, 0x44, 0x38, // o 
....................                          0x7C, 0x14, 0x14, 0x14, 0x08, // p 
....................                          0x08, 0x14, 0x14, 0x14, 0x7C, // q 
....................                          0x00, 0x7C, 0x08, 0x04, 0x04, // r 
....................                          0x48, 0x54, 0x54, 0x54, 0x20, // s 
....................                          0x04, 0x04, 0x3F, 0x44, 0x44, // t 
....................                          0x3C, 0x40, 0x40, 0x20, 0x7C, // u 
....................                          0x1C, 0x20, 0x40, 0x20, 0x1C, // v 
....................                          0x3C, 0x40, 0x30, 0x40, 0x3C, // w 
....................                          0x44, 0x28, 0x10, 0x28, 0x44, // x 
....................                          0x0C, 0x50, 0x50, 0x50, 0x3C, // y 
....................                          0x44, 0x64, 0x54, 0x4C, 0x44, // z 
....................                          0x00, 0x08, 0x36, 0x41, 0x41, // { 
....................                          0x00, 0x00, 0x7F, 0x00, 0x00, // | 
....................                          0x41, 0x41, 0x36, 0x08, 0x00, // } 
....................                          0x02, 0x01, 0x02, 0x04, 0x02};// ~ 
.................... ///////////////////////////////////////////////////////////////////////// 
....................  
....................  
.................... ///////////////////////////////////////////////////////////////////////// 
.................... // Purpose:       Draw a line on a graphic LCD using Bresenham's 
.................... //                line drawing algorithm 
.................... // Inputs:        (x1, y1) - the start coordinate 
.................... //                (x2, y2) - the end coordinate 
.................... //                color - ON or OFF 
.................... // Dependencies:  glcd_pixel() 
.................... ///////////////////////////////////////////////////////////////////////// 
.................... #ifdef LARGE_LCD 
.................... void glcd_line(unsigned int16 x1, unsigned int16 y1, unsigned int16 x2, iunsigned nt16 y2, int1 color) 
.................... #else 
.................... void glcd_line(unsigned int8 x1, unsigned int8 y1, unsigned int8 x2, unsigned int8 y2, int1 color) 
.................... #endif 
*
09E0:  MOVLW  01
09E2:  MOVLB  4
09E4:  MOVWF  x75
09E6:  MOVWF  x76
09E8:  CLRF   x7B
.................... { 
....................    unsigned int16        dy, dx; 
....................    signed int8  addx=1, addy=1; 
....................    signed int16 P, diff; 
....................  
....................    #ifdef LARGE_LCD 
....................    unsigned int16 i=0; 
....................    dx = abs((signed int16)(x2 - x1)); 
....................    dy = abs((signed int16)(y2 - y1)); 
....................    #else 
....................    unsigned int8 i=0; 
....................    dx = abs((signed int8)(x2 - x1)); 
09EA:  MOVF   x6C,W
09EC:  SUBWF  x6E,W
09EE:  MOVWF  x7C
09F0:  MOVF   x7C,W
09F2:  BTFSS  x7C.7
09F4:  BRA    09FC
09F6:  MOVLW  00
09F8:  BSF    FD8.0
09FA:  SUBFWB x7C,W
09FC:  CLRF   03
09FE:  MOVWF  x73
0A00:  MOVFF  03,474
....................    dy = abs((signed int8)(y2 - y1)); 
0A04:  MOVF   x6D,W
0A06:  SUBWF  x6F,W
0A08:  MOVWF  x7C
0A0A:  MOVF   x7C,W
0A0C:  BTFSS  x7C.7
0A0E:  BRA    0A16
0A10:  MOVLW  00
0A12:  BSF    FD8.0
0A14:  SUBFWB x7C,W
0A16:  CLRF   03
0A18:  MOVWF  x71
0A1A:  MOVFF  03,472
....................    #endif 
....................  
....................    if(x1 > x2) 
0A1E:  MOVF   x6C,W
0A20:  SUBWF  x6E,W
0A22:  BC    0A26
....................       addx = -1; 
0A24:  SETF   x75
....................    if(y1 > y2) 
0A26:  MOVF   x6D,W
0A28:  SUBWF  x6F,W
0A2A:  BC    0A2E
....................       addy = -1; 
0A2C:  SETF   x76
....................  
....................    if(dx >= dy) 
0A2E:  MOVF   x72,W
0A30:  SUBWF  x74,W
0A32:  BNC   0AA8
0A34:  BNZ   0A3C
0A36:  MOVF   x71,W
0A38:  SUBWF  x73,W
0A3A:  BNC   0AA8
....................    { 
....................       dy *= 2; 
0A3C:  BCF    FD8.0
0A3E:  RLCF   x71,F
0A40:  RLCF   x72,F
....................       P = dy - dx; 
0A42:  MOVF   x73,W
0A44:  SUBWF  x71,W
0A46:  MOVWF  00
0A48:  MOVF   x74,W
0A4A:  SUBWFB x72,W
0A4C:  MOVFF  00,477
0A50:  MOVWF  x78
....................       diff = P - dx; 
0A52:  MOVF   x73,W
0A54:  SUBWF  x77,W
0A56:  MOVWF  x79
0A58:  MOVF   x74,W
0A5A:  SUBWFB x78,W
0A5C:  MOVWF  x7A
....................  
....................       for(; i<=dx; ++i) 
0A5E:  MOVF   x74,F
0A60:  BNZ   0A68
0A62:  MOVF   x7B,W
0A64:  SUBWF  x73,W
0A66:  BNC   0AA6
....................       { 
....................          glcd_pixel(x1, y1, color); 
0A68:  MOVFF  46C,47C
0A6C:  MOVFF  46D,47D
0A70:  MOVFF  470,47E
0A74:  MOVLB  0
0A76:  RCALL  071C
....................  
....................          if(P < 0) 
0A78:  MOVLB  4
0A7A:  BTFSS  x78.7
0A7C:  BRA    0A8E
....................          { 
....................             P  += dy; 
0A7E:  MOVF   x71,W
0A80:  ADDWF  x77,F
0A82:  MOVF   x72,W
0A84:  ADDWFC x78,F
....................             x1 += addx; 
0A86:  MOVF   x75,W
0A88:  ADDWF  x6C,W
0A8A:  MOVWF  x6C
....................          } 
0A8C:  BRA    0AA2
....................          else 
....................          { 
....................             P  += diff; 
0A8E:  MOVF   x79,W
0A90:  ADDWF  x77,F
0A92:  MOVF   x7A,W
0A94:  ADDWFC x78,F
....................             x1 += addx; 
0A96:  MOVF   x75,W
0A98:  ADDWF  x6C,W
0A9A:  MOVWF  x6C
....................             y1 += addy; 
0A9C:  MOVF   x76,W
0A9E:  ADDWF  x6D,W
0AA0:  MOVWF  x6D
....................          } 
0AA2:  INCF   x7B,F
0AA4:  BRA    0A5E
....................       } 
....................    } 
0AA6:  BRA    0B12
....................    else 
....................    { 
....................       dx *= 2; 
0AA8:  BCF    FD8.0
0AAA:  RLCF   x73,F
0AAC:  RLCF   x74,F
....................       P = dx - dy; 
0AAE:  MOVF   x71,W
0AB0:  SUBWF  x73,W
0AB2:  MOVWF  00
0AB4:  MOVF   x72,W
0AB6:  SUBWFB x74,W
0AB8:  MOVFF  00,477
0ABC:  MOVWF  x78
....................       diff = P - dy; 
0ABE:  MOVF   x71,W
0AC0:  SUBWF  x77,W
0AC2:  MOVWF  x79
0AC4:  MOVF   x72,W
0AC6:  SUBWFB x78,W
0AC8:  MOVWF  x7A
....................  
....................       for(; i<=dy; ++i) 
0ACA:  MOVF   x72,F
0ACC:  BNZ   0AD4
0ACE:  MOVF   x7B,W
0AD0:  SUBWF  x71,W
0AD2:  BNC   0B12
....................       { 
....................          glcd_pixel(x1, y1, color); 
0AD4:  MOVFF  46C,47C
0AD8:  MOVFF  46D,47D
0ADC:  MOVFF  470,47E
0AE0:  MOVLB  0
0AE2:  RCALL  071C
....................  
....................          if(P < 0) 
0AE4:  MOVLB  4
0AE6:  BTFSS  x78.7
0AE8:  BRA    0AFA
....................          { 
....................             P  += dx; 
0AEA:  MOVF   x73,W
0AEC:  ADDWF  x77,F
0AEE:  MOVF   x74,W
0AF0:  ADDWFC x78,F
....................             y1 += addy; 
0AF2:  MOVF   x76,W
0AF4:  ADDWF  x6D,W
0AF6:  MOVWF  x6D
....................          } 
0AF8:  BRA    0B0E
....................          else 
....................          { 
....................             P  += diff; 
0AFA:  MOVF   x79,W
0AFC:  ADDWF  x77,F
0AFE:  MOVF   x7A,W
0B00:  ADDWFC x78,F
....................             x1 += addx; 
0B02:  MOVF   x75,W
0B04:  ADDWF  x6C,W
0B06:  MOVWF  x6C
....................             y1 += addy; 
0B08:  MOVF   x76,W
0B0A:  ADDWF  x6D,W
0B0C:  MOVWF  x6D
....................          } 
0B0E:  INCF   x7B,F
0B10:  BRA    0ACA
....................       } 
....................    } 
0B12:  MOVLB  0
0B14:  RETURN 0
.................... } 
....................  
....................  
.................... ///////////////////////////////////////////////////////////////////////// 
.................... // Purpose:       Draw a rectangle on a graphic LCD 
.................... // Inputs:        (x1, y1) - the start coordinate 
.................... //                (x2, y2) - the end coordinate 
.................... //                fill  - YES or NO 
.................... //                color - ON or OFF 
.................... // Dependencies:  glcd_pixel(), glcd_line() 
.................... ///////////////////////////////////////////////////////////////////////// 
.................... #ifdef LARGE_LCD 
.................... void glcd_rect(unsigned int16 x1, unsigned int16 y1, unsigned int16 x2, unsigned int16 y2, int1 fill, int1 color) 
.................... #else 
.................... void glcd_rect(unsigned int8 x1, unsigned int8 y1, unsigned int8 x2, unsigned int8 y2, int1 fill, int1 color) 
.................... #endif 
.................... { 
....................    if(fill) 
....................    { 
....................       #ifdef LARGE_LCD 
....................       unsigned int16 i, xmin, xmax, ymin, ymax; 
....................       #else 
....................       unsigned int8  i, xmin, xmax, ymin, ymax; 
....................       #endif 
....................  
....................       if(x1 < x2)                            //  Find x min and max 
....................       { 
....................          xmin = x1; 
....................          xmax = x2; 
....................       } 
....................       else 
....................       { 
....................          xmin = x2; 
....................          xmax = x1; 
....................       } 
....................  
....................       if(y1 < y2)                            // Find the y min and max 
....................       { 
....................          ymin = y1; 
....................          ymax = y2; 
....................       } 
....................       else 
....................       { 
....................          ymin = y2; 
....................          ymax = y1; 
....................       } 
....................  
....................       for(; xmin <= xmax; ++xmin) 
....................       { 
....................          for(i=ymin; i<=ymax; ++i) 
....................          { 
....................             glcd_pixel(xmin, i, color); 
....................          } 
....................       } 
....................    } 
....................    else 
....................    { 
....................       glcd_line(x1, y1, x2, y1, color);      // Draw the 4 sides 
....................       glcd_line(x1, y2, x2, y2, color); 
....................       glcd_line(x1, y1, x1, y2, color); 
....................       glcd_line(x2, y1, x2, y2, color); 
....................    } 
.................... } 
....................  
.................... ///////////////////////////////////////////////////////////////////////// 
.................... // Purpose:       Draw a bar (wide line) on a graphic LCD 
.................... // Inputs:        (x1, y1) - the start coordinate 
.................... //                (x2, y2) - the end coordinate 
.................... //                width  - The number of pixels wide 
.................... //                color - ON or OFF 
.................... ///////////////////////////////////////////////////////////////////////// 
.................... #ifdef LARGE_LCD 
.................... void glcd_bar(unsigned int16 x1, unsigned int16 y1, unsigned int16 x2, unsigned int16 y2, unsigned int8 width, int1 color) 
.................... #else 
.................... void glcd_bar(unsigned int8 x1, unsigned int8 y1, unsigned int8 x2, unsigned int8 y2, unsigned int8 width, int1 color) 
.................... #endif 
.................... { 
....................    unsigned int8         half_width; 
....................    signed int16 dy, dx; 
....................    signed int8  addx=1, addy=1, j; 
....................    signed int16 P, diff, c1, c2; 
....................  
....................    #ifdef LARGE_LCD 
....................    unsigned int16 i=0; 
....................    dx = abs((signed int16)(x2 - x1)); 
....................    dy = abs((signed int16)(y2 - y1)); 
....................    #else 
....................    unsigned int8 i=0; 
....................    dx = abs((signed int8)(x2 - x1)); 
....................    dy = abs((signed int8)(y2 - y1)); 
....................    #endif 
....................  
....................    half_width = width/2; 
....................    c1 = -(dx*x1 + dy*y1); 
....................    c2 = -(dx*x2 + dy*y2); 
....................  
....................    if(x1 > x2) 
....................    { 
....................       signed int16 temp; 
....................       temp = c1; 
....................       c1 = c2; 
....................       c2 = temp; 
....................       addx = -1; 
....................    } 
....................    if(y1 > y2) 
....................    { 
....................       signed int16 temp; 
....................       temp = c1; 
....................       c1 = c2; 
....................       c2 = temp; 
....................       addy = -1; 
....................    } 
....................  
....................    if(dx >= dy) 
....................    { 
....................       P = 2*dy - dx; 
....................       diff = P - dx; 
....................  
....................       for(i=0; i<=dx; ++i) 
....................       { 
....................          for(j=-half_width; j<half_width+width%2; ++j) 
....................          { 
....................                glcd_pixel(x1, y1+j, color); 
....................          } 
....................          if(P < 0) 
....................          { 
....................             P  += 2*dy; 
....................             x1 += addx; 
....................          } 
....................          else 
....................          { 
....................             P  += diff; 
....................             x1 += addx; 
....................             y1 += addy; 
....................          } 
....................       } 
....................    } 
....................    else 
....................    { 
....................       P = 2*dx - dy; 
....................       diff = P - dy; 
....................  
....................       for(i=0; i<=dy; ++i) 
....................       { 
....................          if(P < 0) 
....................          { 
....................             P  += 2*dx; 
....................             y1 += addy; 
....................          } 
....................          else 
....................          { 
....................             P  += diff; 
....................             x1 += addx; 
....................             y1 += addy; 
....................          } 
....................          for(j=-half_width; j<half_width+width%2; ++j) 
....................          { 
....................                glcd_pixel(x1+j, y1, color); 
....................          } 
....................       } 
....................    } 
.................... } 
....................  
....................  
.................... ///////////////////////////////////////////////////////////////////////// 
.................... // Purpose:       Draw a circle on a graphic LCD 
.................... // Inputs:        (x,y) - the center of the circle 
.................... //                radius - the radius of the circle 
.................... //                fill - YES or NO 
.................... //                color - ON or OFF 
.................... ///////////////////////////////////////////////////////////////////////// 
.................... #ifdef LARGE_LCD 
.................... void glcd_circle(unsigned int16 x, unsigned int16 y, unsigned int16 radius, int1 fill, int1 color) 
.................... #else 
.................... void glcd_circle(unsigned int8 x, unsigned int8 y, unsigned int8 radius, int1 fill, int1 color) 
.................... #endif 
.................... { 
....................    #ifdef LARGE_LCD 
....................    signed int16 a, b, P; 
....................    #else 
....................    signed int8  a, b, P; 
....................    #endif 
....................  
....................    a = 0; 
*
0B64:  MOVLB  4
0B66:  CLRF   x65
....................    b = radius; 
0B68:  MOVFF  462,466
....................    P = 1 - radius; 
0B6C:  MOVLW  01
0B6E:  BSF    FD8.0
0B70:  SUBFWB x62,W
0B72:  MOVWF  x67
....................  
....................    do 
....................    { 
....................       if(fill) 
0B74:  MOVF   x63,F
0B76:  BZ    0C3A
....................       { 
....................          glcd_line(x-a, y+b, x+a, y+b, color); 
0B78:  MOVF   x65,W
0B7A:  SUBWF  x60,W
0B7C:  MOVWF  x68
0B7E:  MOVF   x66,W
0B80:  ADDWF  x61,W
0B82:  MOVWF  x69
0B84:  MOVF   x65,W
0B86:  ADDWF  x60,W
0B88:  MOVWF  x6A
0B8A:  MOVF   x66,W
0B8C:  ADDWF  x61,W
0B8E:  MOVWF  x6B
0B90:  MOVFF  468,46C
0B94:  MOVFF  469,46D
0B98:  MOVFF  46A,46E
0B9C:  MOVWF  x6F
0B9E:  MOVFF  464,470
0BA2:  MOVLB  0
0BA4:  RCALL  09E0
....................          glcd_line(x-a, y-b, x+a, y-b, color); 
0BA6:  MOVLB  4
0BA8:  MOVF   x65,W
0BAA:  SUBWF  x60,W
0BAC:  MOVWF  x68
0BAE:  MOVF   x66,W
0BB0:  SUBWF  x61,W
0BB2:  MOVWF  x69
0BB4:  MOVF   x65,W
0BB6:  ADDWF  x60,W
0BB8:  MOVWF  x6A
0BBA:  MOVF   x66,W
0BBC:  SUBWF  x61,W
0BBE:  MOVWF  x6B
0BC0:  MOVFF  468,46C
0BC4:  MOVFF  469,46D
0BC8:  MOVFF  46A,46E
0BCC:  MOVWF  x6F
0BCE:  MOVFF  464,470
0BD2:  MOVLB  0
0BD4:  RCALL  09E0
....................          glcd_line(x-b, y+a, x+b, y+a, color); 
0BD6:  MOVLB  4
0BD8:  MOVF   x66,W
0BDA:  SUBWF  x60,W
0BDC:  MOVWF  x68
0BDE:  MOVF   x65,W
0BE0:  ADDWF  x61,W
0BE2:  MOVWF  x69
0BE4:  MOVF   x66,W
0BE6:  ADDWF  x60,W
0BE8:  MOVWF  x6A
0BEA:  MOVF   x65,W
0BEC:  ADDWF  x61,W
0BEE:  MOVWF  x6B
0BF0:  MOVFF  468,46C
0BF4:  MOVFF  469,46D
0BF8:  MOVFF  46A,46E
0BFC:  MOVWF  x6F
0BFE:  MOVFF  464,470
0C02:  MOVLB  0
0C04:  RCALL  09E0
....................          glcd_line(x-b, y-a, x+b, y-a, color); 
0C06:  MOVLB  4
0C08:  MOVF   x66,W
0C0A:  SUBWF  x60,W
0C0C:  MOVWF  x68
0C0E:  MOVF   x65,W
0C10:  SUBWF  x61,W
0C12:  MOVWF  x69
0C14:  MOVF   x66,W
0C16:  ADDWF  x60,W
0C18:  MOVWF  x6A
0C1A:  MOVF   x65,W
0C1C:  SUBWF  x61,W
0C1E:  MOVWF  x6B
0C20:  MOVFF  468,46C
0C24:  MOVFF  469,46D
0C28:  MOVFF  46A,46E
0C2C:  MOVWF  x6F
0C2E:  MOVFF  464,470
0C32:  MOVLB  0
0C34:  RCALL  09E0
....................       } 
0C36:  BRA    0D18
0C38:  MOVLB  4
....................       else 
....................       { 
....................          glcd_pixel(a+x, b+y, color); 
0C3A:  MOVF   x60,W
0C3C:  ADDWF  x65,W
0C3E:  MOVWF  x68
0C40:  MOVF   x61,W
0C42:  ADDWF  x66,W
0C44:  MOVWF  x69
0C46:  MOVFF  468,47C
0C4A:  MOVWF  x7D
0C4C:  MOVFF  464,47E
0C50:  MOVLB  0
0C52:  RCALL  071C
....................          glcd_pixel(b+x, a+y, color); 
0C54:  MOVLB  4
0C56:  MOVF   x60,W
0C58:  ADDWF  x66,W
0C5A:  MOVWF  x68
0C5C:  MOVF   x61,W
0C5E:  ADDWF  x65,W
0C60:  MOVWF  x69
0C62:  MOVFF  468,47C
0C66:  MOVWF  x7D
0C68:  MOVFF  464,47E
0C6C:  MOVLB  0
0C6E:  RCALL  071C
....................          glcd_pixel(x-a, b+y, color); 
0C70:  MOVLB  4
0C72:  MOVF   x65,W
0C74:  SUBWF  x60,W
0C76:  MOVWF  x68
0C78:  MOVF   x61,W
0C7A:  ADDWF  x66,W
0C7C:  MOVWF  x69
0C7E:  MOVFF  468,47C
0C82:  MOVWF  x7D
0C84:  MOVFF  464,47E
0C88:  MOVLB  0
0C8A:  RCALL  071C
....................          glcd_pixel(x-b, a+y, color); 
0C8C:  MOVLB  4
0C8E:  MOVF   x66,W
0C90:  SUBWF  x60,W
0C92:  MOVWF  x68
0C94:  MOVF   x61,W
0C96:  ADDWF  x65,W
0C98:  MOVWF  x69
0C9A:  MOVFF  468,47C
0C9E:  MOVWF  x7D
0CA0:  MOVFF  464,47E
0CA4:  MOVLB  0
0CA6:  RCALL  071C
....................          glcd_pixel(b+x, y-a, color); 
0CA8:  MOVLB  4
0CAA:  MOVF   x60,W
0CAC:  ADDWF  x66,W
0CAE:  MOVWF  x68
0CB0:  MOVF   x65,W
0CB2:  SUBWF  x61,W
0CB4:  MOVWF  x69
0CB6:  MOVFF  468,47C
0CBA:  MOVWF  x7D
0CBC:  MOVFF  464,47E
0CC0:  MOVLB  0
0CC2:  RCALL  071C
....................          glcd_pixel(a+x, y-b, color); 
0CC4:  MOVLB  4
0CC6:  MOVF   x60,W
0CC8:  ADDWF  x65,W
0CCA:  MOVWF  x68
0CCC:  MOVF   x66,W
0CCE:  SUBWF  x61,W
0CD0:  MOVWF  x69
0CD2:  MOVFF  468,47C
0CD6:  MOVWF  x7D
0CD8:  MOVFF  464,47E
0CDC:  MOVLB  0
0CDE:  RCALL  071C
....................          glcd_pixel(x-a, y-b, color); 
0CE0:  MOVLB  4
0CE2:  MOVF   x65,W
0CE4:  SUBWF  x60,W
0CE6:  MOVWF  x68
0CE8:  MOVF   x66,W
0CEA:  SUBWF  x61,W
0CEC:  MOVWF  x69
0CEE:  MOVFF  468,47C
0CF2:  MOVWF  x7D
0CF4:  MOVFF  464,47E
0CF8:  MOVLB  0
0CFA:  RCALL  071C
....................          glcd_pixel(x-b, y-a, color); 
0CFC:  MOVLB  4
0CFE:  MOVF   x66,W
0D00:  SUBWF  x60,W
0D02:  MOVWF  x68
0D04:  MOVF   x65,W
0D06:  SUBWF  x61,W
0D08:  MOVWF  x69
0D0A:  MOVFF  468,47C
0D0E:  MOVWF  x7D
0D10:  MOVFF  464,47E
0D14:  MOVLB  0
0D16:  RCALL  071C
....................       } 
....................  
....................       if(P < 0) 
0D18:  MOVLB  4
0D1A:  BTFSS  x67.7
0D1C:  BRA    0D3A
....................          P += 3 + 2 * a++; 
0D1E:  MOVF   x65,W
0D20:  INCF   x65,F
0D22:  MOVWF  x68
0D24:  MOVLW  02
0D26:  MOVWF  x69
0D28:  MOVFF  468,46A
0D2C:  MOVLB  0
0D2E:  RCALL  0B16
0D30:  MOVF   01,W
0D32:  ADDLW  03
0D34:  MOVLB  4
0D36:  ADDWF  x67,F
0D38:  BRA    0D5C
....................       else 
....................          P += 5 + 2 * (a++ - b--); 
0D3A:  MOVF   x65,W
0D3C:  INCF   x65,F
0D3E:  MOVWF  x68
0D40:  MOVF   x66,W
0D42:  DECF   x66,F
0D44:  SUBWF  x68,W
0D46:  MOVWF  x68
0D48:  MOVLW  02
0D4A:  MOVWF  x69
0D4C:  MOVFF  468,46A
0D50:  MOVLB  0
0D52:  RCALL  0B16
0D54:  MOVF   01,W
0D56:  ADDLW  05
0D58:  MOVLB  4
0D5A:  ADDWF  x67,F
....................     } while(a <= b); 
0D5C:  MOVF   x65,W
0D5E:  XORLW  80
0D60:  MOVWF  00
0D62:  MOVF   x66,W
0D64:  XORLW  80
0D66:  SUBWF  00,W
0D68:  BTFSC  FD8.2
0D6A:  BRA    0B74
0D6C:  BTFSS  FD8.0
0D6E:  BRA    0B74
0D70:  MOVLB  0
0D72:  RETURN 0
.................... } 
....................  
....................  
.................... ///////////////////////////////////////////////////////////////////////// 
.................... // Purpose:       Write text on a graphic LCD 
.................... // Inputs:        (x,y) - The upper left coordinate of the first letter 
.................... //                textptr - A pointer to an array of text to display 
.................... //                size - The size of the text: 1 = 5x7, 2 = 10x14, ... 
.................... //                color - ON or OFF 
.................... ///////////////////////////////////////////////////////////////////////// 
.................... #ifdef LARGE_LCD 
.................... void glcd_text57(unsigned int16 x, unsigned int16 y, char* textptr, unsigned int8 size, int1 color) 
.................... #else 
.................... void glcd_text57(unsigned int8 x, unsigned int8 y, char* textptr, unsigned int8 size, int1 color) 
.................... #endif 
.................... { 
....................    unsigned int8 j, k, l, m;                       // Loop counters 
....................    unsigned int8 pixelData[5];                     // Stores character data 
....................  
....................    for(; *textptr != '\0'; ++textptr, ++x)// Loop through the passed string 
*
0828:  MOVFF  463,03
082C:  MOVLB  4
082E:  MOVFF  462,FE9
0832:  MOVFF  463,FEA
0836:  MOVF   FEF,F
0838:  BTFSC  FD8.2
083A:  BRA    09DC
....................    { 
....................       if(*textptr < 'S') // Checks if the letter is in the first font array 
083C:  MOVFF  463,03
0840:  MOVFF  462,FE9
0844:  MOVFF  463,FEA
0848:  MOVF   FEF,W
084A:  SUBLW  52
084C:  BNC   089C
....................          memcpy(pixelData, FONT[*textptr - ' '], 5); 
084E:  MOVFF  463,03
0852:  MOVFF  462,FE9
0856:  MOVFF  463,FEA
085A:  MOVLW  20
085C:  SUBWF  FEF,W
085E:  MULLW  05
0860:  MOVF   FF3,W
0862:  CLRF   03
0864:  MOVWF  x6F
0866:  MOVLW  04
0868:  MOVWF  FEA
086A:  MOVLW  6A
086C:  MOVWF  FE9
086E:  CLRF   x73
0870:  MOVFF  46F,472
0874:  MOVFF  FF2,470
0878:  BCF    FF2.7
087A:  MOVLW  05
087C:  MOVWF  01
087E:  CLRF   FF7
0880:  MOVF   x6F,W
0882:  MOVLB  0
0884:  CALL   0004
0888:  TBLRD*-
088A:  TBLRD*+
088C:  MOVFF  FF5,FEE
0890:  DECFSZ 01,F
0892:  BRA    088A
0894:  MOVLB  4
0896:  BTFSC  x70.7
0898:  BSF    FF2.7
089A:  BRA    0904
....................       else if(*textptr <= '~') // Check if the letter is in the second font array 
089C:  MOVFF  463,03
08A0:  MOVFF  462,FE9
08A4:  MOVFF  463,FEA
08A8:  MOVF   FEF,W
08AA:  SUBLW  7E
08AC:  BNC   08FA
....................          memcpy(pixelData, FONT2[*textptr - 'S'], 5); 
08AE:  MOVFF  463,03
08B2:  MOVFF  462,FE9
08B6:  MOVFF  463,FEA
08BA:  MOVLW  53
08BC:  SUBWF  FEF,W
08BE:  MULLW  05
08C0:  MOVF   FF3,W
08C2:  CLRF   03
08C4:  MOVWF  x6F
08C6:  MOVLW  04
08C8:  MOVWF  FEA
08CA:  MOVLW  6A
08CC:  MOVWF  FE9
08CE:  CLRF   x73
08D0:  MOVFF  46F,472
08D4:  MOVFF  FF2,470
08D8:  BCF    FF2.7
08DA:  MOVLW  05
08DC:  MOVWF  01
08DE:  CLRF   FF7
08E0:  MOVF   x6F,W
08E2:  MOVLB  0
08E4:  RCALL  0114
08E6:  TBLRD*-
08E8:  TBLRD*+
08EA:  MOVFF  FF5,FEE
08EE:  DECFSZ 01,F
08F0:  BRA    08E8
08F2:  MOVLB  4
08F4:  BTFSC  x70.7
08F6:  BSF    FF2.7
08F8:  BRA    0904
....................       else 
....................          memcpy(pixelData, FONT[0], 5);   // Default to space 
08FA:  CLRF   x6A
08FC:  CLRF   x6B
08FE:  CLRF   x6C
0900:  CLRF   x6D
0902:  CLRF   x6E
....................  
....................       // Handles newline and carriage returns 
....................       switch(*textptr) 
0904:  MOVFF  463,03
0908:  MOVF   x62,W
090A:  MOVWF  FE9
090C:  MOVFF  03,FEA
0910:  MOVF   FEF,W
0912:  XORLW  0A
0914:  MOVLB  0
0916:  BZ    091E
0918:  XORLW  07
091A:  BZ    092E
091C:  BRA    0936
....................       { 
....................          case '\n': 
....................             y += 7*size + 1; 
091E:  MOVLB  4
0920:  MOVF   x64,W
0922:  MULLW  07
0924:  MOVF   FF3,W
0926:  ADDLW  01
0928:  ADDWF  x61,F
....................             continue; 
092A:  BRA    09CE
092C:  MOVLB  0
....................          case '\r': 
....................             x = 0; 
092E:  MOVLB  4
0930:  CLRF   x60
....................             continue; 
0932:  BRA    09CE
0934:  MOVLB  0
....................       } 
....................  
....................       if(x+5*size >= GLCD_WIDTH)          // Performs character wrapping 
0936:  MOVLB  4
0938:  MOVF   x64,W
093A:  MULLW  05
093C:  MOVF   FF3,W
093E:  ADDWF  x60,W
0940:  SUBLW  7F
0942:  BC    0950
....................       { 
....................          x = 0;                           // Set x at far left position 
0944:  CLRF   x60
....................          y += 7*size + 1;                 // Set y at next position down 
0946:  MOVF   x64,W
0948:  MULLW  07
094A:  MOVF   FF3,W
094C:  ADDLW  01
094E:  ADDWF  x61,F
....................       } 
....................       for(j=0; j<5; ++j, x+=size)         // Loop through character byte data 
0950:  CLRF   x66
0952:  MOVF   x66,W
0954:  SUBLW  04
0956:  BNC   09CE
....................       { 
....................          for(k=0; k < 7; ++k)             // Loop through the vertical pixels 
0958:  CLRF   x67
095A:  MOVF   x67,W
095C:  SUBLW  06
095E:  BNC   09C6
....................          { 
....................             if(bit_test(pixelData[j], k)) // Check if the pixel should be set 
0960:  CLRF   03
0962:  MOVF   x66,W
0964:  ADDLW  6A
0966:  MOVWF  FE9
0968:  MOVLW  04
096A:  ADDWFC 03,W
096C:  MOVWF  FEA
096E:  MOVFF  FEF,46F
0972:  MOVFF  46F,00
0976:  MOVF   x67,W
0978:  MOVWF  01
097A:  BZ    0984
097C:  BCF    FD8.0
097E:  RRCF   00,F
0980:  DECFSZ 01,F
0982:  BRA    097C
0984:  BTFSS  00.0
0986:  BRA    09C2
....................             { 
....................                for(l=0; l < size; ++l)    // These two loops change the 
0988:  CLRF   x68
098A:  MOVF   x64,W
098C:  SUBWF  x68,W
098E:  BC    09C2
....................                {                          // character's size 
....................                   for(m=0; m < size; ++m) 
0990:  CLRF   x69
0992:  MOVF   x64,W
0994:  SUBWF  x69,W
0996:  BC    09BE
....................                   { 
....................                      glcd_pixel(x+m, y+k*size+l, color); // Draws the pixel 
0998:  MOVF   x69,W
099A:  ADDWF  x60,W
099C:  MOVWF  x6F
099E:  MOVF   x67,W
09A0:  MULWF  x64
09A2:  MOVF   FF3,W
09A4:  ADDWF  x61,W
09A6:  ADDWF  x68,W
09A8:  MOVWF  x70
09AA:  MOVFF  46F,47C
09AE:  MOVWF  x7D
09B0:  MOVFF  465,47E
09B4:  MOVLB  0
09B6:  RCALL  071C
09B8:  MOVLB  4
09BA:  INCF   x69,F
09BC:  BRA    0992
....................                   } 
09BE:  INCF   x68,F
09C0:  BRA    098A
....................                } 
....................             } 
09C2:  INCF   x67,F
09C4:  BRA    095A
....................          } 
09C6:  INCF   x66,F
09C8:  MOVF   x64,W
09CA:  ADDWF  x60,F
09CC:  BRA    0952
....................       } 
09CE:  INCF   x62,F
09D0:  BTFSC  FD8.2
09D2:  INCF   x63,F
09D4:  INCF   x60,F
09D6:  MOVLB  0
09D8:  BRA    0828
09DA:  MOVLB  4
....................    } 
09DC:  MOVLB  0
09DE:  RETURN 0
.................... } 
....................  
.................... #endif 
....................  
.................... #include<bai_631_glcd_kim_giay_tv.c>             
.................... #define xt  96 
.................... #define yt  32 
.................... #define bks 20 
.................... signed int16 xs_ve,ys_ve,tgs45,tg; 
.................... float xs_tinh,ys_tinh,goc_s; 
....................  
.................... void glcd_ve_cac_vong_tron_so() 
.................... { 
....................     unsigned char glcd_text1[]={"Clock: UTE"}, glcd_12[]="12"; 
*
0D74:  MOVLW  43
0D76:  MOVLB  4
0D78:  MOVWF  x4C
0D7A:  MOVLW  6C
0D7C:  MOVWF  x4D
0D7E:  MOVLW  6F
0D80:  MOVWF  x4E
0D82:  MOVLW  63
0D84:  MOVWF  x4F
0D86:  MOVLW  6B
0D88:  MOVWF  x50
0D8A:  MOVLW  3A
0D8C:  MOVWF  x51
0D8E:  MOVLW  20
0D90:  MOVWF  x52
0D92:  MOVLW  55
0D94:  MOVWF  x53
0D96:  MOVLW  54
0D98:  MOVWF  x54
0D9A:  MOVLW  45
0D9C:  MOVWF  x55
0D9E:  CLRF   x56
0DA0:  MOVLW  31
0DA2:  MOVWF  x57
0DA4:  MOVLW  32
0DA6:  MOVWF  x58
0DA8:  CLRF   x59
....................     unsigned char glcd_9[]="9",glcd_6[]="6",glcd_3[]="3"; 
0DAA:  MOVLW  39
0DAC:  MOVWF  x5A
0DAE:  CLRF   x5B
0DB0:  MOVLW  36
0DB2:  MOVWF  x5C
0DB4:  CLRF   x5D
0DB6:  MOVLW  33
0DB8:  MOVWF  x5E
0DBA:  CLRF   x5F
....................      
....................     setup_glcd(glcd_graphic_mode); 
0DBC:  MOVLW  36
0DBE:  MOVWF  x60
0DC0:  MOVLB  0
0DC2:  CALL   03C4
....................     glcd_mau_nen(0); 
0DC6:  MOVLB  4
0DC8:  CLRF   x60
0DCA:  MOVLB  0
0DCC:  CALL   043E
....................     glcd_text57(0,0,glcd_text1,1,1); 
0DD0:  MOVLB  4
0DD2:  CLRF   x60
0DD4:  CLRF   x61
0DD6:  MOVLW  04
0DD8:  MOVWF  x63
0DDA:  MOVLW  4C
0DDC:  MOVWF  x62
0DDE:  MOVLW  01
0DE0:  MOVWF  x64
0DE2:  MOVWF  x65
0DE4:  MOVLB  0
0DE6:  RCALL  0828
....................     
....................     glcd_text57(xt-5,yt-29,glcd_12,1,1); 
0DE8:  MOVLW  5B
0DEA:  MOVLB  4
0DEC:  MOVWF  x60
0DEE:  MOVLW  03
0DF0:  MOVWF  x61
0DF2:  MOVLW  04
0DF4:  MOVWF  x63
0DF6:  MOVLW  57
0DF8:  MOVWF  x62
0DFA:  MOVLW  01
0DFC:  MOVWF  x64
0DFE:  MOVWF  x65
0E00:  MOVLB  0
0E02:  RCALL  0828
....................     glcd_text57(xt-3,yt+23,glcd_6,1,1); 
0E04:  MOVLW  5D
0E06:  MOVLB  4
0E08:  MOVWF  x60
0E0A:  MOVLW  37
0E0C:  MOVWF  x61
0E0E:  MOVLW  04
0E10:  MOVWF  x63
0E12:  MOVLW  5C
0E14:  MOVWF  x62
0E16:  MOVLW  01
0E18:  MOVWF  x64
0E1A:  MOVWF  x65
0E1C:  MOVLB  0
0E1E:  RCALL  0828
....................     glcd_text57(xt-28,yt-3,glcd_9,1,1); 
0E20:  MOVLW  44
0E22:  MOVLB  4
0E24:  MOVWF  x60
0E26:  MOVLW  1D
0E28:  MOVWF  x61
0E2A:  MOVLW  04
0E2C:  MOVWF  x63
0E2E:  MOVLW  5A
0E30:  MOVWF  x62
0E32:  MOVLW  01
0E34:  MOVWF  x64
0E36:  MOVWF  x65
0E38:  MOVLB  0
0E3A:  RCALL  0828
....................     glcd_text57(xt+24,yt-3,glcd_3,1,1); 
0E3C:  MOVLW  78
0E3E:  MOVLB  4
0E40:  MOVWF  x60
0E42:  MOVLW  1D
0E44:  MOVWF  x61
0E46:  MOVLW  04
0E48:  MOVWF  x63
0E4A:  MOVLW  5E
0E4C:  MOVWF  x62
0E4E:  MOVLW  01
0E50:  MOVWF  x64
0E52:  MOVWF  x65
0E54:  MOVLB  0
0E56:  RCALL  0828
....................      
....................     glcd_circle(xt,yt,bks+11,no_fill,sang); 
0E58:  MOVLW  60
0E5A:  MOVLB  4
0E5C:  MOVWF  x60
0E5E:  MOVLW  20
0E60:  MOVWF  x61
0E62:  MOVLW  1F
0E64:  MOVWF  x62
0E66:  CLRF   x63
0E68:  MOVLW  01
0E6A:  MOVWF  x64
0E6C:  MOVLB  0
0E6E:  RCALL  0B64
....................     glcd_circle(xt,yt,bks+2,no_fill,sang); 
0E70:  MOVLW  60
0E72:  MOVLB  4
0E74:  MOVWF  x60
0E76:  MOVLW  20
0E78:  MOVWF  x61
0E7A:  MOVLW  16
0E7C:  MOVWF  x62
0E7E:  CLRF   x63
0E80:  MOVLW  01
0E82:  MOVWF  x64
0E84:  MOVLB  0
0E86:  RCALL  0B64
....................      
....................     glcd_circle(xt+12,yt-23,+2,co_fill,sang); 
0E88:  MOVLW  6C
0E8A:  MOVLB  4
0E8C:  MOVWF  x60
0E8E:  MOVLW  09
0E90:  MOVWF  x61
0E92:  MOVLW  02
0E94:  MOVWF  x62
0E96:  MOVLW  01
0E98:  MOVWF  x63
0E9A:  MOVWF  x64
0E9C:  MOVLB  0
0E9E:  RCALL  0B64
....................     glcd_circle(xt+23,yt-12,+2,co_fill,sang); 
0EA0:  MOVLW  77
0EA2:  MOVLB  4
0EA4:  MOVWF  x60
0EA6:  MOVLW  14
0EA8:  MOVWF  x61
0EAA:  MOVLW  02
0EAC:  MOVWF  x62
0EAE:  MOVLW  01
0EB0:  MOVWF  x63
0EB2:  MOVWF  x64
0EB4:  MOVLB  0
0EB6:  RCALL  0B64
....................     glcd_circle(xt+12,yt+23,+2,co_fill,sang); 
0EB8:  MOVLW  6C
0EBA:  MOVLB  4
0EBC:  MOVWF  x60
0EBE:  MOVLW  37
0EC0:  MOVWF  x61
0EC2:  MOVLW  02
0EC4:  MOVWF  x62
0EC6:  MOVLW  01
0EC8:  MOVWF  x63
0ECA:  MOVWF  x64
0ECC:  MOVLB  0
0ECE:  RCALL  0B64
....................     glcd_circle(xt+23,yt+12,+2,co_fill,sang); 
0ED0:  MOVLW  77
0ED2:  MOVLB  4
0ED4:  MOVWF  x60
0ED6:  MOVLW  2C
0ED8:  MOVWF  x61
0EDA:  MOVLW  02
0EDC:  MOVWF  x62
0EDE:  MOVLW  01
0EE0:  MOVWF  x63
0EE2:  MOVWF  x64
0EE4:  MOVLB  0
0EE6:  RCALL  0B64
....................     glcd_circle(xt-12,yt-23,+2,co_fill,sang); 
0EE8:  MOVLW  54
0EEA:  MOVLB  4
0EEC:  MOVWF  x60
0EEE:  MOVLW  09
0EF0:  MOVWF  x61
0EF2:  MOVLW  02
0EF4:  MOVWF  x62
0EF6:  MOVLW  01
0EF8:  MOVWF  x63
0EFA:  MOVWF  x64
0EFC:  MOVLB  0
0EFE:  RCALL  0B64
....................     glcd_circle(xt-23,yt-12,+2,co_fill,sang); 
0F00:  MOVLW  49
0F02:  MOVLB  4
0F04:  MOVWF  x60
0F06:  MOVLW  14
0F08:  MOVWF  x61
0F0A:  MOVLW  02
0F0C:  MOVWF  x62
0F0E:  MOVLW  01
0F10:  MOVWF  x63
0F12:  MOVWF  x64
0F14:  MOVLB  0
0F16:  RCALL  0B64
....................     glcd_circle(xt-12,yt+23,+2,co_fill,sang); 
0F18:  MOVLW  54
0F1A:  MOVLB  4
0F1C:  MOVWF  x60
0F1E:  MOVLW  37
0F20:  MOVWF  x61
0F22:  MOVLW  02
0F24:  MOVWF  x62
0F26:  MOVLW  01
0F28:  MOVWF  x63
0F2A:  MOVWF  x64
0F2C:  MOVLB  0
0F2E:  RCALL  0B64
....................     glcd_circle(xt-23,yt+12,+2,co_fill,sang); 
0F30:  MOVLW  49
0F32:  MOVLB  4
0F34:  MOVWF  x60
0F36:  MOVLW  2C
0F38:  MOVWF  x61
0F3A:  MOVLW  02
0F3C:  MOVWF  x62
0F3E:  MOVLW  01
0F40:  MOVWF  x63
0F42:  MOVWF  x64
0F44:  MOVLB  0
0F46:  RCALL  0B64
0F48:  GOTO   1E70 (RETURN)
.................... } 
....................  
.................... void tinh_vi_tri_kim_giay(usi8 bk,usi16 tg) 
.................... { 
....................     tgs45 = tg + 45; 
*
1984:  MOVLW  2D
1986:  MOVLB  4
1988:  ADDWF  x51,W
198A:  MOVWF  01
198C:  MOVLW  00
198E:  ADDWFC x52,W
1990:  MOVFF  01,438
1994:  MOVWF  x39
....................     if(tgs45>60) tgs45 = tgs45-60; 
1996:  BTFSC  x39.7
1998:  BRA    19AC
199A:  MOVF   x39,F
199C:  BNZ   19A4
199E:  MOVF   x38,W
19A0:  SUBLW  3C
19A2:  BC    19AC
19A4:  MOVLW  3C
19A6:  SUBWF  x38,F
19A8:  MOVLW  00
19AA:  SUBWFB x39,F
....................     goc_s = tgs45*6; 
19AC:  MOVFF  439,454
19B0:  MOVFF  438,453
19B4:  CLRF   x56
19B6:  MOVLW  06
19B8:  MOVWF  x55
19BA:  MOVLB  0
19BC:  GOTO   0F4C
19C0:  MOVFF  02,454
19C4:  MOVFF  01,453
19C8:  MOVLB  0
19CA:  GOTO   0FA2
19CE:  MOVFF  03,447
19D2:  MOVFF  02,446
19D6:  MOVFF  01,445
19DA:  MOVFF  00,444
....................     xs_tinh = bk*cos((goc_s*3.14)/180); 
19DE:  MOVFF  447,490
19E2:  MOVFF  446,48F
19E6:  MOVFF  445,48E
19EA:  MOVFF  444,48D
19EE:  MOVLW  C3
19F0:  MOVLB  4
19F2:  MOVWF  x94
19F4:  MOVLW  F5
19F6:  MOVWF  x93
19F8:  MOVLW  48
19FA:  MOVWF  x92
19FC:  MOVLW  80
19FE:  MOVWF  x91
1A00:  MOVLB  0
1A02:  CALL   0FF4
1A06:  MOVFF  03,456
1A0A:  MOVFF  02,455
1A0E:  MOVFF  01,454
1A12:  MOVFF  00,453
1A16:  MOVFF  03,45A
1A1A:  MOVFF  02,459
1A1E:  MOVFF  01,458
1A22:  MOVFF  00,457
1A26:  MOVLB  4
1A28:  CLRF   x5E
1A2A:  CLRF   x5D
1A2C:  MOVLW  34
1A2E:  MOVWF  x5C
1A30:  MOVLW  86
1A32:  MOVWF  x5B
1A34:  MOVLB  0
1A36:  CALL   10EA
1A3A:  MOVFF  03,456
1A3E:  MOVFF  02,455
1A42:  MOVFF  01,454
1A46:  MOVFF  00,453
1A4A:  MOVFF  03,462
1A4E:  MOVFF  02,461
1A52:  MOVFF  01,460
1A56:  MOVFF  00,45F
1A5A:  RCALL  15AE
1A5C:  MOVFF  03,456
1A60:  MOVFF  02,455
1A64:  MOVFF  01,454
1A68:  MOVFF  00,453
1A6C:  MOVLB  4
1A6E:  CLRF   x8E
1A70:  MOVFF  450,48D
1A74:  MOVLB  0
1A76:  RCALL  1300
1A78:  MOVFF  03,490
1A7C:  MOVFF  02,48F
1A80:  MOVFF  01,48E
1A84:  MOVFF  00,48D
1A88:  MOVFF  456,494
1A8C:  MOVFF  455,493
1A90:  MOVFF  454,492
1A94:  MOVFF  453,491
1A98:  CALL   0FF4
1A9C:  MOVFF  03,43F
1AA0:  MOVFF  02,43E
1AA4:  MOVFF  01,43D
1AA8:  MOVFF  00,43C
....................     ys_tinh = bk*sin((goc_s*3.14)/180); 
1AAC:  MOVFF  447,490
1AB0:  MOVFF  446,48F
1AB4:  MOVFF  445,48E
1AB8:  MOVFF  444,48D
1ABC:  MOVLW  C3
1ABE:  MOVLB  4
1AC0:  MOVWF  x94
1AC2:  MOVLW  F5
1AC4:  MOVWF  x93
1AC6:  MOVLW  48
1AC8:  MOVWF  x92
1ACA:  MOVLW  80
1ACC:  MOVWF  x91
1ACE:  MOVLB  0
1AD0:  CALL   0FF4
1AD4:  MOVFF  03,456
1AD8:  MOVFF  02,455
1ADC:  MOVFF  01,454
1AE0:  MOVFF  00,453
1AE4:  MOVFF  03,45A
1AE8:  MOVFF  02,459
1AEC:  MOVFF  01,458
1AF0:  MOVFF  00,457
1AF4:  MOVLB  4
1AF6:  CLRF   x5E
1AF8:  CLRF   x5D
1AFA:  MOVLW  34
1AFC:  MOVWF  x5C
1AFE:  MOVLW  86
1B00:  MOVWF  x5B
1B02:  MOVLB  0
1B04:  CALL   10EA
1B08:  MOVFF  03,456
1B0C:  MOVFF  02,455
1B10:  MOVFF  01,454
1B14:  MOVFF  00,453
1B18:  MOVFF  03,45A
1B1C:  MOVFF  02,459
1B20:  MOVFF  01,458
1B24:  MOVFF  00,457
1B28:  BRA    1936
1B2A:  MOVFF  03,456
1B2E:  MOVFF  02,455
1B32:  MOVFF  01,454
1B36:  MOVFF  00,453
1B3A:  MOVLB  4
1B3C:  CLRF   x8E
1B3E:  MOVFF  450,48D
1B42:  MOVLB  0
1B44:  CALL   1300
1B48:  MOVFF  03,490
1B4C:  MOVFF  02,48F
1B50:  MOVFF  01,48E
1B54:  MOVFF  00,48D
1B58:  MOVFF  456,494
1B5C:  MOVFF  455,493
1B60:  MOVFF  454,492
1B64:  MOVFF  453,491
1B68:  CALL   0FF4
1B6C:  MOVFF  03,443
1B70:  MOVFF  02,442
1B74:  MOVFF  01,441
1B78:  MOVFF  00,440
....................     xs_ve = xt + (signed int16)(xs_tinh); 
1B7C:  MOVFF  43F,48C
1B80:  MOVFF  43E,48B
1B84:  MOVFF  43D,48A
1B88:  MOVFF  43C,489
1B8C:  CALL   12C4
1B90:  MOVF   01,W
1B92:  ADDLW  60
1B94:  MOVLB  4
1B96:  MOVWF  x34
1B98:  MOVLW  00
1B9A:  ADDWFC 02,W
1B9C:  MOVWF  x35
....................     ys_ve = yt + (signed int16)(ys_tinh); 
1B9E:  MOVFF  443,48C
1BA2:  MOVFF  442,48B
1BA6:  MOVFF  441,48A
1BAA:  MOVFF  440,489
1BAE:  MOVLB  0
1BB0:  CALL   12C4
1BB4:  MOVF   01,W
1BB6:  ADDLW  20
1BB8:  MOVLB  4
1BBA:  MOVWF  x36
1BBC:  MOVLW  00
1BBE:  ADDWFC 02,W
1BC0:  MOVWF  x37
1BC2:  MOVLB  0
1BC4:  GOTO   1C04 (RETURN)
.................... } 
....................  
.................... void glcd_ve_kim_giay(usi8 bk,usi16 tg, int1 tt) 
.................... { 
....................     glcd_command(glcd_graphic_mode); 
1BC8:  MOVLW  36
1BCA:  MOVLB  4
1BCC:  MOVWF  x61
1BCE:  MOVLB  0
1BD0:  CALL   0392
....................     if(tt) glcd_line(xt,yt,xs_ve,ys_ve,tat); // xoa kim giay da hien thi truoc do  
1BD4:  MOVLB  4
1BD6:  MOVF   x4F,F
1BD8:  BZ    1BF4
1BDA:  MOVLW  60
1BDC:  MOVWF  x6C
1BDE:  MOVLW  20
1BE0:  MOVWF  x6D
1BE2:  MOVFF  434,46E
1BE6:  MOVFF  436,46F
1BEA:  CLRF   x70
1BEC:  MOVLB  0
1BEE:  CALL   09E0
1BF2:  MOVLB  4
....................      
....................     tinh_vi_tri_kim_giay(bk,tg); 
1BF4:  MOVFF  44C,450
1BF8:  MOVFF  44E,452
1BFC:  MOVFF  44D,451
1C00:  MOVLB  0
1C02:  BRA    1984
....................     glcd_line(xt,yt,xs_ve,ys_ve,sang); 
1C04:  MOVLW  60
1C06:  MOVLB  4
1C08:  MOVWF  x6C
1C0A:  MOVLW  20
1C0C:  MOVWF  x6D
1C0E:  MOVFF  434,46E
1C12:  MOVFF  436,46F
1C16:  MOVLW  01
1C18:  MOVWF  x70
1C1A:  MOVLB  0
1C1C:  CALL   09E0
....................      
....................     glcd_circle(xt,yt,4,co_fill,sang); 
1C20:  MOVLW  60
1C22:  MOVLB  4
1C24:  MOVWF  x60
1C26:  MOVLW  20
1C28:  MOVWF  x61
1C2A:  MOVLW  04
1C2C:  MOVWF  x62
1C2E:  MOVLW  01
1C30:  MOVWF  x63
1C32:  MOVWF  x64
1C34:  MOVLB  0
1C36:  CALL   0B64
....................     glcd_circle(xt,yt,2,no_fill,tat); 
1C3A:  MOVLW  60
1C3C:  MOVLB  4
1C3E:  MOVWF  x60
1C40:  MOVLW  20
1C42:  MOVWF  x61
1C44:  MOVLW  02
1C46:  MOVWF  x62
1C48:  CLRF   x63
1C4A:  CLRF   x64
1C4C:  MOVLB  0
1C4E:  CALL   0B64
1C52:  RETURN 0
.................... } 
....................  
.................... void glcd_dong_ho_so() 
.................... { 
....................     const signed int8 maglcd[]={"0123456789"}; //khai bao mang chua cac con so tu 0-9 
....................     glcd_command(glcd_text_mode); //khoi tao LCD o che do text 
*
1D4E:  MOVLW  30
1D50:  MOVLB  4
1D52:  MOVWF  x61
1D54:  MOVLB  0
1D56:  CALL   0392
....................     glcd_command(glcd_addr_line1+2); //khoi tao dia chi o hang 2 
1D5A:  MOVLW  92
1D5C:  MOVLB  4
1D5E:  MOVWF  x61
1D60:  MOVLB  0
1D62:  CALL   0392
....................     glcd_data(maglcd[giay_ds/16]); //tach hang chuc giay dang so BCD-> lay ma ascii tuong ung goi ra lcd hien thi hang chuc giay 
1D66:  SWAPF  1D,W
1D68:  MOVWF  00
1D6A:  MOVLW  0F
1D6C:  ANDWF  00,F
1D6E:  MOVF   00,W
1D70:  CLRF   03
1D72:  MOVFF  FF2,44C
1D76:  BCF    FF2.7
1D78:  CALL   0200
1D7C:  MOVLB  4
1D7E:  BTFSC  x4C.7
1D80:  BSF    FF2.7
1D82:  MOVWF  x4C
1D84:  MOVWF  x4F
1D86:  MOVLB  0
1D88:  RCALL  1C54
....................     glcd_data(maglcd[giay_ds%16]); 
1D8A:  MOVF   1D,W
1D8C:  ANDLW  0F
1D8E:  CLRF   03
1D90:  MOVFF  FF2,44C
1D94:  BCF    FF2.7
1D96:  CALL   0200
1D9A:  MOVLB  4
1D9C:  BTFSC  x4C.7
1D9E:  BSF    FF2.7
1DA0:  MOVWF  x4C
1DA2:  MOVWF  x4F
1DA4:  MOVLB  0
1DA6:  RCALL  1C54
1DA8:  GOTO   1EF4 (RETURN)
.................... } 
....................  
.................... usi16 giay_tam, giay_bin; 
....................  
.................... void main() 
1DAC:  CLRF   FF8
1DAE:  BCF    FD0.7
1DB0:  BSF    FB8.3
1DB2:  MOVLW  08
1DB4:  MOVWF  FAF
1DB6:  MOVLW  02
1DB8:  MOVWF  FB0
1DBA:  MOVLW  A6
1DBC:  MOVWF  FAC
1DBE:  MOVLW  90
1DC0:  MOVWF  FAB
1DC2:  CLRF   07
1DC4:  CLRF   06
1DC6:  SETF   2A
1DC8:  BCF    2F.0
1DCA:  BCF    2F.1
1DCC:  MOVF   FC1,W
1DCE:  ANDLW  C0
1DD0:  IORLW  0F
1DD2:  MOVWF  FC1
1DD4:  MOVLW  07
1DD6:  MOVWF  FB4
1DD8:  BRA    1DF8
1DDA:  DATA 0C,40
1DDC:  DATA 08,FF
1DDE:  DATA 16,80
1DE0:  DATA 10,22
1DE2:  DATA 13,06
1DE4:  DATA 22,04
1DE6:  DATA 22,90
1DE8:  DATA 95,30
1DEA:  DATA 30,10
1DEC:  DATA 08,20
1DEE:  DATA 02,20
1DF0:  DATA 90,96
1DF2:  DATA 00,00
1DF4:  DATA 00,00
1DF6:  DATA 00,00
1DF8:  MOVLW  00
1DFA:  MOVWF  FF8
1DFC:  MOVLW  1D
1DFE:  MOVWF  FF7
1E00:  MOVLW  DA
1E02:  MOVWF  FF6
1E04:  TBLRD*+
1E06:  MOVF   FF5,W
1E08:  MOVWF  00
1E0A:  XORLW  00
1E0C:  BZ    1E34
1E0E:  TBLRD*+
1E10:  MOVF   FF5,W
1E12:  MOVWF  01
1E14:  BTFSC  FE8.7
1E16:  BRA    1E22
1E18:  ANDLW  0F
1E1A:  MOVWF  FEA
1E1C:  TBLRD*+
1E1E:  MOVFF  FF5,FE9
1E22:  BTFSC  01.6
1E24:  TBLRD*+
1E26:  BTFSS  01.6
1E28:  TBLRD*+
1E2A:  MOVFF  FF5,FEE
1E2E:  DCFSNZ 00,F
1E30:  BRA    1E04
1E32:  BRA    1E26
1E34:  CLRF   FF8
.................... { 
....................     set_up_port(); 
1E36:  GOTO   02FA
....................     setup_glcd(glcd_text_mode); 
1E3A:  MOVLW  30
1E3C:  MOVLB  4
1E3E:  MOVWF  x60
1E40:  MOVLB  0
1E42:  CALL   03C4
....................     delay_ms(10); 
1E46:  MOVLW  0A
1E48:  MOVLB  4
1E4A:  MOVWF  x61
1E4C:  MOVLB  0
1E4E:  CALL   039C
....................      
....................     setup_glcd(glcd_graphic_mode); 
1E52:  MOVLW  36
1E54:  MOVLB  4
1E56:  MOVWF  x60
1E58:  MOVLB  0
1E5A:  CALL   03C4
....................     glcd_mau_nen(0); 
1E5E:  MOVLB  4
1E60:  CLRF   x60
1E62:  MOVLB  0
1E64:  CALL   043E
....................     ds1307_kiem_tra_ma(); 
1E68:  GOTO   06FE
....................   
....................     glcd_ve_cac_vong_tron_so(); 
1E6C:  GOTO   0D74
....................     giay_bin = (giay_ds/16)*10 + (giay_ds%16); 
1E70:  SWAPF  1D,W
1E72:  MOVWF  00
1E74:  MOVLW  0F
1E76:  ANDWF  00,F
1E78:  MOVF   00,W
1E7A:  MULLW  0A
1E7C:  MOVFF  FF3,44C
1E80:  MOVLB  4
1E82:  MOVF   1D,W
1E84:  ANDLW  0F
1E86:  ADDWF  x4C,W
1E88:  MOVWF  x4A
1E8A:  CLRF   x4B
....................     glcd_ve_kim_giay(bks,giay_bin,0); //0 la ko co xoa giay 
1E8C:  MOVLW  14
1E8E:  MOVWF  x4C
1E90:  MOVFF  44B,44E
1E94:  MOVFF  44A,44D
1E98:  CLRF   x4F
1E9A:  MOVLB  0
1E9C:  RCALL  1BC8
....................     giay_tam = 0x60; 
1E9E:  MOVLB  4
1EA0:  CLRF   x49
1EA2:  MOVLW  60
1EA4:  MOVWF  x48
....................   
....................     while(true) 
....................     { 
....................         ds1307_doc_time(8); 
1EA6:  MOVLW  08
1EA8:  MOVWF  x4C
1EAA:  MOVLB  0
1EAC:  CALL   0598
....................         if(giay_tam!=giay_ds) 
1EB0:  MOVF   1D,W
1EB2:  MOVLB  4
1EB4:  SUBWF  x48,W
1EB6:  BNZ   1EBC
1EB8:  MOVF   x49,F
1EBA:  BZ    1EF6
....................         { 
....................          giay_tam=giay_ds; 
1EBC:  CLRF   x49
1EBE:  MOVFF  1D,448
....................          giay_bin = (giay_ds/16)*10 + (giay_ds%16); //chuyen giay_ds dang so BCD thanh giay nhi phan gan cho bien giay_bin 
1EC2:  SWAPF  1D,W
1EC4:  MOVWF  00
1EC6:  MOVLW  0F
1EC8:  ANDWF  00,F
1ECA:  MOVF   00,W
1ECC:  MULLW  0A
1ECE:  MOVFF  FF3,44C
1ED2:  MOVF   1D,W
1ED4:  ANDLW  0F
1ED6:  ADDWF  x4C,W
1ED8:  MOVWF  x4A
1EDA:  CLRF   x4B
....................          glcd_ve_kim_giay(bks,giay_bin,1); //1: yeu cau ctrinh con xoa giay cu, tinh toan ve giay moi 
1EDC:  MOVLW  14
1EDE:  MOVWF  x4C
1EE0:  MOVFF  44B,44E
1EE4:  MOVFF  44A,44D
1EE8:  MOVLW  01
1EEA:  MOVWF  x4F
1EEC:  MOVLB  0
1EEE:  RCALL  1BC8
....................        
....................          gdram_vdk_to_gdram_glcd_all(); 
1EF0:  BRA    1C60
....................          glcd_dong_ho_so(); 
1EF2:  BRA    1D4E
1EF4:  MOVLB  4
....................         } 
1EF6:  BRA    1EA6
....................     } 
.................... } 
....................  
1EF8:  SLEEP 
....................  

Configuration Fuses:
   Word  1: CC07   PLL12 CPUDIV1 NOUSBDIV HS FCMEN IESO
   Word  2: 1E3E   PUT BROWNOUT BORV21 VREGEN NOWDT WDT32768
   Word  3: 8700   CCP2C1 PBADEN LPT1OSC MCLR
   Word  4: 00A1   STVREN NOLVP ICSP2 NOXINST NODEBUG
   Word  5: C00F   NOPROTECT NOCPB NOCPD
   Word  6: E00F   NOWRT NOWRTC NOWRTB NOWRTD
   Word  7: 400F   NOEBTR NOEBTRB
